---
triple:          'arm64-apple-darwin'
binary-path:     '/Users/hady/Library/Developer/Xcode/DerivedData/App-hkmwnigatdgsoocoayvvbexwopka/Build/Intermediates.noindex/ArchiveIntermediates/App/IntermediateBuildFilesPath/UninstalledProducts/iphoneos/FirebaseFirestoreInternal.framework/FirebaseFirestoreInternal'
relocations:
  - { offset: 0x33, size: 0x8, addend: 0x0, symName: _FirebaseFirestoreInternalVersionString, symObjAddr: 0x0, symBinAddr: 0x15EDB0, symSize: 0x0 }
  - { offset: 0x67, size: 0x8, addend: 0x0, symName: _FirebaseFirestoreInternalVersionNumber, symObjAddr: 0x38, symBinAddr: 0x15EDE8, symSize: 0x0 }
  - { offset: 0x3505, size: 0x8, addend: 0x0, symName: __ZN8firebase9firestore5modeleqERKNS1_14AggregateAliasES4_, symObjAddr: 0x4, symBinAddr: 0x4004, symSize: 0x6C }
  - { offset: 0x3544, size: 0x8, addend: 0x0, symName: __ZN8firebase9firestore5modeleqERKNS1_14AggregateAliasES4_, symObjAddr: 0x4, symBinAddr: 0x4004, symSize: 0x6C }
  - { offset: 0x3573, size: 0x8, addend: 0x0, symName: __ZN8firebase9firestore5modeleqERKNS1_14AggregateAliasES4_, symObjAddr: 0x4, symBinAddr: 0x4004, symSize: 0x6C }
  - { offset: 0x358F, size: 0x8, addend: 0x0, symName: __ZN8firebase9firestore5modeleqERKNS1_14AggregateAliasES4_, symObjAddr: 0x4, symBinAddr: 0x4004, symSize: 0x6C }
  - { offset: 0x3922, size: 0x8, addend: 0x0, symName: __ZNK8firebase9firestore5model14AggregateAlias11StringValueEv, symObjAddr: 0x0, symBinAddr: 0x4000, symSize: 0x4 }
  - { offset: 0x3A1C, size: 0x8, addend: 0x0, symName: __ZNK8firebase9firestore5model14AggregateAlias4HashEv, symObjAddr: 0x70, symBinAddr: 0x4070, symSize: 0x24 }
  - { offset: 0x3AE1, size: 0x8, addend: 0x0, symName: __ZNKSt3__113__string_hashIcNS_9allocatorIcEEEclB8ne200100ERKNS_12basic_stringIcNS_11char_traitsIcEES2_EE, symObjAddr: 0x94, symBinAddr: 0x4094, symSize: 0x3C }
  - { offset: 0x3BAE, size: 0x8, addend: 0x0, symName: __ZNKSt3__121__murmur2_or_cityhashImLm64EEclB8ne200100EPKvm, symObjAddr: 0xE0, symBinAddr: 0x40E0, symSize: 0x208 }
  - { offset: 0x41EF, size: 0x8, addend: 0x0, symName: __ZNSt3__121__murmur2_or_cityhashImLm64EE18__hash_len_0_to_16B8ne200100EPKcm, symObjAddr: 0x2E8, symBinAddr: 0x42E8, symSize: 0xF8 }
  - { offset: 0x43EF, size: 0x8, addend: 0x0, symName: __ZNSt3__121__murmur2_or_cityhashImLm64EE19__hash_len_33_to_64B8ne200100EPKcm, symObjAddr: 0x48C, symBinAddr: 0x448C, symSize: 0xC0 }
  - { offset: 0x464A, size: 0x8, addend: 0x0, symName: __ZNSt3__121__murmur2_or_cityhashImLm64EE19__hash_len_17_to_32B8ne200100EPKcm, symObjAddr: 0x3E0, symBinAddr: 0x43E0, symSize: 0xAC }
  - { offset: 0xB5D4, size: 0x8, addend: 0x0, symName: __ZNK8firebase9firestore5model14AggregateField4HashEv, symObjAddr: 0x0, symBinAddr: 0x454C, symSize: 0x94 }
  - { offset: 0x1D5E9, size: 0x8, addend: 0x0, symName: __ZNSt3__125__throw_bad_function_callB8ne200100Ev, symObjAddr: 0xF30, symBinAddr: 0x5348, symSize: 0x34 }
  - { offset: 0x1D7EF, size: 0x8, addend: 0x0, symName: __ZNSt3__120__throw_length_errorB8ne200100EPKc, symObjAddr: 0x1128, symBinAddr: 0x5540, symSize: 0x50 }
  - { offset: 0x20D5C, size: 0x8, addend: 0x0, symName: __ZN8firebase9firestore4util4impl16RankedInvokeHashINSt3__16vectorINS0_5model14AggregateFieldENS4_9allocatorIS7_EEEEEEDTcl10InvokeHashdeclsr3stdE5beginfp_EEERKT_NS2_10HashChoiceILi3EEE, symObjAddr: 0xA64, symBinAddr: 0x4E7C, symSize: 0x68 }
  - { offset: 0x22570, size: 0x8, addend: 0x0, symName: __ZN8firebase9firestore5modeleqERKNS1_14AggregateFieldES4_, symObjAddr: 0x950, symBinAddr: 0x4D68, symSize: 0x114 }
  - { offset: 0x2341B, size: 0x8, addend: 0x0, symName: __ZN8firebase9firestore3apieqERKNS1_14AggregateQueryES4_, symObjAddr: 0x0, symBinAddr: 0x45E0, symSize: 0x88 }
  - { offset: 0x26D7D, size: 0x8, addend: 0x0, symName: __ZN8firebase9firestore3api14AggregateQuery3GetEONSt3__18functionIFvRKNS0_4util8StatusOrIxEEEEE, symObjAddr: 0x1A0, symBinAddr: 0x4780, symSize: 0x154 }
  - { offset: 0x274E8, size: 0x8, addend: 0x0, symName: __ZNK8firebase9firestore3api14AggregateQuery4HashEv, symObjAddr: 0x88, symBinAddr: 0x4668, symSize: 0x38 }
  - { offset: 0x27643, size: 0x8, addend: 0x0, symName: __ZN8firebase9firestore3api14AggregateQueryC2ENS1_5QueryEONSt3__16vectorINS0_5model14AggregateFieldENS4_9allocatorIS7_EEEE, symObjAddr: 0xC0, symBinAddr: 0x46A0, symSize: 0x54 }
  - { offset: 0x276F5, size: 0x8, addend: 0x0, symName: __ZN8firebase9firestore3api5QueryC2EOS2_, symObjAddr: 0x30C, symBinAddr: 0x48EC, symSize: 0x104 }
  - { offset: 0x27729, size: 0x8, addend: 0x0, symName: __ZN8firebase9firestore3api5QueryC2EOS2_, symObjAddr: 0x30C, symBinAddr: 0x48EC, symSize: 0x104 }
  - { offset: 0x2774B, size: 0x8, addend: 0x0, symName: __ZN8firebase9firestore3api5QueryC2EOS2_, symObjAddr: 0x30C, symBinAddr: 0x48EC, symSize: 0x104 }
  - { offset: 0x27E52, size: 0x8, addend: 0x0, symName: __ZN8firebase9firestore3api14AggregateQueryC1ENS1_5QueryEONSt3__16vectorINS0_5model14AggregateFieldENS4_9allocatorIS7_EEEE, symObjAddr: 0x114, symBinAddr: 0x46F4, symSize: 0x54 }
  - { offset: 0x27F90, size: 0x8, addend: 0x0, symName: __ZN8firebase9firestore3api14AggregateQuery12GetAggregateEONSt3__18functionIFvRKNS0_4util8StatusOrINS0_5model11ObjectValueEEEEEE, symObjAddr: 0x168, symBinAddr: 0x4748, symSize: 0x38 }
  - { offset: 0x28479, size: 0x8, addend: 0x0, symName: __ZNSt3__110__function12__value_funcIFvRKN8firebase9firestore4util8StatusOrIxEEEEC2B8ne200100EOSA_, symObjAddr: 0xACC, symBinAddr: 0x4EE4, symSize: 0x64 }
  - { offset: 0x284C6, size: 0x8, addend: 0x0, symName: __ZN8firebase9firestore3api14AggregateQueryD1Ev, symObjAddr: 0x2F4, symBinAddr: 0x48D4, symSize: 0x4 }
  - { offset: 0x284E9, size: 0x8, addend: 0x0, symName: __ZN8firebase9firestore3api14AggregateQueryD1Ev, symObjAddr: 0x2F4, symBinAddr: 0x48D4, symSize: 0x4 }
  - { offset: 0x284FC, size: 0x8, addend: 0x0, symName: __ZN8firebase9firestore3api14AggregateQueryD2Ev, symObjAddr: 0x420, symBinAddr: 0x49F0, symSize: 0x58 }
  - { offset: 0x28649, size: 0x8, addend: 0x0, symName: __ZN8firebase9firestore3api14AggregateQueryD0Ev, symObjAddr: 0x2F8, symBinAddr: 0x48D8, symSize: 0x14 }
  - { offset: 0x28C2C, size: 0x8, addend: 0x0, symName: __ZNSt3__16vectorIN8firebase9firestore5model14AggregateFieldENS_9allocatorIS4_EEE16__destroy_vectorclB8ne200100Ev, symObjAddr: 0x478, symBinAddr: 0x4A48, symSize: 0x74 }
  - { offset: 0x28D6E, size: 0x8, addend: 0x0, symName: __ZN8firebase9firestore4core5QueryD2Ev, symObjAddr: 0x5BC, symBinAddr: 0x4B8C, symSize: 0xA4 }
  - { offset: 0x293F7, size: 0x8, addend: 0x0, symName: __ZNSt3__19allocatorIN8firebase9firestore5model14AggregateFieldEE7destroyB8ne200100EPS4_, symObjAddr: 0x4EC, symBinAddr: 0x4ABC, symSize: 0x44 }
  - { offset: 0x2987E, size: 0x8, addend: 0x0, symName: __ZNSt3__16vectorINS_12basic_stringIcNS_11char_traitsIcEENS_9allocatorIcEEEENS4_IS6_EEE16__destroy_vectorclB8ne200100Ev, symObjAddr: 0x530, symBinAddr: 0x4B00, symSize: 0x40 }
  - { offset: 0x29987, size: 0x8, addend: 0x0, symName: __ZNSt3__16vectorINS_12basic_stringIcNS_11char_traitsIcEENS_9allocatorIcEEEENS4_IS6_EEE5clearB8ne200100Ev, symObjAddr: 0x570, symBinAddr: 0x4B40, symSize: 0x4C }
  - { offset: 0x29E7B, size: 0x8, addend: 0x0, symName: __ZNSt3__110shared_ptrIN8firebase9firestore4util18ThreadSafeMemoizerINS2_4core6TargetEEEED2B8ne200100Ev, symObjAddr: 0x660, symBinAddr: 0x4C30, symSize: 0x58 }
  - { offset: 0x29FC2, size: 0x8, addend: 0x0, symName: __ZNSt3__16vectorIN8firebase9firestore4core7OrderByENS_9allocatorIS4_EEE16__destroy_vectorclB8ne200100Ev, symObjAddr: 0x768, symBinAddr: 0x4C88, symSize: 0x70 }
  - { offset: 0x2A231, size: 0x8, addend: 0x0, symName: __ZNSt3__16vectorIN8firebase9firestore4core6FilterENS_9allocatorIS4_EEE16__destroy_vectorclB8ne200100Ev, symObjAddr: 0x7D8, symBinAddr: 0x4CF8, symSize: 0x70 }
  - { offset: 0x2A87C, size: 0x8, addend: 0x0, symName: '__ZNSt3__110__function6__funcIZN8firebase9firestore3api14AggregateQuery3GetEONS_8functionIFvRKNS3_4util8StatusOrIxEEEEEE3$_0NS_9allocatorISF_EEFvRKNS8_INS3_5model11ObjectValueEEEEED1Ev', symObjAddr: 0xB30, symBinAddr: 0x4F48, symSize: 0x58 }
  - { offset: 0x2A9D7, size: 0x8, addend: 0x0, symName: '__ZNSt3__110__function6__funcIZN8firebase9firestore3api14AggregateQuery3GetEONS_8functionIFvRKNS3_4util8StatusOrIxEEEEEE3$_0NS_9allocatorISF_EEFvRKNS8_INS3_5model11ObjectValueEEEEED0Ev', symObjAddr: 0xB88, symBinAddr: 0x4FA0, symSize: 0x58 }
  - { offset: 0x2ADB9, size: 0x8, addend: 0x0, symName: '__ZNKSt3__110__function6__funcIZN8firebase9firestore3api14AggregateQuery3GetEONS_8functionIFvRKNS3_4util8StatusOrIxEEEEEE3$_0NS_9allocatorISF_EEFvRKNS8_INS3_5model11ObjectValueEEEEE7__cloneEv', symObjAddr: 0xBE0, symBinAddr: 0x4FF8, symSize: 0x54 }
  - { offset: 0x2B057, size: 0x8, addend: 0x0, symName: __ZNSt3__110__function12__value_funcIFvRKN8firebase9firestore4util8StatusOrIxEEEEC2B8ne200100ERKSA_, symObjAddr: 0xECC, symBinAddr: 0x52E4, symSize: 0x64 }
  - { offset: 0x2B16F, size: 0x8, addend: 0x0, symName: '__ZNKSt3__110__function6__funcIZN8firebase9firestore3api14AggregateQuery3GetEONS_8functionIFvRKNS3_4util8StatusOrIxEEEEEE3$_0NS_9allocatorISF_EEFvRKNS8_INS3_5model11ObjectValueEEEEE7__cloneEPNS0_6__baseISN_EE', symObjAddr: 0xC34, symBinAddr: 0x504C, symSize: 0x1C }
  - { offset: 0x2B2BC, size: 0x8, addend: 0x0, symName: '__ZNSt3__110__function6__funcIZN8firebase9firestore3api14AggregateQuery3GetEONS_8functionIFvRKNS3_4util8StatusOrIxEEEEEE3$_0NS_9allocatorISF_EEFvRKNS8_INS3_5model11ObjectValueEEEEE7destroyEv', symObjAddr: 0xC50, symBinAddr: 0x5068, symSize: 0x30 }
  - { offset: 0x2B3C3, size: 0x8, addend: 0x0, symName: '__ZNSt3__110__function6__funcIZN8firebase9firestore3api14AggregateQuery3GetEONS_8functionIFvRKNS3_4util8StatusOrIxEEEEEE3$_0NS_9allocatorISF_EEFvRKNS8_INS3_5model11ObjectValueEEEEE18destroy_deallocateEv', symObjAddr: 0xC80, symBinAddr: 0x5098, symSize: 0x4C }
  - { offset: 0x2B945, size: 0x8, addend: 0x0, symName: '__ZNSt3__110__function6__funcIZN8firebase9firestore3api14AggregateQuery3GetEONS_8functionIFvRKNS3_4util8StatusOrIxEEEEEE3$_0NS_9allocatorISF_EEFvRKNS8_INS3_5model11ObjectValueEEEEEclESM_', symObjAddr: 0xCCC, symBinAddr: 0x50E4, symSize: 0x1B8 }
  - { offset: 0x2C692, size: 0x8, addend: 0x0, symName: __ZN8firebase9firestore4util17internal_statusor12StatusOrDataIxEC2ERKNS1_6StatusE, symObjAddr: 0xF7C, symBinAddr: 0x5394, symSize: 0x60 }
  - { offset: 0x2C8B3, size: 0x8, addend: 0x0, symName: __ZNSt3__112basic_stringIcNS_11char_traitsIcEENS_9allocatorIcEEEC2B8ne200100ILi0EEEPKc, symObjAddr: 0x11C4, symBinAddr: 0x55DC, symSize: 0xA4 }
  - { offset: 0x2CB0B, size: 0x8, addend: 0x0, symName: __ZNKSt9type_infoeqB8ne200100ERKS_, symObjAddr: 0x1268, symBinAddr: 0x5680, symSize: 0x4C }
  - { offset: 0x2CB1D, size: 0x8, addend: 0x0, symName: __ZNSt3__112basic_stringIcNS_11char_traitsIcEENS_9allocatorIcEEE25__init_copy_ctor_externalEPKcm, symObjAddr: 0x1094, symBinAddr: 0x54AC, symSize: 0x80 }
  - { offset: 0x2CCEF, size: 0x8, addend: 0x0, symName: __ZNSt3__112basic_stringIcNS_11char_traitsIcEENS_9allocatorIcEEE20__throw_length_errorB8ne200100Ev, symObjAddr: 0x1114, symBinAddr: 0x552C, symSize: 0x14 }
  - { offset: 0x2CCF9, size: 0x8, addend: 0x0, symName: __ZNSt3__110unique_ptrIN8firebase9firestore4util6Status5StateENS5_7DeleterEE5resetB8ne200100EPS5_, symObjAddr: 0x119C, symBinAddr: 0x55B4, symSize: 0x28 }
  - { offset: 0x2CD3F, size: 0x8, addend: 0x0, symName: '__ZNKSt3__110__function6__funcIZN8firebase9firestore3api14AggregateQuery3GetEONS_8functionIFvRKNS3_4util8StatusOrIxEEEEEE3$_0NS_9allocatorISF_EEFvRKNS8_INS3_5model11ObjectValueEEEEE6targetERKSt9type_info', symObjAddr: 0xE84, symBinAddr: 0x529C, symSize: 0x3C }
  - { offset: 0x2CD89, size: 0x8, addend: 0x0, symName: __ZNKSt9type_infoeqB8ne200100ERKS_, symObjAddr: 0x1268, symBinAddr: 0x5680, symSize: 0x4C }
  - { offset: 0x2CE24, size: 0x8, addend: 0x0, symName: '__ZNKSt3__110__function6__funcIZN8firebase9firestore3api14AggregateQuery3GetEONS_8functionIFvRKNS3_4util8StatusOrIxEEEEEE3$_0NS_9allocatorISF_EEFvRKNS8_INS3_5model11ObjectValueEEEEE11target_typeEv', symObjAddr: 0xEC0, symBinAddr: 0x52D8, symSize: 0xC }
  - { offset: 0x2CEAA, size: 0x8, addend: 0x0, symName: __ZNSt3__117bad_function_callD1Ev, symObjAddr: 0xF64, symBinAddr: 0x537C, symSize: 0x4 }
  - { offset: 0x2CECC, size: 0x8, addend: 0x0, symName: __ZNSt3__117bad_function_callD1Ev, symObjAddr: 0xF64, symBinAddr: 0x537C, symSize: 0x4 }
  - { offset: 0x2CEFF, size: 0x8, addend: 0x0, symName: __ZNSt3__117bad_function_callD0Ev, symObjAddr: 0xF68, symBinAddr: 0x5380, symSize: 0x14 }
  - { offset: 0x2D020, size: 0x8, addend: 0x0, symName: __ZN8firebase9firestore4util6Status5State7MakePtrIJRS3_EEENSt3__110unique_ptrIS3_NS3_7DeleterEEEDpOT_, symObjAddr: 0xFDC, symBinAddr: 0x53F4, symSize: 0xB8 }
  - { offset: 0x2D4C3, size: 0x8, addend: 0x0, symName: __ZNSt3__112basic_stringIcNS_11char_traitsIcEENS_9allocatorIcEEE20__throw_length_errorB8ne200100Ev, symObjAddr: 0x1114, symBinAddr: 0x552C, symSize: 0x14 }
  - { offset: 0x2D4DA, size: 0x8, addend: 0x0, symName: __ZNSt3__120__throw_length_errorB8ne200100EPKc, symObjAddr: 0x1128, symBinAddr: 0x5540, symSize: 0x50 }
  - { offset: 0x2D4E5, size: 0x8, addend: 0x0, symName: __ZNSt12length_errorC1B8ne200100EPKc, symObjAddr: 0x1178, symBinAddr: 0x5590, symSize: 0x24 }
  - { offset: 0x2F45A, size: 0x8, addend: 0x0, symName: __ZNK8firebase9firestore38_google_firestore_v1_AggregationResult8ToStringEi, symObjAddr: 0x0, symBinAddr: 0x56CC, symSize: 0x218 }
  - { offset: 0x2F47E, size: 0x8, addend: 0x0, symName: __ZN8firebase9firestore44google_firestore_v1_AggregationResult_fieldsE, symObjAddr: 0xE78, symBinAddr: 0x204DB8, symSize: 0x0 }
  - { offset: 0x2F498, size: 0x8, addend: 0x0, symName: __ZN8firebase9firestore65google_firestore_v1_AggregationResult_AggregateFieldsEntry_fieldsE, symObjAddr: 0xE18, symBinAddr: 0x204D58, symSize: 0x0 }
  - { offset: 0x2F505, size: 0x8, addend: 0x0, symName: __ZN8firebase9firestore6nanopb17PrintMessageFieldINS0_59_google_firestore_v1_AggregationResult_AggregateFieldsEntryEEENSt3__112basic_stringIcNS4_11char_traitsIcEENS4_9allocatorIcEEEEN4absl12lts_2024011611string_viewERKT_ib, symObjAddr: 0x218, symBinAddr: 0x58E4, symSize: 0x27C }
  - { offset: 0x30384, size: 0x8, addend: 0x0, symName: __ZN8firebase9firestore6nanopb19PrintPrimitiveFieldIP16pb_bytes_array_sEENSt3__112basic_stringIcNS5_11char_traitsIcEENS5_9allocatorIcEEEEN4absl12lts_2024011611string_viewET_ib, symObjAddr: 0x760, symBinAddr: 0x5E2C, symSize: 0x194 }
  - { offset: 0x30B9A, size: 0x8, addend: 0x0, symName: __ZN8firebase9firestore6nanopb17PrintMessageFieldINS0_26_google_firestore_v1_ValueEEENSt3__112basic_stringIcNS4_11char_traitsIcEENS4_9allocatorIcEEEEN4absl12lts_2024011611string_viewERKT_ib, symObjAddr: 0x8F4, symBinAddr: 0x5FC0, symSize: 0x27C }
  - { offset: 0x3300F, size: 0x8, addend: 0x0, symName: __ZNSt3__1plB8ne200100IcNS_11char_traitsIcEENS_9allocatorIcEEEENS_12basic_stringIT_T0_T1_EERKS9_SB_, symObjAddr: 0x494, symBinAddr: 0x5B60, symSize: 0xC8 }
  - { offset: 0x34E1B, size: 0x8, addend: 0x0, symName: __ZNK8firebase9firestore38_google_firestore_v1_AggregationResult8ToStringEi, symObjAddr: 0x0, symBinAddr: 0x56CC, symSize: 0x218 }
  - { offset: 0x35DD5, size: 0x8, addend: 0x0, symName: __ZNK8firebase9firestore59_google_firestore_v1_AggregationResult_AggregateFieldsEntry8ToStringEi, symObjAddr: 0x55C, symBinAddr: 0x5C28, symSize: 0x204 }
  - { offset: 0x36BF2, size: 0x8, addend: 0x0, symName: __ZNSt3__112basic_stringIcNS_11char_traitsIcEENS_9allocatorIcEEEC2B8ne200100ENS_24__uninitialized_size_tagEmRKS4_, symObjAddr: 0xB70, symBinAddr: 0x623C, symSize: 0x78 }
  - { offset: 0x38D09, size: 0x8, addend: 0x0, symName: __ZNK8firebase9firestore20_google_protobuf_Any8ToStringEi, symObjAddr: 0x0, symBinAddr: 0x62B4, symSize: 0x238 }
  - { offset: 0x38D2D, size: 0x8, addend: 0x0, symName: __ZN8firebase9firestore26google_protobuf_Any_fieldsE, symObjAddr: 0x6A8, symBinAddr: 0x15EF90, symSize: 0x0 }
  - { offset: 0x3BCB8, size: 0x8, addend: 0x0, symName: __ZNK8firebase9firestore20_google_protobuf_Any8ToStringEi, symObjAddr: 0x0, symBinAddr: 0x62B4, symSize: 0x238 }
  - { offset: 0x42B47, size: 0x8, addend: 0x0, symName: __ZNSt3__115allocate_sharedB8ne200100IN8firebase9firestore4core22ArrayContainsAnyFilter3RepENS_9allocatorIS5_EEJRKNS2_5model9FieldPathENS2_6nanopb13SharedMessageINS2_26_google_firestore_v1_ValueEEEELi0EEENS_10shared_ptrIT_EERKT0_DpOT1_, symObjAddr: 0x4B0, symBinAddr: 0x67F0, symSize: 0x60 }
  - { offset: 0x43477, size: 0x8, addend: 0x0, symName: __ZNSt3__135__uninitialized_allocator_copy_implB8ne200100INS_9allocatorINS_12basic_stringIcNS_11char_traitsIcEENS1_IcEEEEEEPS6_S8_S8_EET2_RT_T0_T1_S9_, symObjAddr: 0x85C, symBinAddr: 0x6B28, symSize: 0xBC }
  - { offset: 0x436CE, size: 0x8, addend: 0x0, symName: __ZNSt3__119__allocate_at_leastB8ne200100INS_9allocatorINS_12basic_stringIcNS_11char_traitsIcEENS1_IcEEEEEEEENS_19__allocation_resultINS_16allocator_traitsIT_E7pointerEEERSA_m, symObjAddr: 0x7A4, symBinAddr: 0x6AE4, symSize: 0x44 }
  - { offset: 0x4454D, size: 0x8, addend: 0x0, symName: __ZSt28__throw_bad_array_new_lengthB8ne200100v, symObjAddr: 0x510, symBinAddr: 0x6850, symSize: 0x28 }
  - { offset: 0x45B52, size: 0x8, addend: 0x0, symName: __ZN8firebase9firestore4core22ArrayContainsAnyFilterC2ERKNS0_5model9FieldPathENS0_6nanopb13SharedMessageINS0_26_google_firestore_v1_ValueEEE, symObjAddr: 0x0, symBinAddr: 0x64EC, symSize: 0xD8 }
  - { offset: 0x45E82, size: 0x8, addend: 0x0, symName: __ZN8firebase9firestore4core22ArrayContainsAnyFilterC1ERKNS0_5model9FieldPathENS0_6nanopb13SharedMessageINS0_26_google_firestore_v1_ValueEEE, symObjAddr: 0xD8, symBinAddr: 0x65C4, symSize: 0x4 }
  - { offset: 0x45ECA, size: 0x8, addend: 0x0, symName: __ZN8firebase9firestore4core22ArrayContainsAnyFilterC1ERKNS0_5model9FieldPathENS0_6nanopb13SharedMessageINS0_26_google_firestore_v1_ValueEEE, symObjAddr: 0xD8, symBinAddr: 0x65C4, symSize: 0x4 }
  - { offset: 0x45FC8, size: 0x8, addend: 0x0, symName: __ZNK8firebase9firestore4core22ArrayContainsAnyFilter3Rep7MatchesERKNS0_5model8DocumentE, symObjAddr: 0xDC, symBinAddr: 0x65C8, symSize: 0xB4 }
  - { offset: 0x46308, size: 0x8, addend: 0x0, symName: __ZN8firebase9firestore4core22ArrayContainsAnyFilter3RepD1Ev, symObjAddr: 0x190, symBinAddr: 0x667C, symSize: 0x68 }
  - { offset: 0x46611, size: 0x8, addend: 0x0, symName: __ZN8firebase9firestore4core22ArrayContainsAnyFilter3RepD0Ev, symObjAddr: 0x1F8, symBinAddr: 0x66E4, symSize: 0x6C }
  - { offset: 0x4680C, size: 0x8, addend: 0x0, symName: __ZNK8firebase9firestore4core22ArrayContainsAnyFilter3Rep4typeEv, symObjAddr: 0x264, symBinAddr: 0x6750, symSize: 0x8 }
  - { offset: 0x46831, size: 0x8, addend: 0x0, symName: __ZNK8firebase9firestore4core11FieldFilter3Rep14IsAFieldFilterEv, symObjAddr: 0x26C, symBinAddr: 0x6758, symSize: 0x8 }
  - { offset: 0x46856, size: 0x8, addend: 0x0, symName: __ZNK8firebase9firestore4core6Filter3Rep18IsACompositeFilterEv, symObjAddr: 0x274, symBinAddr: 0x6760, symSize: 0x8 }
  - { offset: 0x4687B, size: 0x8, addend: 0x0, symName: __ZNK8firebase9firestore4core11FieldFilter3Rep7IsEmptyEv, symObjAddr: 0x27C, symBinAddr: 0x6768, symSize: 0x8 }
  - { offset: 0x468A1, size: 0x8, addend: 0x0, symName: __ZN8firebase9firestore4core11FieldFilter3RepD2Ev, symObjAddr: 0x284, symBinAddr: 0x6770, symSize: 0x68 }
  - { offset: 0x46CF7, size: 0x8, addend: 0x0, symName: __ZN8firebase9firestore4core6Filter3RepD1Ev, symObjAddr: 0x3E0, symBinAddr: 0x157CD8, symSize: 0x4 }
  - { offset: 0x46D1F, size: 0x8, addend: 0x0, symName: __ZN8firebase9firestore4core6Filter3RepD0Ev, symObjAddr: 0x3E4, symBinAddr: 0x157CDC, symSize: 0x4 }
  - { offset: 0x46D46, size: 0x8, addend: 0x0, symName: __ZNK8firebase9firestore4core6Filter3Rep4typeEv, symObjAddr: 0x3E8, symBinAddr: 0x67D8, symSize: 0x8 }
  - { offset: 0x46D6B, size: 0x8, addend: 0x0, symName: __ZNK8firebase9firestore4core6Filter3Rep14IsAFieldFilterEv, symObjAddr: 0x3F0, symBinAddr: 0x67E0, symSize: 0x8 }
  - { offset: 0x46D90, size: 0x8, addend: 0x0, symName: __ZNK8firebase9firestore4core6Filter3Rep12IsInequalityEv, symObjAddr: 0x3F8, symBinAddr: 0x67E8, symSize: 0x8 }
  - { offset: 0x47004, size: 0x8, addend: 0x0, symName: __ZNSt3__120__shared_ptr_emplaceIN8firebase9firestore4core22ArrayContainsAnyFilter3RepENS_9allocatorIS5_EEEC2B8ne200100IJRKNS2_5model9FieldPathENS2_6nanopb13SharedMessageINS2_26_google_firestore_v1_ValueEEEES7_Li0EEES7_DpOT_, symObjAddr: 0x538, symBinAddr: 0x6878, symSize: 0x64 }
  - { offset: 0x471D7, size: 0x8, addend: 0x0, symName: __ZNSt3__19allocatorIN8firebase9firestore4core22ArrayContainsAnyFilter3RepEE9constructB8ne200100IS5_JRKNS2_5model9FieldPathENS2_6nanopb13SharedMessageINS2_26_google_firestore_v1_ValueEEEEEEvPT_DpOT0_, symObjAddr: 0x5E4, symBinAddr: 0x6924, symSize: 0xE0 }
  - { offset: 0x4775A, size: 0x8, addend: 0x0, symName: __ZNSt3__120__shared_ptr_emplaceIN8firebase9firestore4core22ArrayContainsAnyFilter3RepENS_9allocatorIS5_EEED1Ev, symObjAddr: 0x59C, symBinAddr: 0x68DC, symSize: 0x14 }
  - { offset: 0x4777C, size: 0x8, addend: 0x0, symName: __ZNSt3__120__shared_ptr_emplaceIN8firebase9firestore4core22ArrayContainsAnyFilter3RepENS_9allocatorIS5_EEED1Ev, symObjAddr: 0x59C, symBinAddr: 0x68DC, symSize: 0x14 }
  - { offset: 0x477B1, size: 0x8, addend: 0x0, symName: __ZNSt3__120__shared_ptr_emplaceIN8firebase9firestore4core22ArrayContainsAnyFilter3RepENS_9allocatorIS5_EEED0Ev, symObjAddr: 0x5B0, symBinAddr: 0x68F0, symSize: 0x24 }
  - { offset: 0x4789A, size: 0x8, addend: 0x0, symName: __ZNSt3__120__shared_ptr_emplaceIN8firebase9firestore4core22ArrayContainsAnyFilter3RepENS_9allocatorIS5_EEE16__on_zero_sharedEv, symObjAddr: 0x5D4, symBinAddr: 0x6914, symSize: 0xC }
  - { offset: 0x478C2, size: 0x8, addend: 0x0, symName: __ZNSt3__120__shared_ptr_emplaceIN8firebase9firestore4core22ArrayContainsAnyFilter3RepENS_9allocatorIS5_EEE16__on_zero_sharedEv, symObjAddr: 0x5D4, symBinAddr: 0x6914, symSize: 0xC }
  - { offset: 0x478DF, size: 0x8, addend: 0x0, symName: __ZNSt3__120__shared_ptr_emplaceIN8firebase9firestore4core22ArrayContainsAnyFilter3RepENS_9allocatorIS5_EEE16__on_zero_sharedEv, symObjAddr: 0x5D4, symBinAddr: 0x6914, symSize: 0xC }
  - { offset: 0x478FC, size: 0x8, addend: 0x0, symName: __ZNSt3__120__shared_ptr_emplaceIN8firebase9firestore4core22ArrayContainsAnyFilter3RepENS_9allocatorIS5_EEE16__on_zero_sharedEv, symObjAddr: 0x5D4, symBinAddr: 0x6914, symSize: 0xC }
  - { offset: 0x47926, size: 0x8, addend: 0x0, symName: __ZNSt3__120__shared_ptr_emplaceIN8firebase9firestore4core22ArrayContainsAnyFilter3RepENS_9allocatorIS5_EEE21__on_zero_shared_weakEv, symObjAddr: 0x5E0, symBinAddr: 0x6920, symSize: 0x4 }
  - { offset: 0x47957, size: 0x8, addend: 0x0, symName: __ZNSt3__120__shared_ptr_emplaceIN8firebase9firestore4core22ArrayContainsAnyFilter3RepENS_9allocatorIS5_EEE21__on_zero_shared_weakEv, symObjAddr: 0x5E0, symBinAddr: 0x6920, symSize: 0x4 }
  - { offset: 0x47979, size: 0x8, addend: 0x0, symName: __ZNSt3__120__shared_ptr_emplaceIN8firebase9firestore4core22ArrayContainsAnyFilter3RepENS_9allocatorIS5_EEE21__on_zero_shared_weakEv, symObjAddr: 0x5E0, symBinAddr: 0x6920, symSize: 0x4 }
  - { offset: 0x4799C, size: 0x8, addend: 0x0, symName: __ZNSt3__120__shared_ptr_emplaceIN8firebase9firestore4core22ArrayContainsAnyFilter3RepENS_9allocatorIS5_EEE21__on_zero_shared_weakEv, symObjAddr: 0x5E0, symBinAddr: 0x6920, symSize: 0x4 }
  - { offset: 0x479D1, size: 0x8, addend: 0x0, symName: __ZNSt3__120__shared_ptr_emplaceIN8firebase9firestore4core22ArrayContainsAnyFilter3RepENS_9allocatorIS5_EEE21__on_zero_shared_weakEv, symObjAddr: 0x5E0, symBinAddr: 0x6920, symSize: 0x4 }
  - { offset: 0x47B79, size: 0x8, addend: 0x0, symName: __ZNSt3__16vectorINS_12basic_stringIcNS_11char_traitsIcEENS_9allocatorIcEEEENS4_IS6_EEE16__init_with_sizeB8ne200100IPS6_SA_EEvT_T0_m, symObjAddr: 0x6C4, symBinAddr: 0x6A04, symSize: 0x84 }
  - { offset: 0x47DD4, size: 0x8, addend: 0x0, symName: __ZN8firebase9firestore4core22ArrayContainsAnyFilter3RepC2ENS0_5model9FieldPathENS0_6nanopb13SharedMessageINS0_26_google_firestore_v1_ValueEEE, symObjAddr: 0xA24, symBinAddr: 0x6C5C, symSize: 0x148 }
  - { offset: 0x4867A, size: 0x8, addend: 0x0, symName: __ZNSt3__16vectorINS_12basic_stringIcNS_11char_traitsIcEENS_9allocatorIcEEEENS4_IS6_EEE11__vallocateB8ne200100Em, symObjAddr: 0x748, symBinAddr: 0x6A88, symSize: 0x48 }
  - { offset: 0x486D0, size: 0x8, addend: 0x0, symName: __ZNSt3__16vectorINS_12basic_stringIcNS_11char_traitsIcEENS_9allocatorIcEEEENS4_IS6_EEE20__throw_length_errorB8ne200100Ev, symObjAddr: 0x790, symBinAddr: 0x6AD0, symSize: 0x14 }
  - { offset: 0x486DB, size: 0x8, addend: 0x0, symName: __ZNSt3__16vectorINS_12basic_stringIcNS_11char_traitsIcEENS_9allocatorIcEEEENS4_IS6_EEE20__throw_length_errorB8ne200100Ev, symObjAddr: 0x790, symBinAddr: 0x6AD0, symSize: 0x14 }
  - { offset: 0x486F2, size: 0x8, addend: 0x0, symName: __ZNSt3__119__allocate_at_leastB8ne200100INS_9allocatorINS_12basic_stringIcNS_11char_traitsIcEENS1_IcEEEEEEEENS_19__allocation_resultINS_16allocator_traitsIT_E7pointerEEERSA_m, symObjAddr: 0x7A4, symBinAddr: 0x6AE4, symSize: 0x44 }
  - { offset: 0x48A07, size: 0x8, addend: 0x0, symName: __ZNSt3__128__exception_guard_exceptionsINS_29_AllocatorDestroyRangeReverseINS_9allocatorINS_12basic_stringIcNS_11char_traitsIcEENS2_IcEEEEEEPS7_EEED2B8ne200100Ev, symObjAddr: 0x9AC, symBinAddr: 0x6BE4, symSize: 0x34 }
  - { offset: 0x48B25, size: 0x8, addend: 0x0, symName: __ZNSt3__128__exception_guard_exceptionsINS_29_AllocatorDestroyRangeReverseINS_9allocatorINS_12basic_stringIcNS_11char_traitsIcEENS2_IcEEEEEEPS7_EEED2B8ne200100Ev, symObjAddr: 0x9AC, symBinAddr: 0x6BE4, symSize: 0x34 }
  - { offset: 0x48B2F, size: 0x8, addend: 0x0, symName: __ZNKSt3__129_AllocatorDestroyRangeReverseINS_9allocatorINS_12basic_stringIcNS_11char_traitsIcEENS1_IcEEEEEEPS6_EclB8ne200100Ev, symObjAddr: 0x9E0, symBinAddr: 0x6C18, symSize: 0x44 }
  - { offset: 0x4E714, size: 0x8, addend: 0x0, symName: __ZNSt3__115allocate_sharedB8ne200100IKN8firebase9firestore4core19ArrayContainsFilter3RepENS_9allocatorIS5_EEJRKNS2_5model9FieldPathENS2_6nanopb13SharedMessageINS2_26_google_firestore_v1_ValueEEEELi0EEENS_10shared_ptrIT_EERKT0_DpOT1_, symObjAddr: 0x410, symBinAddr: 0x6FD8, symSize: 0x60 }
  - { offset: 0x511A2, size: 0x8, addend: 0x0, symName: __ZN8firebase9firestore4core19ArrayContainsFilterC2ERKNS0_5model9FieldPathENS0_6nanopb13SharedMessageINS0_26_google_firestore_v1_ValueEEE, symObjAddr: 0x0, symBinAddr: 0x6DA4, symSize: 0xD8 }
  - { offset: 0x514D2, size: 0x8, addend: 0x0, symName: __ZN8firebase9firestore4core19ArrayContainsFilterC1ERKNS0_5model9FieldPathENS0_6nanopb13SharedMessageINS0_26_google_firestore_v1_ValueEEE, symObjAddr: 0xD8, symBinAddr: 0x6E7C, symSize: 0x4 }
  - { offset: 0x5151A, size: 0x8, addend: 0x0, symName: __ZN8firebase9firestore4core19ArrayContainsFilterC1ERKNS0_5model9FieldPathENS0_6nanopb13SharedMessageINS0_26_google_firestore_v1_ValueEEE, symObjAddr: 0xD8, symBinAddr: 0x6E7C, symSize: 0x4 }
  - { offset: 0x51618, size: 0x8, addend: 0x0, symName: __ZNK8firebase9firestore4core19ArrayContainsFilter3Rep7MatchesERKNS0_5model8DocumentE, symObjAddr: 0xDC, symBinAddr: 0x6E80, symSize: 0x7C }
  - { offset: 0x51937, size: 0x8, addend: 0x0, symName: __ZN8firebase9firestore4core19ArrayContainsFilter3RepD1Ev, symObjAddr: 0x158, symBinAddr: 0x6EFC, symSize: 0x68 }
  - { offset: 0x51C40, size: 0x8, addend: 0x0, symName: __ZN8firebase9firestore4core19ArrayContainsFilter3RepD0Ev, symObjAddr: 0x1C0, symBinAddr: 0x6F64, symSize: 0x6C }
  - { offset: 0x51E3B, size: 0x8, addend: 0x0, symName: __ZNK8firebase9firestore4core19ArrayContainsFilter3Rep4typeEv, symObjAddr: 0x22C, symBinAddr: 0x6FD0, symSize: 0x8 }
  - { offset: 0x52367, size: 0x8, addend: 0x0, symName: __ZNSt3__120__shared_ptr_emplaceIKN8firebase9firestore4core19ArrayContainsFilter3RepENS_9allocatorIS5_EEEC2B8ne200100IJRKNS2_5model9FieldPathENS2_6nanopb13SharedMessageINS2_26_google_firestore_v1_ValueEEEES8_Li0EEES8_DpOT_, symObjAddr: 0x498, symBinAddr: 0x7038, symSize: 0x64 }
  - { offset: 0x5253A, size: 0x8, addend: 0x0, symName: __ZNSt3__19allocatorIN8firebase9firestore4core19ArrayContainsFilter3RepEE9constructB8ne200100IS5_JRKNS2_5model9FieldPathENS2_6nanopb13SharedMessageINS2_26_google_firestore_v1_ValueEEEEEEvPT_DpOT0_, symObjAddr: 0x544, symBinAddr: 0x70E4, symSize: 0xE0 }
  - { offset: 0x52ABD, size: 0x8, addend: 0x0, symName: __ZNSt3__120__shared_ptr_emplaceIKN8firebase9firestore4core19ArrayContainsFilter3RepENS_9allocatorIS5_EEED1Ev, symObjAddr: 0x4FC, symBinAddr: 0x709C, symSize: 0x14 }
  - { offset: 0x52ADF, size: 0x8, addend: 0x0, symName: __ZNSt3__120__shared_ptr_emplaceIKN8firebase9firestore4core19ArrayContainsFilter3RepENS_9allocatorIS5_EEED1Ev, symObjAddr: 0x4FC, symBinAddr: 0x709C, symSize: 0x14 }
  - { offset: 0x52B14, size: 0x8, addend: 0x0, symName: __ZNSt3__120__shared_ptr_emplaceIKN8firebase9firestore4core19ArrayContainsFilter3RepENS_9allocatorIS5_EEED0Ev, symObjAddr: 0x510, symBinAddr: 0x70B0, symSize: 0x24 }
  - { offset: 0x52BFD, size: 0x8, addend: 0x0, symName: __ZNSt3__120__shared_ptr_emplaceIKN8firebase9firestore4core19ArrayContainsFilter3RepENS_9allocatorIS5_EEE16__on_zero_sharedEv, symObjAddr: 0x534, symBinAddr: 0x70D4, symSize: 0xC }
  - { offset: 0x52C25, size: 0x8, addend: 0x0, symName: __ZNSt3__120__shared_ptr_emplaceIKN8firebase9firestore4core19ArrayContainsFilter3RepENS_9allocatorIS5_EEE16__on_zero_sharedEv, symObjAddr: 0x534, symBinAddr: 0x70D4, symSize: 0xC }
  - { offset: 0x52C42, size: 0x8, addend: 0x0, symName: __ZNSt3__120__shared_ptr_emplaceIKN8firebase9firestore4core19ArrayContainsFilter3RepENS_9allocatorIS5_EEE16__on_zero_sharedEv, symObjAddr: 0x534, symBinAddr: 0x70D4, symSize: 0xC }
  - { offset: 0x52C5F, size: 0x8, addend: 0x0, symName: __ZNSt3__120__shared_ptr_emplaceIKN8firebase9firestore4core19ArrayContainsFilter3RepENS_9allocatorIS5_EEE16__on_zero_sharedEv, symObjAddr: 0x534, symBinAddr: 0x70D4, symSize: 0xC }
  - { offset: 0x52C89, size: 0x8, addend: 0x0, symName: __ZNSt3__120__shared_ptr_emplaceIKN8firebase9firestore4core19ArrayContainsFilter3RepENS_9allocatorIS5_EEE21__on_zero_shared_weakEv, symObjAddr: 0x540, symBinAddr: 0x70E0, symSize: 0x4 }
  - { offset: 0x52CBA, size: 0x8, addend: 0x0, symName: __ZNSt3__120__shared_ptr_emplaceIKN8firebase9firestore4core19ArrayContainsFilter3RepENS_9allocatorIS5_EEE21__on_zero_shared_weakEv, symObjAddr: 0x540, symBinAddr: 0x70E0, symSize: 0x4 }
  - { offset: 0x52CDC, size: 0x8, addend: 0x0, symName: __ZNSt3__120__shared_ptr_emplaceIKN8firebase9firestore4core19ArrayContainsFilter3RepENS_9allocatorIS5_EEE21__on_zero_shared_weakEv, symObjAddr: 0x540, symBinAddr: 0x70E0, symSize: 0x4 }
  - { offset: 0x52CFF, size: 0x8, addend: 0x0, symName: __ZNSt3__120__shared_ptr_emplaceIKN8firebase9firestore4core19ArrayContainsFilter3RepENS_9allocatorIS5_EEE21__on_zero_shared_weakEv, symObjAddr: 0x540, symBinAddr: 0x70E0, symSize: 0x4 }
  - { offset: 0x52D34, size: 0x8, addend: 0x0, symName: __ZNSt3__120__shared_ptr_emplaceIKN8firebase9firestore4core19ArrayContainsFilter3RepENS_9allocatorIS5_EEE21__on_zero_shared_weakEv, symObjAddr: 0x540, symBinAddr: 0x70E0, symSize: 0x4 }
  - { offset: 0x5306B, size: 0x8, addend: 0x0, symName: __ZN8firebase9firestore4core19ArrayContainsFilter3RepC2ENS0_5model9FieldPathENS0_6nanopb13SharedMessageINS0_26_google_firestore_v1_ValueEEE, symObjAddr: 0x984, symBinAddr: 0x71C4, symSize: 0xD0 }
  - { offset: 0x5B0B5, size: 0x8, addend: 0x0, symName: __ZNSt3__119__allocate_at_leastB8ne200100INS_9allocatorIN8firebase9firestore4util7TimerIdEEEEENS_19__allocation_resultINS_16allocator_traitsIT_E7pointerEEERS9_m, symObjAddr: 0x16C4, symBinAddr: 0x879C, symSize: 0x34 }
  - { offset: 0x5B15B, size: 0x8, addend: 0x0, symName: __ZN4absl12lts_202401168AlphaNumC2Ei.cold.1, symObjAddr: 0x16F8, symBinAddr: 0x157CE0, symSize: 0x28 }
  - { offset: 0x5D17A, size: 0x8, addend: 0x0, symName: __ZN8firebase9firestore4util12StringFormatIJNSt3__112basic_stringIcNS3_11char_traitsIcEENS3_9allocatorIcEEEES9_EEES9_PKcDpRKT_, symObjAddr: 0x30C, symBinAddr: 0x7590, symSize: 0x88 }
  - { offset: 0x5D542, size: 0x8, addend: 0x0, symName: __ZN8firebase9firestore4util12StringFormatIJNS1_7TimerIdEEEENSt3__112basic_stringIcNS4_11char_traitsIcEENS4_9allocatorIcEEEEPKcDpRKT_, symObjAddr: 0x157C, symBinAddr: 0x86DC, symSize: 0x7C }
  - { offset: 0x5DB72, size: 0x8, addend: 0x0, symName: __ZNSt3__110shared_ptrIN8firebase9firestore4util10AsyncQueueEE18__enable_weak_thisB8ne200100IS4_S4_Li0EEEvPKNS_23enable_shared_from_thisIT_EEPT0_, symObjAddr: 0xFBC, symBinAddr: 0x8240, symSize: 0xB0 }
  - { offset: 0x5E16D, size: 0x8, addend: 0x0, symName: __ZN8firebase9firestore4util10AsyncQueue4WrapERKNSt3__18functionIFvvEEE, symObjAddr: 0x8C8, symBinAddr: 0x7B4C, symSize: 0x144 }
  - { offset: 0x5E79B, size: 0x8, addend: 0x0, symName: __ZN8firebase9firestore4util10AsyncQueue27RunScheduledOperationsUntilENS1_7TimerIdE, symObjAddr: 0xCBC, symBinAddr: 0x7F40, symSize: 0x158 }
  - { offset: 0x5EE96, size: 0x8, addend: 0x0, symName: __ZN8firebase9firestore4util10AsyncQueue6CreateENSt3__110unique_ptrINS1_8ExecutorENS3_14default_deleteIS5_EEEE, symObjAddr: 0x0, symBinAddr: 0x7294, symSize: 0x6C }
  - { offset: 0x5F0DB, size: 0x8, addend: 0x0, symName: __ZNSt3__110shared_ptrIN8firebase9firestore4util10AsyncQueueEEC2B8ne200100IS4_Li0EEEPT_, symObjAddr: 0xF48, symBinAddr: 0x81CC, symSize: 0x74 }
  - { offset: 0x5F26B, size: 0x8, addend: 0x0, symName: __ZN8firebase9firestore4util10AsyncQueueC1ENSt3__110unique_ptrINS1_8ExecutorENS3_14default_deleteIS5_EEEE, symObjAddr: 0x6C, symBinAddr: 0x7300, symSize: 0x40 }
  - { offset: 0x5F295, size: 0x8, addend: 0x0, symName: __ZN8firebase9firestore4util10AsyncQueueC1ENSt3__110unique_ptrINS1_8ExecutorENS3_14default_deleteIS5_EEEE, symObjAddr: 0x6C, symBinAddr: 0x7300, symSize: 0x40 }
  - { offset: 0x5F2B8, size: 0x8, addend: 0x0, symName: __ZN8firebase9firestore4util10AsyncQueueC1ENSt3__110unique_ptrINS1_8ExecutorENS3_14default_deleteIS5_EEEE, symObjAddr: 0x6C, symBinAddr: 0x7300, symSize: 0x40 }
  - { offset: 0x5F2D3, size: 0x8, addend: 0x0, symName: __ZN8firebase9firestore4util10AsyncQueueC1ENSt3__110unique_ptrINS1_8ExecutorENS3_14default_deleteIS5_EEEE, symObjAddr: 0x6C, symBinAddr: 0x7300, symSize: 0x40 }
  - { offset: 0x5F2EF, size: 0x8, addend: 0x0, symName: __ZN8firebase9firestore4util10AsyncQueueC1ENSt3__110unique_ptrINS1_8ExecutorENS3_14default_deleteIS5_EEEE, symObjAddr: 0x6C, symBinAddr: 0x7300, symSize: 0x40 }
  - { offset: 0x5F433, size: 0x8, addend: 0x0, symName: __ZN8firebase9firestore4util10AsyncQueueC2ENSt3__110unique_ptrINS1_8ExecutorENS3_14default_deleteIS5_EEEE, symObjAddr: 0xAC, symBinAddr: 0x7340, symSize: 0x40 }
  - { offset: 0x5F45D, size: 0x8, addend: 0x0, symName: __ZN8firebase9firestore4util10AsyncQueueC2ENSt3__110unique_ptrINS1_8ExecutorENS3_14default_deleteIS5_EEEE, symObjAddr: 0xAC, symBinAddr: 0x7340, symSize: 0x40 }
  - { offset: 0x5F478, size: 0x8, addend: 0x0, symName: __ZN8firebase9firestore4util10AsyncQueueC2ENSt3__110unique_ptrINS1_8ExecutorENS3_14default_deleteIS5_EEEE, symObjAddr: 0xAC, symBinAddr: 0x7340, symSize: 0x40 }
  - { offset: 0x5F494, size: 0x8, addend: 0x0, symName: __ZN8firebase9firestore4util10AsyncQueueC2ENSt3__110unique_ptrINS1_8ExecutorENS3_14default_deleteIS5_EEEE, symObjAddr: 0xAC, symBinAddr: 0x7340, symSize: 0x40 }
  - { offset: 0x5F874, size: 0x8, addend: 0x0, symName: __ZN8firebase9firestore4util10AsyncQueueD2Ev, symObjAddr: 0xEC, symBinAddr: 0x7380, symSize: 0x88 }
  - { offset: 0x5FB4D, size: 0x8, addend: 0x0, symName: __ZN8firebase9firestore4util10AsyncQueue7DisposeEv, symObjAddr: 0x174, symBinAddr: 0x7408, symSize: 0x40 }
  - { offset: 0x5FBFF, size: 0x8, addend: 0x0, symName: __ZN8firebase9firestore4util10AsyncQueueD1Ev, symObjAddr: 0x1C4, symBinAddr: 0x7448, symSize: 0x4 }
  - { offset: 0x5FC22, size: 0x8, addend: 0x0, symName: __ZN8firebase9firestore4util10AsyncQueueD1Ev, symObjAddr: 0x1C4, symBinAddr: 0x7448, symSize: 0x4 }
  - { offset: 0x5FC34, size: 0x8, addend: 0x0, symName: __ZN8firebase9firestore4util10AsyncQueue19EnterRestrictedModeEv, symObjAddr: 0x1C8, symBinAddr: 0x744C, symSize: 0x3C }
  - { offset: 0x5FD7B, size: 0x8, addend: 0x0, symName: __ZNK8firebase9firestore4util10AsyncQueue23VerifyIsCurrentExecutorEv, symObjAddr: 0x204, symBinAddr: 0x7488, symSize: 0x108 }
  - { offset: 0x604B6, size: 0x8, addend: 0x0, symName: __ZNK8firebase9firestore4util10AsyncQueue20VerifyIsCurrentQueueEv, symObjAddr: 0x394, symBinAddr: 0x7618, symSize: 0x104 }
  - { offset: 0x60ACB, size: 0x8, addend: 0x0, symName: __ZN8firebase9firestore4util10AsyncQueue15ExecuteBlockingERKNSt3__18functionIFvvEEE, symObjAddr: 0x498, symBinAddr: 0x771C, symSize: 0xBC }
  - { offset: 0x60E36, size: 0x8, addend: 0x0, symName: __ZN8firebase9firestore4util10AsyncQueue7EnqueueERKNSt3__18functionIFvvEEE, symObjAddr: 0x554, symBinAddr: 0x77D8, symSize: 0x2C }
  - { offset: 0x60E8E, size: 0x8, addend: 0x0, symName: __ZNK8firebase9firestore4util10AsyncQueue21VerifySequentialOrderEv, symObjAddr: 0x580, symBinAddr: 0x7804, symSize: 0x114 }
  - { offset: 0x61484, size: 0x8, addend: 0x0, symName: __ZN8firebase9firestore4util10AsyncQueue14EnqueueRelaxedERKNSt3__18functionIFvvEEE, symObjAddr: 0x694, symBinAddr: 0x7918, symSize: 0x118 }
  - { offset: 0x61717, size: 0x8, addend: 0x0, symName: __ZN8firebase9firestore4util10AsyncQueue26EnqueueEvenWhileRestrictedERKNSt3__18functionIFvvEEE, symObjAddr: 0x7AC, symBinAddr: 0x7A30, symSize: 0x11C }
  - { offset: 0x61DE9, size: 0x8, addend: 0x0, symName: __ZNK8firebase9firestore4util10AsyncQueue10is_runningEv, symObjAddr: 0xA0C, symBinAddr: 0x7C90, symSize: 0x3C }
  - { offset: 0x61E8B, size: 0x8, addend: 0x0, symName: __ZN8firebase9firestore4util10AsyncQueue17EnqueueAfterDelayENSt3__16chrono8durationIxNS3_5ratioILl1ELl1000EEEEENS1_7TimerIdERKNS3_8functionIFvvEEE, symObjAddr: 0xA48, symBinAddr: 0x7CCC, symSize: 0x174 }
  - { offset: 0x621D0, size: 0x8, addend: 0x0, symName: __ZN8firebase9firestore4util10AsyncQueue15EnqueueBlockingERKNSt3__18functionIFvvEEE, symObjAddr: 0xBBC, symBinAddr: 0x7E40, symSize: 0xF0 }
  - { offset: 0x62381, size: 0x8, addend: 0x0, symName: __ZNK8firebase9firestore4util10AsyncQueue11IsScheduledENS1_7TimerIdE, symObjAddr: 0xCAC, symBinAddr: 0x7F30, symSize: 0x10 }
  - { offset: 0x623AC, size: 0x8, addend: 0x0, symName: __ZNK8firebase9firestore4util10AsyncQueue11IsScheduledENS1_7TimerIdE, symObjAddr: 0xCAC, symBinAddr: 0x7F30, symSize: 0x10 }
  - { offset: 0x62639, size: 0x8, addend: 0x0, symName: __ZN8firebase9firestore4util10AsyncQueue20SkipDelaysForTimerIdENS1_7TimerIdE, symObjAddr: 0xE14, symBinAddr: 0x8098, symSize: 0x58 }
  - { offset: 0x62710, size: 0x8, addend: 0x0, symName: __ZNSt3__16vectorIN8firebase9firestore4util7TimerIdENS_9allocatorIS4_EEE9push_backB8ne200100ERKS4_, symObjAddr: 0xE6C, symBinAddr: 0x80F0, symSize: 0xDC }
  - { offset: 0x62A8C, size: 0x8, addend: 0x0, symName: __ZNSt3__110shared_ptrIN8firebase9firestore4util10AsyncQueueEEC2B8ne200100IS4_Li0EEEPT_, symObjAddr: 0xF48, symBinAddr: 0x81CC, symSize: 0x74 }
  - { offset: 0x63134, size: 0x8, addend: 0x0, symName: __ZNSt3__120__shared_ptr_pointerIPN8firebase9firestore4util10AsyncQueueENS_10shared_ptrIS4_E27__shared_ptr_default_deleteIS4_S4_EENS_9allocatorIS4_EEED1Ev, symObjAddr: 0x106C, symBinAddr: 0x82F0, symSize: 0x4 }
  - { offset: 0x63156, size: 0x8, addend: 0x0, symName: __ZNSt3__120__shared_ptr_pointerIPN8firebase9firestore4util10AsyncQueueENS_10shared_ptrIS4_E27__shared_ptr_default_deleteIS4_S4_EENS_9allocatorIS4_EEED1Ev, symObjAddr: 0x106C, symBinAddr: 0x82F0, symSize: 0x4 }
  - { offset: 0x6318B, size: 0x8, addend: 0x0, symName: __ZNSt3__120__shared_ptr_pointerIPN8firebase9firestore4util10AsyncQueueENS_10shared_ptrIS4_E27__shared_ptr_default_deleteIS4_S4_EENS_9allocatorIS4_EEED0Ev, symObjAddr: 0x1070, symBinAddr: 0x82F4, symSize: 0x14 }
  - { offset: 0x631EC, size: 0x8, addend: 0x0, symName: __ZNSt3__120__shared_ptr_pointerIPN8firebase9firestore4util10AsyncQueueENS_10shared_ptrIS4_E27__shared_ptr_default_deleteIS4_S4_EENS_9allocatorIS4_EEE16__on_zero_sharedEv, symObjAddr: 0x1084, symBinAddr: 0x8308, symSize: 0x20 }
  - { offset: 0x63256, size: 0x8, addend: 0x0, symName: __ZNKSt3__120__shared_ptr_pointerIPN8firebase9firestore4util10AsyncQueueENS_10shared_ptrIS4_E27__shared_ptr_default_deleteIS4_S4_EENS_9allocatorIS4_EEE13__get_deleterERKSt9type_info, symObjAddr: 0x10A4, symBinAddr: 0x8328, symSize: 0x38 }
  - { offset: 0x6335A, size: 0x8, addend: 0x0, symName: __ZNSt3__120__shared_ptr_pointerIPN8firebase9firestore4util10AsyncQueueENS_10shared_ptrIS4_E27__shared_ptr_default_deleteIS4_S4_EENS_9allocatorIS4_EEE21__on_zero_shared_weakEv, symObjAddr: 0x10DC, symBinAddr: 0x8360, symSize: 0x4 }
  - { offset: 0x6338B, size: 0x8, addend: 0x0, symName: __ZNSt3__120__shared_ptr_pointerIPN8firebase9firestore4util10AsyncQueueENS_10shared_ptrIS4_E27__shared_ptr_default_deleteIS4_S4_EENS_9allocatorIS4_EEE21__on_zero_shared_weakEv, symObjAddr: 0x10DC, symBinAddr: 0x8360, symSize: 0x4 }
  - { offset: 0x633AD, size: 0x8, addend: 0x0, symName: __ZNSt3__120__shared_ptr_pointerIPN8firebase9firestore4util10AsyncQueueENS_10shared_ptrIS4_E27__shared_ptr_default_deleteIS4_S4_EENS_9allocatorIS4_EEE21__on_zero_shared_weakEv, symObjAddr: 0x10DC, symBinAddr: 0x8360, symSize: 0x4 }
  - { offset: 0x633E2, size: 0x8, addend: 0x0, symName: __ZNSt3__120__shared_ptr_pointerIPN8firebase9firestore4util10AsyncQueueENS_10shared_ptrIS4_E27__shared_ptr_default_deleteIS4_S4_EENS_9allocatorIS4_EEE21__on_zero_shared_weakEv, symObjAddr: 0x10DC, symBinAddr: 0x8360, symSize: 0x4 }
  - { offset: 0x634D7, size: 0x8, addend: 0x0, symName: '__ZNSt3__110__function6__funcIZN8firebase9firestore4util10AsyncQueue4WrapERKNS_8functionIFvvEEEE3$_0NS_9allocatorISB_EES7_ED1Ev', symObjAddr: 0x1204, symBinAddr: 0x8364, symSize: 0x58 }
  - { offset: 0x63632, size: 0x8, addend: 0x0, symName: '__ZNSt3__110__function6__funcIZN8firebase9firestore4util10AsyncQueue4WrapERKNS_8functionIFvvEEEE3$_0NS_9allocatorISB_EES7_ED0Ev', symObjAddr: 0x125C, symBinAddr: 0x83BC, symSize: 0x58 }
  - { offset: 0x63923, size: 0x8, addend: 0x0, symName: '__ZNKSt3__110__function6__funcIZN8firebase9firestore4util10AsyncQueue4WrapERKNS_8functionIFvvEEEE3$_0NS_9allocatorISB_EES7_E7__cloneEv', symObjAddr: 0x12B4, symBinAddr: 0x8414, symSize: 0x58 }
  - { offset: 0x63C98, size: 0x8, addend: 0x0, symName: '__ZNKSt3__110__function6__funcIZN8firebase9firestore4util10AsyncQueue4WrapERKNS_8functionIFvvEEEE3$_0NS_9allocatorISB_EES7_E7__cloneEPNS0_6__baseIS7_EE', symObjAddr: 0x130C, symBinAddr: 0x846C, symSize: 0x20 }
  - { offset: 0x63E21, size: 0x8, addend: 0x0, symName: '__ZNSt3__110__function6__funcIZN8firebase9firestore4util10AsyncQueue4WrapERKNS_8functionIFvvEEEE3$_0NS_9allocatorISB_EES7_E7destroyEv', symObjAddr: 0x132C, symBinAddr: 0x848C, symSize: 0x30 }
  - { offset: 0x63E49, size: 0x8, addend: 0x0, symName: '__ZNSt3__110__function6__funcIZN8firebase9firestore4util10AsyncQueue4WrapERKNS_8functionIFvvEEEE3$_0NS_9allocatorISB_EES7_E7destroyEv', symObjAddr: 0x132C, symBinAddr: 0x848C, symSize: 0x30 }
  - { offset: 0x63E67, size: 0x8, addend: 0x0, symName: '__ZNSt3__110__function6__funcIZN8firebase9firestore4util10AsyncQueue4WrapERKNS_8functionIFvvEEEE3$_0NS_9allocatorISB_EES7_E7destroyEv', symObjAddr: 0x132C, symBinAddr: 0x848C, symSize: 0x30 }
  - { offset: 0x63E84, size: 0x8, addend: 0x0, symName: '__ZNSt3__110__function6__funcIZN8firebase9firestore4util10AsyncQueue4WrapERKNS_8functionIFvvEEEE3$_0NS_9allocatorISB_EES7_E7destroyEv', symObjAddr: 0x132C, symBinAddr: 0x848C, symSize: 0x30 }
  - { offset: 0x63F28, size: 0x8, addend: 0x0, symName: '__ZNSt3__110__function6__funcIZN8firebase9firestore4util10AsyncQueue4WrapERKNS_8functionIFvvEEEE3$_0NS_9allocatorISB_EES7_E18destroy_deallocateEv', symObjAddr: 0x135C, symBinAddr: 0x84BC, symSize: 0x4C }
  - { offset: 0x64112, size: 0x8, addend: 0x0, symName: '__ZNSt3__110__function6__funcIZN8firebase9firestore4util10AsyncQueue4WrapERKNS_8functionIFvvEEEE3$_0NS_9allocatorISB_EES7_EclEv', symObjAddr: 0x13A8, symBinAddr: 0x8508, symSize: 0x10 }
  - { offset: 0x641DC, size: 0x8, addend: 0x0, symName: '__ZNKSt3__110__function6__funcIZN8firebase9firestore4util10AsyncQueue4WrapERKNS_8functionIFvvEEEE3$_0NS_9allocatorISB_EES7_E6targetERKSt9type_info', symObjAddr: 0x13B8, symBinAddr: 0x8518, symSize: 0x3C }
  - { offset: 0x64226, size: 0x8, addend: 0x0, symName: '__ZNKSt3__110__function6__funcIZN8firebase9firestore4util10AsyncQueue4WrapERKNS_8functionIFvvEEEE3$_0NS_9allocatorISB_EES7_E11target_typeEv', symObjAddr: 0x13F4, symBinAddr: 0x8554, symSize: 0xC }
  - { offset: 0x64248, size: 0x8, addend: 0x0, symName: '__ZNSt3__110__function6__funcIZN8firebase9firestore4util10AsyncQueue27RunScheduledOperationsUntilENS4_7TimerIdEE3$_0NS_9allocatorIS7_EEFvvEED1Ev', symObjAddr: 0x1400, symBinAddr: 0x8560, symSize: 0x4 }
  - { offset: 0x64273, size: 0x8, addend: 0x0, symName: '__ZNSt3__110__function6__funcIZN8firebase9firestore4util10AsyncQueue27RunScheduledOperationsUntilENS4_7TimerIdEE3$_0NS_9allocatorIS7_EEFvvEED0Ev', symObjAddr: 0x1404, symBinAddr: 0x8564, symSize: 0x4 }
  - { offset: 0x64381, size: 0x8, addend: 0x0, symName: '__ZNKSt3__110__function6__funcIZN8firebase9firestore4util10AsyncQueue27RunScheduledOperationsUntilENS4_7TimerIdEE3$_0NS_9allocatorIS7_EEFvvEE7__cloneEv', symObjAddr: 0x1408, symBinAddr: 0x8568, symSize: 0x3C }
  - { offset: 0x645C8, size: 0x8, addend: 0x0, symName: '__ZNKSt3__110__function6__funcIZN8firebase9firestore4util10AsyncQueue27RunScheduledOperationsUntilENS4_7TimerIdEE3$_0NS_9allocatorIS7_EEFvvEE7__cloneEPNS0_6__baseISA_EE', symObjAddr: 0x1444, symBinAddr: 0x85A4, symSize: 0x1C }
  - { offset: 0x645FD, size: 0x8, addend: 0x0, symName: '__ZNKSt3__110__function6__funcIZN8firebase9firestore4util10AsyncQueue27RunScheduledOperationsUntilENS4_7TimerIdEE3$_0NS_9allocatorIS7_EEFvvEE7__cloneEPNS0_6__baseISA_EE', symObjAddr: 0x1444, symBinAddr: 0x85A4, symSize: 0x1C }
  - { offset: 0x6462B, size: 0x8, addend: 0x0, symName: '__ZNKSt3__110__function6__funcIZN8firebase9firestore4util10AsyncQueue27RunScheduledOperationsUntilENS4_7TimerIdEE3$_0NS_9allocatorIS7_EEFvvEE7__cloneEPNS0_6__baseISA_EE', symObjAddr: 0x1444, symBinAddr: 0x85A4, symSize: 0x1C }
  - { offset: 0x646F5, size: 0x8, addend: 0x0, symName: '__ZNSt3__110__function6__funcIZN8firebase9firestore4util10AsyncQueue27RunScheduledOperationsUntilENS4_7TimerIdEE3$_0NS_9allocatorIS7_EEFvvEE7destroyEv', symObjAddr: 0x1460, symBinAddr: 0x85C0, symSize: 0x4 }
  - { offset: 0x64745, size: 0x8, addend: 0x0, symName: '__ZNSt3__110__function6__funcIZN8firebase9firestore4util10AsyncQueue27RunScheduledOperationsUntilENS4_7TimerIdEE3$_0NS_9allocatorIS7_EEFvvEE18destroy_deallocateEv', symObjAddr: 0x1464, symBinAddr: 0x85C4, symSize: 0x4 }
  - { offset: 0x64777, size: 0x8, addend: 0x0, symName: '__ZNSt3__110__function6__funcIZN8firebase9firestore4util10AsyncQueue27RunScheduledOperationsUntilENS4_7TimerIdEE3$_0NS_9allocatorIS7_EEFvvEE18destroy_deallocateEv', symObjAddr: 0x1464, symBinAddr: 0x85C4, symSize: 0x4 }
  - { offset: 0x6479A, size: 0x8, addend: 0x0, symName: '__ZNSt3__110__function6__funcIZN8firebase9firestore4util10AsyncQueue27RunScheduledOperationsUntilENS4_7TimerIdEE3$_0NS_9allocatorIS7_EEFvvEE18destroy_deallocateEv', symObjAddr: 0x1464, symBinAddr: 0x85C4, symSize: 0x4 }
  - { offset: 0x647CE, size: 0x8, addend: 0x0, symName: '__ZNSt3__110__function6__funcIZN8firebase9firestore4util10AsyncQueue27RunScheduledOperationsUntilENS4_7TimerIdEE3$_0NS_9allocatorIS7_EEFvvEE18destroy_deallocateEv', symObjAddr: 0x1464, symBinAddr: 0x85C4, symSize: 0x4 }
  - { offset: 0x648A9, size: 0x8, addend: 0x0, symName: '__ZNSt3__110__function6__funcIZN8firebase9firestore4util10AsyncQueue27RunScheduledOperationsUntilENS4_7TimerIdEE3$_0NS_9allocatorIS7_EEFvvEEclEv', symObjAddr: 0x1468, symBinAddr: 0x85C8, symSize: 0xCC }
  - { offset: 0x64B32, size: 0x8, addend: 0x0, symName: '__ZNKSt3__110__function6__funcIZN8firebase9firestore4util10AsyncQueue27RunScheduledOperationsUntilENS4_7TimerIdEE3$_0NS_9allocatorIS7_EEFvvEE6targetERKSt9type_info', symObjAddr: 0x1534, symBinAddr: 0x8694, symSize: 0x3C }
  - { offset: 0x64B7C, size: 0x8, addend: 0x0, symName: '__ZNKSt3__110__function6__funcIZN8firebase9firestore4util10AsyncQueue27RunScheduledOperationsUntilENS4_7TimerIdEE3$_0NS_9allocatorIS7_EEFvvEE11target_typeEv', symObjAddr: 0x1570, symBinAddr: 0x86D0, symSize: 0xC }
  - { offset: 0x64C80, size: 0x8, addend: 0x0, symName: __ZN4absl12lts_202401168AlphaNumC2Ei, symObjAddr: 0x15F8, symBinAddr: 0x8758, symSize: 0x44 }
  - { offset: 0x64DF5, size: 0x8, addend: 0x0, symName: __ZN4absl12lts_202401168AlphaNumC2Ei.cold.1, symObjAddr: 0x16F8, symBinAddr: 0x157CE0, symSize: 0x28 }
  - { offset: 0x66CAC, size: 0x8, addend: 0x0, symName: __ZN8firebase9firestore11credentials9AuthTokenC2Ev, symObjAddr: 0x0, symBinAddr: 0x87D0, symSize: 0x7C }
  - { offset: 0x6938A, size: 0x8, addend: 0x0, symName: __ZN8firebase9firestore11credentials9AuthToken15UnauthenticatedEv, symObjAddr: 0x180, symBinAddr: 0x8950, symSize: 0x74 }
  - { offset: 0x693AC, size: 0x8, addend: 0x0, symName: __ZZN8firebase9firestore11credentials9AuthToken15UnauthenticatedEvE21kUnauthenticatedToken, symObjAddr: 0x13640, symBinAddr: 0x219120, symSize: 0x0 }
  - { offset: 0x69609, size: 0x8, addend: 0x0, symName: __ZN8firebase9firestore11credentials9AuthTokenC2Ev, symObjAddr: 0x0, symBinAddr: 0x87D0, symSize: 0x7C }
  - { offset: 0x69927, size: 0x8, addend: 0x0, symName: __ZN8firebase9firestore11credentials9AuthTokenC1Ev, symObjAddr: 0x7C, symBinAddr: 0x884C, symSize: 0x4 }
  - { offset: 0x6994A, size: 0x8, addend: 0x0, symName: __ZN8firebase9firestore11credentials9AuthTokenC1Ev, symObjAddr: 0x7C, symBinAddr: 0x884C, symSize: 0x4 }
  - { offset: 0x699A7, size: 0x8, addend: 0x0, symName: __ZN8firebase9firestore11credentials9AuthTokenC2ENSt3__112basic_stringIcNS3_11char_traitsIcEENS3_9allocatorIcEEEENS1_4UserE, symObjAddr: 0x80, symBinAddr: 0x8850, symSize: 0x88 }
  - { offset: 0x69BC4, size: 0x8, addend: 0x0, symName: __ZN8firebase9firestore11credentials9AuthTokenC1ENSt3__112basic_stringIcNS3_11char_traitsIcEENS3_9allocatorIcEEEENS1_4UserE, symObjAddr: 0x108, symBinAddr: 0x88D8, symSize: 0x4 }
  - { offset: 0x69C0D, size: 0x8, addend: 0x0, symName: __ZN8firebase9firestore11credentials9AuthTokenC1ENSt3__112basic_stringIcNS3_11char_traitsIcEENS3_9allocatorIcEEEENS1_4UserE, symObjAddr: 0x108, symBinAddr: 0x88D8, symSize: 0x4 }
  - { offset: 0x69C46, size: 0x8, addend: 0x0, symName: __ZNK8firebase9firestore11credentials9AuthToken5tokenEv, symObjAddr: 0x10C, symBinAddr: 0x88DC, symSize: 0x74 }
  - { offset: 0x6BD9E, size: 0x8, addend: 0x0, symName: __ZN8firebase9firestore4util12CreateAutoIdEv, symObjAddr: 0x0, symBinAddr: 0x89C4, symSize: 0xA8 }
  - { offset: 0x6BE4E, size: 0x8, addend: 0x0, symName: __ZN8firebase9firestore4util12CreateAutoIdEv, symObjAddr: 0x0, symBinAddr: 0x89C4, symSize: 0xA8 }
  - { offset: 0x6E642, size: 0x8, addend: 0x0, symName: __ZNSt3__124uniform_int_distributionIiEclIN8firebase9firestore4util12SecureRandomEEEiRT_RKNS1_10param_typeE, symObjAddr: 0xA8, symBinAddr: 0x8A6C, symSize: 0xA8 }
  - { offset: 0x725A5, size: 0x8, addend: 0x0, symName: __ZN8firebase9firestore4util15BackgroundQueue7ExecuteEONSt3__18functionIFvvEEE, symObjAddr: 0x80, symBinAddr: 0x8B94, symSize: 0x194 }
  - { offset: 0x72CE3, size: 0x8, addend: 0x0, symName: __ZN8firebase9firestore4util15BackgroundQueueC2EPNS1_8ExecutorE, symObjAddr: 0x0, symBinAddr: 0x8B14, symSize: 0x40 }
  - { offset: 0x72DAA, size: 0x8, addend: 0x0, symName: __ZN8firebase9firestore4util15BackgroundQueueC1EPNS1_8ExecutorE, symObjAddr: 0x40, symBinAddr: 0x8B54, symSize: 0x40 }
  - { offset: 0x72DE3, size: 0x8, addend: 0x0, symName: __ZN8firebase9firestore4util15BackgroundQueueC1EPNS1_8ExecutorE, symObjAddr: 0x40, symBinAddr: 0x8B54, symSize: 0x40 }
  - { offset: 0x7339F, size: 0x8, addend: 0x0, symName: __ZNSt3__110__function12__value_funcIFvvEEC2B8ne200100EOS3_, symObjAddr: 0x524, symBinAddr: 0x8FD4, symSize: 0x64 }
  - { offset: 0x73438, size: 0x8, addend: 0x0, symName: __ZN8firebase9firestore4util15BackgroundQueue8AwaitAllEv, symObjAddr: 0x214, symBinAddr: 0x8D28, symSize: 0x64 }
  - { offset: 0x7361E, size: 0x8, addend: 0x0, symName: '__ZNSt3__110__function6__funcIZN8firebase9firestore4util15BackgroundQueue7ExecuteEONS_8functionIFvvEEEE3$_0NS_9allocatorISA_EES7_ED1Ev', symObjAddr: 0x2DC, symBinAddr: 0x8D8C, symSize: 0x58 }
  - { offset: 0x73779, size: 0x8, addend: 0x0, symName: '__ZNSt3__110__function6__funcIZN8firebase9firestore4util15BackgroundQueue7ExecuteEONS_8functionIFvvEEEE3$_0NS_9allocatorISA_EES7_ED0Ev', symObjAddr: 0x334, symBinAddr: 0x8DE4, symSize: 0x58 }
  - { offset: 0x73AE8, size: 0x8, addend: 0x0, symName: '__ZNKSt3__110__function6__funcIZN8firebase9firestore4util15BackgroundQueue7ExecuteEONS_8functionIFvvEEEE3$_0NS_9allocatorISA_EES7_E7__cloneEv', symObjAddr: 0x38C, symBinAddr: 0x8E3C, symSize: 0x58 }
  - { offset: 0x73E5D, size: 0x8, addend: 0x0, symName: '__ZNKSt3__110__function6__funcIZN8firebase9firestore4util15BackgroundQueue7ExecuteEONS_8functionIFvvEEEE3$_0NS_9allocatorISA_EES7_E7__cloneEPNS0_6__baseIS7_EE', symObjAddr: 0x3E4, symBinAddr: 0x8E94, symSize: 0x20 }
  - { offset: 0x73FE6, size: 0x8, addend: 0x0, symName: '__ZNSt3__110__function6__funcIZN8firebase9firestore4util15BackgroundQueue7ExecuteEONS_8functionIFvvEEEE3$_0NS_9allocatorISA_EES7_E7destroyEv', symObjAddr: 0x404, symBinAddr: 0x8EB4, symSize: 0x30 }
  - { offset: 0x7400E, size: 0x8, addend: 0x0, symName: '__ZNSt3__110__function6__funcIZN8firebase9firestore4util15BackgroundQueue7ExecuteEONS_8functionIFvvEEEE3$_0NS_9allocatorISA_EES7_E7destroyEv', symObjAddr: 0x404, symBinAddr: 0x8EB4, symSize: 0x30 }
  - { offset: 0x7402C, size: 0x8, addend: 0x0, symName: '__ZNSt3__110__function6__funcIZN8firebase9firestore4util15BackgroundQueue7ExecuteEONS_8functionIFvvEEEE3$_0NS_9allocatorISA_EES7_E7destroyEv', symObjAddr: 0x404, symBinAddr: 0x8EB4, symSize: 0x30 }
  - { offset: 0x74049, size: 0x8, addend: 0x0, symName: '__ZNSt3__110__function6__funcIZN8firebase9firestore4util15BackgroundQueue7ExecuteEONS_8functionIFvvEEEE3$_0NS_9allocatorISA_EES7_E7destroyEv', symObjAddr: 0x404, symBinAddr: 0x8EB4, symSize: 0x30 }
  - { offset: 0x740ED, size: 0x8, addend: 0x0, symName: '__ZNSt3__110__function6__funcIZN8firebase9firestore4util15BackgroundQueue7ExecuteEONS_8functionIFvvEEEE3$_0NS_9allocatorISA_EES7_E18destroy_deallocateEv', symObjAddr: 0x434, symBinAddr: 0x8EE4, symSize: 0x4C }
  - { offset: 0x74317, size: 0x8, addend: 0x0, symName: '__ZNSt3__110__function6__funcIZN8firebase9firestore4util15BackgroundQueue7ExecuteEONS_8functionIFvvEEEE3$_0NS_9allocatorISA_EES7_EclEv', symObjAddr: 0x480, symBinAddr: 0x8F30, symSize: 0x5C }
  - { offset: 0x74463, size: 0x8, addend: 0x0, symName: '__ZNKSt3__110__function6__funcIZN8firebase9firestore4util15BackgroundQueue7ExecuteEONS_8functionIFvvEEEE3$_0NS_9allocatorISA_EES7_E6targetERKSt9type_info', symObjAddr: 0x4DC, symBinAddr: 0x8F8C, symSize: 0x3C }
  - { offset: 0x7446D, size: 0x8, addend: 0x0, symName: '__ZNKSt3__110__function6__funcIZN8firebase9firestore4util15BackgroundQueue7ExecuteEONS_8functionIFvvEEEE3$_0NS_9allocatorISA_EES7_E6targetERKSt9type_info', symObjAddr: 0x4DC, symBinAddr: 0x8F8C, symSize: 0x3C }
  - { offset: 0x7451B, size: 0x8, addend: 0x0, symName: '__ZNKSt3__110__function6__funcIZN8firebase9firestore4util15BackgroundQueue7ExecuteEONS_8functionIFvvEEEE3$_0NS_9allocatorISA_EES7_E11target_typeEv', symObjAddr: 0x518, symBinAddr: 0x8FC8, symSize: 0xC }
  - { offset: 0x7635E, size: 0x8, addend: 0x0, symName: __ZN8firebase9firestore4util4Bits18Log2Floor_PortableEj, symObjAddr: 0x0, symBinAddr: 0x9038, symSize: 0xB0 }
  - { offset: 0x7883E, size: 0x8, addend: 0x0, symName: __ZN8firebase9firestore4util4Bits18Log2Floor_PortableEj, symObjAddr: 0x0, symBinAddr: 0x9038, symSize: 0xB0 }
  - { offset: 0x7B1AB, size: 0x8, addend: 0x0, symName: __ZN8firebase9firestore6remoteeqERKNS1_11BloomFilterES4_, symObjAddr: 0x6F0, symBinAddr: 0x97D8, symSize: 0xE0 }
  - { offset: 0x7B1EA, size: 0x8, addend: 0x0, symName: __ZN8firebase9firestore6remoteeqERKNS1_11BloomFilterES4_, symObjAddr: 0x6F0, symBinAddr: 0x97D8, symSize: 0xE0 }
  - { offset: 0x7DEE8, size: 0x8, addend: 0x0, symName: __ZNK8firebase9firestore6remote11BloomFilter13Md5HashDigestEN4absl12lts_2024011611string_viewE, symObjAddr: 0x0, symBinAddr: 0x90E8, symSize: 0xC }
  - { offset: 0x7E071, size: 0x8, addend: 0x0, symName: __ZNK8firebase9firestore6remote11BloomFilter11GetBitIndexERKNS2_4HashEi, symObjAddr: 0xC, symBinAddr: 0x90F4, symSize: 0xC4 }
  - { offset: 0x7E2B1, size: 0x8, addend: 0x0, symName: __ZNK8firebase9firestore6remote11BloomFilter8IsBitSetEi, symObjAddr: 0xD0, symBinAddr: 0x91B8, symSize: 0x44 }
  - { offset: 0x7E304, size: 0x8, addend: 0x0, symName: __ZN8firebase9firestore6remote11BloomFilterC2ENS0_6nanopb10ByteStringEii, symObjAddr: 0x114, symBinAddr: 0x91FC, symSize: 0x1B8 }
  - { offset: 0x7E6E6, size: 0x8, addend: 0x0, symName: __ZN8firebase9firestore6remote11BloomFilterC1ENS0_6nanopb10ByteStringEii, symObjAddr: 0x2CC, symBinAddr: 0x93B4, symSize: 0x4 }
  - { offset: 0x7E71F, size: 0x8, addend: 0x0, symName: __ZN8firebase9firestore6remote11BloomFilterC1ENS0_6nanopb10ByteStringEii, symObjAddr: 0x2CC, symBinAddr: 0x93B4, symSize: 0x4 }
  - { offset: 0x7EA17, size: 0x8, addend: 0x0, symName: __ZN8firebase9firestore6remote11BloomFilter6CreateENS0_6nanopb10ByteStringEii, symObjAddr: 0x2D0, symBinAddr: 0x93B8, symSize: 0x36C }
  - { offset: 0x7FBD3, size: 0x8, addend: 0x0, symName: __ZN8firebase9firestore4util17internal_statusor12StatusOrDataINS0_6remote11BloomFilterEEC2EONS1_6StatusE, symObjAddr: 0x808, symBinAddr: 0x98B8, symSize: 0x60 }
  - { offset: 0x7FE73, size: 0x8, addend: 0x0, symName: __ZNK8firebase9firestore6remote11BloomFilter12MightContainEN4absl12lts_2024011611string_viewE, symObjAddr: 0x63C, symBinAddr: 0x9724, symSize: 0xB4 }
  - { offset: 0x81E5F, size: 0x8, addend: 0x0, symName: __ZNK8firebase9firestore32_google_firestore_v1_BitSequence8ToStringEi, symObjAddr: 0x0, symBinAddr: 0x9918, symSize: 0x238 }
  - { offset: 0x81E83, size: 0x8, addend: 0x0, symName: __ZN8firebase9firestore38google_firestore_v1_BitSequence_fieldsE, symObjAddr: 0xD68, symBinAddr: 0x15F518, symSize: 0x0 }
  - { offset: 0x81E9D, size: 0x8, addend: 0x0, symName: __ZN8firebase9firestore38google_firestore_v1_BloomFilter_fieldsE, symObjAddr: 0xDC8, symBinAddr: 0x205248, symSize: 0x0 }
  - { offset: 0x823DE, size: 0x8, addend: 0x0, symName: __ZN8firebase9firestore6nanopb19PrintPrimitiveFieldIiEENSt3__112basic_stringIcNS3_11char_traitsIcEENS3_9allocatorIcEEEEN4absl12lts_2024011611string_viewET_ib, symObjAddr: 0x3CC, symBinAddr: 0x9B50, symSize: 0x194 }
  - { offset: 0x82C77, size: 0x8, addend: 0x0, symName: __ZN8firebase9firestore6nanopb17PrintMessageFieldINS0_32_google_firestore_v1_BitSequenceEEENSt3__112basic_stringIcNS4_11char_traitsIcEENS4_9allocatorIcEEEEN4absl12lts_2024011611string_viewERKT_ib, symObjAddr: 0x848, symBinAddr: 0x9F04, symSize: 0x27C }
  - { offset: 0x86460, size: 0x8, addend: 0x0, symName: __ZNK8firebase9firestore32_google_firestore_v1_BitSequence8ToStringEi, symObjAddr: 0x0, symBinAddr: 0x9918, symSize: 0x238 }
  - { offset: 0x8777C, size: 0x8, addend: 0x0, symName: __ZNK8firebase9firestore32_google_firestore_v1_BloomFilter8ToStringEi, symObjAddr: 0x628, symBinAddr: 0x9CE4, symSize: 0x220 }
  - { offset: 0x8D45D, size: 0x8, addend: 0x0, symName: __ZNSt3__124__put_character_sequenceB8ne200100IcNS_11char_traitsIcEEEERNS_13basic_ostreamIT_T0_EES7_PKS4_m, symObjAddr: 0x8F4, symBinAddr: 0xA93C, symSize: 0x168 }
  - { offset: 0x8F469, size: 0x8, addend: 0x0, symName: __ZNSt3__116__pad_and_outputB8ne200100IcNS_11char_traitsIcEEEENS_19ostreambuf_iteratorIT_T0_EES6_PKS4_S8_S8_RNS_8ios_baseES4_, symObjAddr: 0xA5C, symBinAddr: 0xAAA4, symSize: 0x13C }
  - { offset: 0x90901, size: 0x8, addend: 0x0, symName: __ZN8firebase9firestore4util12StringFormatIJNSt3__112basic_stringIcNS3_11char_traitsIcEENS3_9allocatorIcEEEEEEES9_PKcDpRKT_, symObjAddr: 0x358, symBinAddr: 0xA4D8, symSize: 0x6C }
  - { offset: 0x91647, size: 0x8, addend: 0x0, symName: __ZN8firebase9firestore4corelsERNSt3__113basic_ostreamIcNS2_11char_traitsIcEEEERKNS1_5BoundE, symObjAddr: 0x620, symBinAddr: 0xA718, symSize: 0x88 }
  - { offset: 0x91940, size: 0x8, addend: 0x0, symName: __ZN8firebase9firestore4coreeqERKNS1_5BoundES4_, symObjAddr: 0x6A8, symBinAddr: 0xA7A0, symSize: 0x134 }
  - { offset: 0x924DF, size: 0x8, addend: 0x0, symName: __ZN8firebase9firestore4core5Bound9FromValueENS0_6nanopb13SharedMessageINS0_31_google_firestore_v1_ArrayValueEEEb, symObjAddr: 0x0, symBinAddr: 0xA180, symSize: 0x50 }
  - { offset: 0x926BD, size: 0x8, addend: 0x0, symName: __ZNK8firebase9firestore4core5Bound19SortsBeforeDocumentERKNSt3__16vectorINS1_7OrderByENS3_9allocatorIS5_EEEERKNS0_5model8DocumentE, symObjAddr: 0x50, symBinAddr: 0xA1D0, symSize: 0x3C }
  - { offset: 0x92734, size: 0x8, addend: 0x0, symName: __ZNK8firebase9firestore4core5Bound17CompareToDocumentERKNSt3__16vectorINS1_7OrderByENS3_9allocatorIS5_EEEERKNS0_5model8DocumentE, symObjAddr: 0x8C, symBinAddr: 0xA20C, symSize: 0x290 }
  - { offset: 0x930B4, size: 0x8, addend: 0x0, symName: __ZNK8firebase9firestore5model4impl8BasePathINS1_9FieldPathEE9CompareToERKS4_, symObjAddr: 0xCCC, symBinAddr: 0xAC7C, symSize: 0xBC }
  - { offset: 0x93283, size: 0x8, addend: 0x0, symName: __ZNK8firebase9firestore4core5Bound17CompareToDocumentERKNSt3__16vectorINS1_7OrderByENS3_9allocatorIS5_EEEERKNS0_5model8DocumentE.cold.1, symObjAddr: 0x156C, symBinAddr: 0x157D08, symSize: 0x24 }
  - { offset: 0x9329E, size: 0x8, addend: 0x0, symName: __ZNK8firebase9firestore4core5Bound17CompareToDocumentERKNSt3__16vectorINS1_7OrderByENS3_9allocatorIS5_EEEERKNS0_5model8DocumentE.cold.1, symObjAddr: 0x156C, symBinAddr: 0x157D08, symSize: 0x24 }
  - { offset: 0x932B2, size: 0x8, addend: 0x0, symName: __ZNK8firebase9firestore4core5Bound17CompareToDocumentERKNSt3__16vectorINS1_7OrderByENS3_9allocatorIS5_EEEERKNS0_5model8DocumentE.cold.1, symObjAddr: 0x156C, symBinAddr: 0x157D08, symSize: 0x24 }
  - { offset: 0x932C8, size: 0x8, addend: 0x0, symName: __ZNK8firebase9firestore4core5Bound17CompareToDocumentERKNSt3__16vectorINS1_7OrderByENS3_9allocatorIS5_EEEERKNS0_5model8DocumentE.cold.1, symObjAddr: 0x156C, symBinAddr: 0x157D08, symSize: 0x24 }
  - { offset: 0x933C7, size: 0x8, addend: 0x0, symName: __ZNK8firebase9firestore4core5Bound18SortsAfterDocumentERKNSt3__16vectorINS1_7OrderByENS3_9allocatorIS5_EEEERKNS0_5model8DocumentE, symObjAddr: 0x31C, symBinAddr: 0xA49C, symSize: 0x3C }
  - { offset: 0x935BC, size: 0x8, addend: 0x0, symName: __ZNK8firebase9firestore4core5Bound14PositionStringEv, symObjAddr: 0x3C4, symBinAddr: 0xA544, symSize: 0xF8 }
  - { offset: 0x93C68, size: 0x8, addend: 0x0, symName: __ZNK8firebase9firestore4core5Bound8ToStringEv, symObjAddr: 0x4BC, symBinAddr: 0xA63C, symSize: 0xDC }
  - { offset: 0x942AF, size: 0x8, addend: 0x0, symName: __ZNSt3__112basic_stringIcNS_11char_traitsIcEENS_9allocatorIcEEE16__init_with_sizeB8ne200100IPKcS8_EEvT_T0_m, symObjAddr: 0x1028, symBinAddr: 0xAFD8, symSize: 0x9C }
  - { offset: 0x946BF, size: 0x8, addend: 0x0, symName: __ZNK8firebase9firestore4core5Bound4HashEv, symObjAddr: 0x7DC, symBinAddr: 0xA8D4, symSize: 0x68 }
  - { offset: 0x94C86, size: 0x8, addend: 0x0, symName: __ZNSt3__112basic_stringIcNS_11char_traitsIcEENS_9allocatorIcEEEC2B8ne200100Emc, symObjAddr: 0xBA8, symBinAddr: 0xABE0, symSize: 0x9C }
  - { offset: 0x9514A, size: 0x8, addend: 0x0, symName: __ZN8firebase9firestore5model4impl8BasePathINS1_9FieldPathEE15CompareSegmentsERKNSt3__112basic_stringIcNS6_11char_traitsIcEENS6_9allocatorIcEEEESE_, symObjAddr: 0xD88, symBinAddr: 0xAD38, symSize: 0xA8 }
  - { offset: 0x952A3, size: 0x8, addend: 0x0, symName: __ZN8firebase9firestore5model4impl8BasePathINS1_9FieldPathEE11IsNumericIdERKNSt3__112basic_stringIcNS6_11char_traitsIcEENS6_9allocatorIcEEEE, symObjAddr: 0xE30, symBinAddr: 0xADE0, symSize: 0x168 }
  - { offset: 0x9590B, size: 0x8, addend: 0x0, symName: __ZN8firebase9firestore5model4impl8BasePathINS1_9FieldPathEE16ExtractNumericIdERKNSt3__112basic_stringIcNS6_11char_traitsIcEENS6_9allocatorIcEEEE, symObjAddr: 0xF98, symBinAddr: 0xAF48, symSize: 0x90 }
  - { offset: 0x98359, size: 0x8, addend: 0x0, symName: __ZN8firebase9firestore12EnumToStringENS0_33_firestore_BundledQuery_LimitTypeE, symObjAddr: 0x0, symBinAddr: 0xB074, symSize: 0x2C }
  - { offset: 0x9837D, size: 0x8, addend: 0x0, symName: __ZN8firebase9firestore29firestore_BundledQuery_fieldsE, symObjAddr: 0x2D78, symBinAddr: 0x2052A8, symSize: 0x0 }
  - { offset: 0x98397, size: 0x8, addend: 0x0, symName: __ZN8firebase9firestore27firestore_NamedQuery_fieldsE, symObjAddr: 0x2DF8, symBinAddr: 0x205328, symSize: 0x0 }
  - { offset: 0x983B1, size: 0x8, addend: 0x0, symName: __ZN8firebase9firestore40firestore_BundledDocumentMetadata_fieldsE, symObjAddr: 0x2E78, symBinAddr: 0x2053A8, symSize: 0x0 }
  - { offset: 0x983CB, size: 0x8, addend: 0x0, symName: __ZN8firebase9firestore31firestore_BundleMetadata_fieldsE, symObjAddr: 0x2F18, symBinAddr: 0x205448, symSize: 0x0 }
  - { offset: 0x983E5, size: 0x8, addend: 0x0, symName: __ZN8firebase9firestore30firestore_BundleElement_fieldsE, symObjAddr: 0x2FD8, symBinAddr: 0x205508, symSize: 0x0 }
  - { offset: 0x984E1, size: 0x8, addend: 0x0, symName: __ZN8firebase9firestore12EnumToStringENS0_33_firestore_BundledQuery_LimitTypeE, symObjAddr: 0x0, symBinAddr: 0xB074, symSize: 0x2C }
  - { offset: 0x98E44, size: 0x8, addend: 0x0, symName: __ZN8firebase9firestore6nanopb17PrintMessageFieldINS0_36_google_firestore_v1_StructuredQueryEEENSt3__112basic_stringIcNS4_11char_traitsIcEENS4_9allocatorIcEEEEN4absl12lts_2024011611string_viewERKT_ib, symObjAddr: 0x460, symBinAddr: 0xB340, symSize: 0x27C }
  - { offset: 0x99B2E, size: 0x8, addend: 0x0, symName: __ZN8firebase9firestore6nanopb14PrintEnumFieldINS0_33_firestore_BundledQuery_LimitTypeEEENSt3__112basic_stringIcNS4_11char_traitsIcEENS4_9allocatorIcEEEEN4absl12lts_2024011611string_viewET_ib, symObjAddr: 0x6DC, symBinAddr: 0xB5BC, symSize: 0x188 }
  - { offset: 0x9A159, size: 0x8, addend: 0x0, symName: __ZN8firebase9firestore6nanopb17PrintMessageFieldINS0_23_firestore_BundledQueryEEENSt3__112basic_stringIcNS4_11char_traitsIcEENS4_9allocatorIcEEEEN4absl12lts_2024011611string_viewERKT_ib, symObjAddr: 0xB8C, symBinAddr: 0xB9A4, symSize: 0x27C }
  - { offset: 0x9AE65, size: 0x8, addend: 0x0, symName: __ZN8firebase9firestore6nanopb17PrintMessageFieldINS0_26_google_protobuf_TimestampEEENSt3__112basic_stringIcNS4_11char_traitsIcEENS4_9allocatorIcEEEEN4absl12lts_2024011611string_viewERKT_ib, symObjAddr: 0xE08, symBinAddr: 0xBC20, symSize: 0x27C }
  - { offset: 0x9BB4F, size: 0x8, addend: 0x0, symName: __ZN8firebase9firestore6nanopb19PrintPrimitiveFieldIbEENSt3__112basic_stringIcNS3_11char_traitsIcEENS3_9allocatorIcEEEEN4absl12lts_2024011611string_viewET_ib, symObjAddr: 0x136C, symBinAddr: 0xC184, symSize: 0x194 }
  - { offset: 0x9C365, size: 0x8, addend: 0x0, symName: __ZN8firebase9firestore6nanopb19PrintPrimitiveFieldIjEENSt3__112basic_stringIcNS3_11char_traitsIcEENS3_9allocatorIcEEEEN4absl12lts_2024011611string_viewET_ib, symObjAddr: 0x1818, symBinAddr: 0xC630, symSize: 0x194 }
  - { offset: 0x9CB8F, size: 0x8, addend: 0x0, symName: __ZN8firebase9firestore6nanopb19PrintPrimitiveFieldIyEENSt3__112basic_stringIcNS3_11char_traitsIcEENS3_9allocatorIcEEEEN4absl12lts_2024011611string_viewET_ib, symObjAddr: 0x19AC, symBinAddr: 0xC7C4, symSize: 0x194 }
  - { offset: 0x9D3B9, size: 0x8, addend: 0x0, symName: __ZN8firebase9firestore6nanopb17PrintMessageFieldINS0_21_firestore_NamedQueryEEENSt3__112basic_stringIcNS4_11char_traitsIcEENS4_9allocatorIcEEEEN4absl12lts_2024011611string_viewERKT_ib, symObjAddr: 0x20B4, symBinAddr: 0xCECC, symSize: 0x27C }
  - { offset: 0x9E1EE, size: 0x8, addend: 0x0, symName: __ZN8firebase9firestore6nanopb17PrintMessageFieldINS0_29_google_firestore_v1_DocumentEEENSt3__112basic_stringIcNS4_11char_traitsIcEENS4_9allocatorIcEEEEN4absl12lts_2024011611string_viewERKT_ib, symObjAddr: 0x25AC, symBinAddr: 0xD3C4, symSize: 0x27C }
  - { offset: 0x9EED8, size: 0x8, addend: 0x0, symName: __ZN8firebase9firestore6nanopb17PrintMessageFieldINS0_25_firestore_BundleMetadataEEENSt3__112basic_stringIcNS4_11char_traitsIcEENS4_9allocatorIcEEEEN4absl12lts_2024011611string_viewERKT_ib, symObjAddr: 0x1E38, symBinAddr: 0xCC50, symSize: 0x27C }
  - { offset: 0x9FD0D, size: 0x8, addend: 0x0, symName: __ZN8firebase9firestore6nanopb17PrintMessageFieldINS0_34_firestore_BundledDocumentMetadataEEENSt3__112basic_stringIcNS4_11char_traitsIcEENS4_9allocatorIcEEEEN4absl12lts_2024011611string_viewERKT_ib, symObjAddr: 0x2330, symBinAddr: 0xD148, symSize: 0x27C }
  - { offset: 0xA38EB, size: 0x8, addend: 0x0, symName: __ZNK8firebase9firestore23_firestore_BundledQuery8ToStringEi, symObjAddr: 0x2C, symBinAddr: 0xB0A0, symSize: 0x2A0 }
  - { offset: 0xA4E35, size: 0x8, addend: 0x0, symName: __ZNK8firebase9firestore21_firestore_NamedQuery8ToStringEi, symObjAddr: 0x92C, symBinAddr: 0xB744, symSize: 0x260 }
  - { offset: 0xA5D88, size: 0x8, addend: 0x0, symName: __ZNK8firebase9firestore34_firestore_BundledDocumentMetadata8ToStringEi, symObjAddr: 0x1084, symBinAddr: 0xBE9C, symSize: 0x2E8 }
  - { offset: 0xA6ED0, size: 0x8, addend: 0x0, symName: __ZNK8firebase9firestore25_firestore_BundleMetadata8ToStringEi, symObjAddr: 0x1500, symBinAddr: 0xC318, symSize: 0x318 }
  - { offset: 0xA81E6, size: 0x8, addend: 0x0, symName: __ZNK8firebase9firestore24_firestore_BundleElement8ToStringEi, symObjAddr: 0x1B40, symBinAddr: 0xC958, symSize: 0x2F8 }
  - { offset: 0xAEF05, size: 0x8, addend: 0x0, symName: __ZNSt3__1L19piecewise_constructE, symObjAddr: 0x867C, symBinAddr: 0x15F8F7, symSize: 0x0 }
  - { offset: 0xBBBA5, size: 0x8, addend: 0x0, symName: __ZNSt3__119__allocate_at_leastB8ne200100INS_9allocatorIN8firebase9firestore6bundle10NamedQueryEEEEENS_19__allocation_resultINS_16allocator_traitsIT_E7pointerEEERS9_m, symObjAddr: 0x1F10, symBinAddr: 0xEB80, symSize: 0x44 }
  - { offset: 0xBBC4B, size: 0x8, addend: 0x0, symName: __ZNSt3__134__uninitialized_allocator_relocateB8ne200100INS_9allocatorIN8firebase9firestore6bundle10NamedQueryEEEPS5_EEvRT_T0_SA_SA_, symObjAddr: 0x1F54, symBinAddr: 0xEBC4, symSize: 0x8C }
  - { offset: 0xBBC5F, size: 0x8, addend: 0x0, symName: __ZNSt3__134__uninitialized_allocator_relocateB8ne200100INS_9allocatorIN8firebase9firestore6bundle10NamedQueryEEEPS5_EEvRT_T0_SA_SA_, symObjAddr: 0x1F54, symBinAddr: 0xEBC4, symSize: 0x8C }
  - { offset: 0xBBCB9, size: 0x8, addend: 0x0, symName: __ZNSt3__134__uninitialized_allocator_relocateB8ne200100INS_9allocatorIN8firebase9firestore6bundle10NamedQueryEEEPS5_EEvRT_T0_SA_SA_, symObjAddr: 0x1F54, symBinAddr: 0xEBC4, symSize: 0x8C }
  - { offset: 0xBC586, size: 0x8, addend: 0x0, symName: __ZNSt3__119__allocate_at_leastB8ne200100INS_9allocatorIN8firebase9firestore4core6FilterEEEEENS_19__allocation_resultINS_16allocator_traitsIT_E7pointerEEERS9_m, symObjAddr: 0x19DC, symBinAddr: 0xE85C, symSize: 0x34 }
  - { offset: 0xBC86B, size: 0x8, addend: 0x0, symName: __ZNSt3__135__uninitialized_allocator_copy_implB8ne200100INS_9allocatorIN8firebase9firestore4core7OrderByEEEPS5_S7_S7_EET2_RT_T0_T1_S8_, symObjAddr: 0x1BDC, symBinAddr: 0xE980, symSize: 0xC4 }
  - { offset: 0xBCB54, size: 0x8, addend: 0x0, symName: __ZNSt3__119__allocate_at_leastB8ne200100INS_9allocatorIN8firebase9firestore4core7OrderByEEEEENS_19__allocation_resultINS_16allocator_traitsIT_E7pointerEEERS9_m, symObjAddr: 0x1BA8, symBinAddr: 0xE94C, symSize: 0x34 }
  - { offset: 0xBCBFA, size: 0x8, addend: 0x0, symName: __ZNSt3__135__uninitialized_allocator_copy_implB8ne200100INS_9allocatorIN8firebase9firestore4core7OrderByEEEPS5_S7_S7_EET2_RT_T0_T1_S8_, symObjAddr: 0x1BDC, symBinAddr: 0xE980, symSize: 0xC4 }
  - { offset: 0xBD1B8, size: 0x8, addend: 0x0, symName: __ZNSt3__112__destroy_atB8ne200100INS_4pairIKN8firebase9firestore5model11DocumentKeyENS3_6bundle23BundledDocumentMetadataEEELi0EEEvPT_, symObjAddr: 0x28DC, symBinAddr: 0xF54C, symSize: 0x54 }
  - { offset: 0xBD61D, size: 0x8, addend: 0x0, symName: __ZNSt3__115allocate_sharedB8ne200100IN8firebase9firestore9immutable4impl10FixedArrayINS_4pairINS2_5model11DocumentKeyENS7_15MutableDocumentEEEEENS_9allocatorISB_EEJPKSA_RSF_ELi0EEENS_10shared_ptrIT_EERKT0_DpOT1_, symObjAddr: 0x419C, symBinAddr: 0x10C6C, symSize: 0x60 }
  - { offset: 0xBD8DF, size: 0x8, addend: 0x0, symName: __ZNSt3__115allocate_sharedB8ne200100IN8firebase9firestore5model11ObjectValueENS_9allocatorIS4_EEJELi0EEENS_10shared_ptrIT_EERKT0_DpOT1_, symObjAddr: 0x3058, symBinAddr: 0xFC50, symSize: 0x48 }
  - { offset: 0xBF512, size: 0x8, addend: 0x0, symName: __ZNSt3__112__destroy_atB8ne200100INS_4pairIKNS_12basic_stringIcNS_11char_traitsIcEENS_9allocatorIcEEEEN8firebase9firestore9immutable9SortedSetINSA_5model11DocumentKeyENSA_4util10ComparatorISE_EEEEEELi0EEEvPT_, symObjAddr: 0x48F8, symBinAddr: 0x110AC, symSize: 0x3C }
  - { offset: 0xC0026, size: 0x8, addend: 0x0, symName: __ZNSt3__115allocate_sharedB8ne200100IN8firebase9firestore9immutable4impl10FixedArrayINS_4pairINS2_5model11DocumentKeyENS2_4util5EmptyEEEEENS_9allocatorISC_EEJPKSB_RSG_ELi0EEENS_10shared_ptrIT_EERKT0_DpOT1_, symObjAddr: 0x6DFC, symBinAddr: 0x12E64, symSize: 0x60 }
  - { offset: 0xC83FE, size: 0x8, addend: 0x0, symName: __ZN8firebase9firestore9immutable4impl8LlrbNodeINS0_5model11DocumentKeyENS4_15MutableDocumentEE8EmptyRepEv, symObjAddr: 0x2DA8, symBinAddr: 0xFA18, symSize: 0x7C }
  - { offset: 0xC841E, size: 0x8, addend: 0x0, symName: __ZZN8firebase9firestore9immutable4impl8LlrbNodeINS0_5model11DocumentKeyENS4_15MutableDocumentEE8EmptyRepEvE9empty_rep, symObjAddr: 0x8B78, symBinAddr: 0x218BA0, symSize: 0x0 }
  - { offset: 0xC8546, size: 0x8, addend: 0x0, symName: __ZN8firebase9firestore9immutable4impl14ArraySortedMapINS0_5model11DocumentKeyENS0_4util5EmptyENS6_10ComparatorIS5_EEE10EmptyArrayEv, symObjAddr: 0x5458, symBinAddr: 0x11538, symSize: 0xA0 }
  - { offset: 0xC8567, size: 0x8, addend: 0x0, symName: __ZZN8firebase9firestore9immutable4impl14ArraySortedMapINS0_5model11DocumentKeyENS0_4util5EmptyENS6_10ComparatorIS5_EEE10EmptyArrayEvE11kEmptyArray, symObjAddr: 0x8B88, symBinAddr: 0x218BB0, symSize: 0x0 }
  - { offset: 0xC86A1, size: 0x8, addend: 0x0, symName: __ZN8firebase9firestore9immutable4impl8LlrbNodeINS0_5model11DocumentKeyENS0_4util5EmptyEE8EmptyRepEv, symObjAddr: 0x5F94, symBinAddr: 0x12074, symSize: 0x7C }
  - { offset: 0xC86C1, size: 0x8, addend: 0x0, symName: __ZZN8firebase9firestore9immutable4impl8LlrbNodeINS0_5model11DocumentKeyENS0_4util5EmptyEE8EmptyRepEvE9empty_rep, symObjAddr: 0x8B98, symBinAddr: 0x218BC0, symSize: 0x0 }
  - { offset: 0xC9EEE, size: 0x8, addend: 0x0, symName: __ZN8firebase9firestore6bundle12BundleLoader18AddElementInternalERKNS1_13BundleElementE, symObjAddr: 0x0, symBinAddr: 0xD640, symSize: 0x318 }
  - { offset: 0xCABB8, size: 0x8, addend: 0x0, symName: __ZNSt3__16vectorIN8firebase9firestore6bundle10NamedQueryENS_9allocatorIS4_EEE9push_backB8ne200100ERKS4_, symObjAddr: 0x318, symBinAddr: 0xD958, symSize: 0x5C }
  - { offset: 0xCACF7, size: 0x8, addend: 0x0, symName: __ZN4absl12lts_2024011617optional_internal18optional_data_baseIN8firebase9firestore5model11DocumentKeyEE6assignIRKS6_EEvOT_, symObjAddr: 0x2154, symBinAddr: 0xEDC4, symSize: 0x44 }
  - { offset: 0xCAE4F, size: 0x8, addend: 0x0, symName: __ZNSt3__112__hash_tableINS_17__hash_value_typeIN8firebase9firestore5model11DocumentKeyENS3_6bundle23BundledDocumentMetadataEEENS_22__unordered_map_hasherIS5_S8_NS4_15DocumentKeyHashENS_8equal_toIS5_EELb1EEENS_21__unordered_map_equalIS5_S8_SC_SA_Lb1EEENS_9allocatorIS8_EEE25__emplace_unique_key_argsIS5_JRKS5_RKS7_EEENS_4pairINS_15__hash_iteratorIPNS_11__hash_nodeIS8_PvEEEEbEERKT_DpOT0_, symObjAddr: 0x2210, symBinAddr: 0xEE80, symSize: 0x254 }
  - { offset: 0xCB2F6, size: 0x8, addend: 0x0, symName: __ZNK8firebase9firestore9immutable9SortedMapINS0_5model11DocumentKeyENS3_15MutableDocumentENS0_4util10ComparatorIS4_EEE6insertERKS4_RKS5_, symObjAddr: 0x374, symBinAddr: 0xD9B4, symSize: 0x160 }
  - { offset: 0xCB901, size: 0x8, addend: 0x0, symName: __ZN8firebase9firestore9immutable9SortedMapINS0_5model11DocumentKeyENS3_15MutableDocumentENS0_4util10ComparatorIS4_EEEaSEOS9_, symObjAddr: 0x4D4, symBinAddr: 0xDB14, symSize: 0xA8 }
  - { offset: 0xCBC8E, size: 0x8, addend: 0x0, symName: __ZN8firebase9firestore4util17internal_statusor12StatusOrDataIN4absl12lts_202401168optionalINS0_3api22LoadBundleTaskProgressEEEEC2EONS1_6StatusE, symObjAddr: 0x4684, symBinAddr: 0x10F2C, symSize: 0x60 }
  - { offset: 0xCBE03, size: 0x8, addend: 0x0, symName: __ZNSt3__19allocatorIN8firebase9firestore6bundle10NamedQueryEE9constructB8ne200100IS4_JRKS4_EEEvPT_DpOT0_, symObjAddr: 0x1208, symBinAddr: 0xE4B0, symSize: 0x9C }
  - { offset: 0xCC055, size: 0x8, addend: 0x0, symName: __ZNSt3__16vectorIN8firebase9firestore6bundle10NamedQueryENS_9allocatorIS4_EEE24__emplace_back_slow_pathIJRKS4_EEEPS4_DpOT_, symObjAddr: 0x10D8, symBinAddr: 0xE380, symSize: 0x130 }
  - { offset: 0xCC60B, size: 0x8, addend: 0x0, symName: __ZN8firebase9firestore9immutable4impl13TreeSortedMapINS0_5model11DocumentKeyENS4_15MutableDocumentENS0_4util10ComparatorIS5_EEE6CreateINS2_14ArraySortedMapIS5_S6_S9_EEEESA_RKT_RKS9_, symObjAddr: 0x2930, symBinAddr: 0xF5A0, symSize: 0x148 }
  - { offset: 0xCCC6B, size: 0x8, addend: 0x0, symName: __ZNK8firebase9firestore9immutable4impl13TreeSortedMapINS0_5model11DocumentKeyENS4_15MutableDocumentENS0_4util10ComparatorIS5_EEE6insertERKS5_RKS6_, symObjAddr: 0x2A78, symBinAddr: 0xF6E8, symSize: 0x50 }
  - { offset: 0xCCE47, size: 0x8, addend: 0x0, symName: __ZNK8firebase9firestore9immutable4impl14ArraySortedMapINS0_5model11DocumentKeyENS4_15MutableDocumentENS0_4util10ComparatorIS5_EEE6insertERKS5_RKS6_, symObjAddr: 0x2AC8, symBinAddr: 0xF738, symSize: 0x2E0 }
  - { offset: 0xCE12F, size: 0x8, addend: 0x0, symName: __ZN8firebase9firestore6bundle12BundleLoader10AddElementENSt3__110unique_ptrINS1_13BundleElementENS3_14default_deleteIS5_EEEEy, symObjAddr: 0x57C, symBinAddr: 0xDBBC, symSize: 0x1C8 }
  - { offset: 0xCEBF3, size: 0x8, addend: 0x0, symName: __ZNK8firebase9firestore9immutable9SortedMapINS0_5model11DocumentKeyENS3_15MutableDocumentENS0_4util10ComparatorIS4_EEE4sizeEv, symObjAddr: 0x744, symBinAddr: 0xDD84, symSize: 0x38 }
  - { offset: 0xCECCD, size: 0x8, addend: 0x0, symName: __ZN8firebase9firestore6bundle12BundleLoader12ApplyChangesEv, symObjAddr: 0x77C, symBinAddr: 0xDDBC, symSize: 0x294 }
  - { offset: 0xCECD8, size: 0x8, addend: 0x0, symName: __ZN8firebase9firestore4util17internal_statusor12StatusOrDataIN4absl12lts_202401168optionalINS0_3api22LoadBundleTaskProgressEEEEC2EONS1_6StatusE, symObjAddr: 0x4684, symBinAddr: 0x10F2C, symSize: 0x60 }
  - { offset: 0xCEED8, size: 0x8, addend: 0x0, symName: __ZN4absl12lts_2024011617optional_internal23optional_data_dtor_baseIN8firebase9firestore3api22LoadBundleTaskProgressELb0EEC2IJS6_EEENS0_10in_place_tEDpOT_, symObjAddr: 0xCF8, symBinAddr: 0xE288, symSize: 0x50 }
  - { offset: 0xCF013, size: 0x8, addend: 0x0, symName: __ZN4absl12lts_2024011617optional_internal18optional_data_baseIN8firebase9firestore3api22LoadBundleTaskProgressEE9constructIJS6_EEEvDpOT_, symObjAddr: 0x46E4, symBinAddr: 0x10F8C, symSize: 0x4C }
  - { offset: 0xCF3C5, size: 0x8, addend: 0x0, symName: __ZN8firebase9firestore6bundle12BundleLoader12ApplyChangesEv, symObjAddr: 0x77C, symBinAddr: 0xDDBC, symSize: 0x294 }
  - { offset: 0xCFE81, size: 0x8, addend: 0x0, symName: __ZN8firebase9firestore4util17internal_statusor12StatusOrDataINS0_9immutable9SortedMapINS0_5model11DocumentKeyENS6_8DocumentENS1_10ComparatorIS7_EEEEEC2EONS1_6StatusE, symObjAddr: 0x4730, symBinAddr: 0x10FD8, symSize: 0x60 }
  - { offset: 0xD0080, size: 0x8, addend: 0x0, symName: __ZN8firebase9firestore6bundle12BundleLoader23GetQueryDocumentMappingEv, symObjAddr: 0xA10, symBinAddr: 0xE050, symSize: 0x180 }
  - { offset: 0xD0801, size: 0x8, addend: 0x0, symName: __ZNSt3__112__hash_tableINS_17__hash_value_typeINS_12basic_stringIcNS_11char_traitsIcEENS_9allocatorIcEEEEN8firebase9firestore9immutable9SortedSetINS9_5model11DocumentKeyENS9_4util10ComparatorISD_EEEEEENS_22__unordered_map_hasherIS7_SI_NS_4hashIS7_EENS_8equal_toIS7_EELb1EEENS_21__unordered_map_equalIS7_SI_SN_SL_Lb1EEENS5_ISI_EEE25__emplace_unique_key_argsIS7_JRKNS_21piecewise_construct_tENS_5tupleIJRKS7_EEENSX_IJEEEEEENS_4pairINS_15__hash_iteratorIPNS_11__hash_nodeISI_PvEEEEbEERKT_DpOT0_, symObjAddr: 0x4934, symBinAddr: 0x110E8, symSize: 0x268 }
  - { offset: 0xD0CC2, size: 0x8, addend: 0x0, symName: __ZNSt3__112__hash_tableINS_17__hash_value_typeINS_12basic_stringIcNS_11char_traitsIcEENS_9allocatorIcEEEEN8firebase9firestore9immutable9SortedSetINS9_5model11DocumentKeyENS9_4util10ComparatorISD_EEEEEENS_22__unordered_map_hasherIS7_SI_NS_4hashIS7_EENS_8equal_toIS7_EELb1EEENS_21__unordered_map_equalIS7_SI_SN_SL_Lb1EEENS5_ISI_EEED2Ev, symObjAddr: 0x4884, symBinAddr: 0x11038, symSize: 0x38 }
  - { offset: 0xD1215, size: 0x8, addend: 0x0, symName: __ZNSt3__112__hash_tableINS_17__hash_value_typeINS_12basic_stringIcNS_11char_traitsIcEENS_9allocatorIcEEEEN8firebase9firestore9immutable9SortedSetINS9_5model11DocumentKeyENS9_4util10ComparatorISD_EEEEEENS_22__unordered_map_hasherIS7_SI_NS_4hashIS7_EENS_8equal_toIS7_EELb1EEENS_21__unordered_map_equalIS7_SI_SN_SL_Lb1EEENS5_ISI_EEE25__emplace_unique_key_argsIS7_JRKS7_SH_EEENS_4pairINS_15__hash_iteratorIPNS_11__hash_nodeISI_PvEEEEbEERKT_DpOT0_, symObjAddr: 0x5728, symBinAddr: 0x11808, symSize: 0x258 }
  - { offset: 0xD16BB, size: 0x8, addend: 0x0, symName: __ZN8firebase9firestore9immutable9SortedMapINS0_5model11DocumentKeyENS0_4util5EmptyENS5_10ComparatorIS4_EEED2Ev, symObjAddr: 0xD80, symBinAddr: 0xE2D8, symSize: 0x44 }
  - { offset: 0xD17C4, size: 0x8, addend: 0x0, symName: __ZNK8firebase9firestore9immutable9SortedSetINS0_5model11DocumentKeyENS0_4util10ComparatorIS4_EEE6insertERKS4_, symObjAddr: 0xB90, symBinAddr: 0xE1D0, symSize: 0xB8 }
  - { offset: 0xD1A3D, size: 0x8, addend: 0x0, symName: __ZNK8firebase9firestore9immutable9SortedMapINS0_5model11DocumentKeyENS0_4util5EmptyENS5_10ComparatorIS4_EEE6insertERKS4_RKS6_, symObjAddr: 0x5A90, symBinAddr: 0x11B70, symSize: 0x160 }
  - { offset: 0xD232D, size: 0x8, addend: 0x0, symName: __ZNSt3__110shared_ptrIKN8firebase9firestore9immutable4impl10FixedArrayINS_4pairINS2_5model11DocumentKeyENS2_4util5EmptyEEEEEEaSB8ne200100EOSE_, symObjAddr: 0xF1C, symBinAddr: 0xE31C, symSize: 0x64 }
  - { offset: 0xD2800, size: 0x8, addend: 0x0, symName: __ZNSt3__114__split_bufferIN8firebase9firestore6bundle10NamedQueryERNS_9allocatorIS4_EEED2Ev, symObjAddr: 0x2104, symBinAddr: 0xED74, symSize: 0x50 }
  - { offset: 0xD294D, size: 0x8, addend: 0x0, symName: __ZNSt3__119__allocate_at_leastB8ne200100INS_9allocatorIN8firebase9firestore6bundle10NamedQueryEEEEENS_19__allocation_resultINS_16allocator_traitsIT_E7pointerEEERS9_m, symObjAddr: 0x1F10, symBinAddr: 0xEB80, symSize: 0x44 }
  - { offset: 0xD2B8D, size: 0x8, addend: 0x0, symName: __ZN8firebase9firestore4core6TargetC2ERKS2_, symObjAddr: 0x13F4, symBinAddr: 0xE56C, symSize: 0x220 }
  - { offset: 0xD375F, size: 0x8, addend: 0x0, symName: __ZN8firebase9firestore6bundle10NamedQueryD1Ev, symObjAddr: 0x12A4, symBinAddr: 0xE54C, symSize: 0x4 }
  - { offset: 0xD3782, size: 0x8, addend: 0x0, symName: __ZN8firebase9firestore6bundle10NamedQueryD1Ev, symObjAddr: 0x12A4, symBinAddr: 0xE54C, symSize: 0x4 }
  - { offset: 0xD3795, size: 0x8, addend: 0x0, symName: __ZN8firebase9firestore6bundle10NamedQueryD2Ev, symObjAddr: 0x1E3C, symBinAddr: 0xEAC0, symSize: 0xC0 }
  - { offset: 0xD3EF0, size: 0x8, addend: 0x0, symName: __ZN8firebase9firestore6bundle10NamedQueryD0Ev, symObjAddr: 0x12A8, symBinAddr: 0xE550, symSize: 0x14 }
  - { offset: 0xD3F4A, size: 0x8, addend: 0x0, symName: __ZNK8firebase9firestore6bundle10NamedQuery12element_typeEv, symObjAddr: 0x12BC, symBinAddr: 0xE564, symSize: 0x8 }
  - { offset: 0xD48F0, size: 0x8, addend: 0x0, symName: __ZNSt3__16vectorIN8firebase9firestore4core6FilterENS_9allocatorIS4_EEE16__init_with_sizeB8ne200100IPS4_S9_EEvT_T0_m, symObjAddr: 0x18F8, symBinAddr: 0xE78C, symSize: 0x98 }
  - { offset: 0xD4C64, size: 0x8, addend: 0x0, symName: __ZNSt3__16vectorIN8firebase9firestore4core7OrderByENS_9allocatorIS4_EEE16__init_with_sizeB8ne200100IPS4_S9_EEvT_T0_m, symObjAddr: 0x1AD8, symBinAddr: 0xE890, symSize: 0x84 }
  - { offset: 0xD5BA3, size: 0x8, addend: 0x0, symName: __ZNSt3__16vectorIN8firebase9firestore4core6FilterENS_9allocatorIS4_EEE11__vallocateB8ne200100Em, symObjAddr: 0x1990, symBinAddr: 0xE824, symSize: 0x38 }
  - { offset: 0xD5C0D, size: 0x8, addend: 0x0, symName: __ZNSt3__119__allocate_at_leastB8ne200100INS_9allocatorIN8firebase9firestore4core6FilterEEEEENS_19__allocation_resultINS_16allocator_traitsIT_E7pointerEEERS9_m, symObjAddr: 0x19DC, symBinAddr: 0xE85C, symSize: 0x34 }
  - { offset: 0xD5F74, size: 0x8, addend: 0x0, symName: __ZNSt3__16vectorIN8firebase9firestore4core7OrderByENS_9allocatorIS4_EEE11__vallocateB8ne200100Em, symObjAddr: 0x1B5C, symBinAddr: 0xE914, symSize: 0x38 }
  - { offset: 0xD5FDE, size: 0x8, addend: 0x0, symName: __ZNSt3__119__allocate_at_leastB8ne200100INS_9allocatorIN8firebase9firestore4core7OrderByEEEEENS_19__allocation_resultINS_16allocator_traitsIT_E7pointerEEERS9_m, symObjAddr: 0x1BA8, symBinAddr: 0xE94C, symSize: 0x34 }
  - { offset: 0xD61B5, size: 0x8, addend: 0x0, symName: __ZNSt3__128__exception_guard_exceptionsINS_29_AllocatorDestroyRangeReverseINS_9allocatorIN8firebase9firestore4core7OrderByEEEPS6_EEED2B8ne200100Ev, symObjAddr: 0x1CA0, symBinAddr: 0xEA44, symSize: 0x34 }
  - { offset: 0xD61F2, size: 0x8, addend: 0x0, symName: __ZNKSt3__129_AllocatorDestroyRangeReverseINS_9allocatorIN8firebase9firestore4core7OrderByEEEPS5_EclB8ne200100Ev, symObjAddr: 0x1CD4, symBinAddr: 0xEA78, symSize: 0x48 }
  - { offset: 0xD66ED, size: 0x8, addend: 0x0, symName: __ZNSt3__19allocatorIN8firebase9firestore6bundle10NamedQueryEE9constructB8ne200100IS4_JS4_EEEvPT_DpOT0_, symObjAddr: 0x1FE0, symBinAddr: 0xEC50, symSize: 0x124 }
  - { offset: 0xD672D, size: 0x8, addend: 0x0, symName: __ZNSt3__19allocatorIN8firebase9firestore6bundle10NamedQueryEE9constructB8ne200100IS4_JS4_EEEvPT_DpOT0_, symObjAddr: 0x1FE0, symBinAddr: 0xEC50, symSize: 0x124 }
  - { offset: 0xD674F, size: 0x8, addend: 0x0, symName: __ZNSt3__19allocatorIN8firebase9firestore6bundle10NamedQueryEE9constructB8ne200100IS4_JS4_EEEvPT_DpOT0_, symObjAddr: 0x1FE0, symBinAddr: 0xEC50, symSize: 0x124 }
  - { offset: 0xD7338, size: 0x8, addend: 0x0, symName: __ZNSt3__110shared_ptrIKN8firebase9firestore5model12ResourcePathEEaSB8ne200100ERKS6_, symObjAddr: 0x2198, symBinAddr: 0xEE08, symSize: 0x78 }
  - { offset: 0xD76AD, size: 0x8, addend: 0x0, symName: __ZNSt3__112__hash_tableINS_17__hash_value_typeIN8firebase9firestore5model11DocumentKeyENS3_6bundle23BundledDocumentMetadataEEENS_22__unordered_map_hasherIS5_S8_NS4_15DocumentKeyHashENS_8equal_toIS5_EELb1EEENS_21__unordered_map_equalIS5_S8_SC_SA_Lb1EEENS_9allocatorIS8_EEE21__construct_node_hashIRKS5_JRKS7_EEENS_10unique_ptrINS_11__hash_nodeIS8_PvEENS_22__hash_node_destructorINSG_ISR_EEEEEEmOT_DpOT0_, symObjAddr: 0x2464, symBinAddr: 0xF0D4, symSize: 0x7C }
  - { offset: 0xD79B4, size: 0x8, addend: 0x0, symName: __ZNSt3__112__hash_tableINS_17__hash_value_typeIN8firebase9firestore5model11DocumentKeyENS3_6bundle23BundledDocumentMetadataEEENS_22__unordered_map_hasherIS5_S8_NS4_15DocumentKeyHashENS_8equal_toIS5_EELb1EEENS_21__unordered_map_equalIS5_S8_SC_SA_Lb1EEENS_9allocatorIS8_EEE8__rehashILb1EEEvm, symObjAddr: 0x2668, symBinAddr: 0xF2D8, symSize: 0xDC }
  - { offset: 0xD7AA8, size: 0x8, addend: 0x0, symName: __ZNSt3__110unique_ptrINS_11__hash_nodeINS_17__hash_value_typeIN8firebase9firestore5model11DocumentKeyENS4_6bundle23BundledDocumentMetadataEEEPvEENS_22__hash_node_destructorINS_9allocatorISB_EEEEE5resetB8ne200100EPSB_, symObjAddr: 0x2894, symBinAddr: 0xF504, symSize: 0x48 }
  - { offset: 0xD7E6F, size: 0x8, addend: 0x0, symName: __ZNSt3__14pairIKN8firebase9firestore5model11DocumentKeyENS2_6bundle23BundledDocumentMetadataEEC2B8ne200100ILb1ELi0EEERS5_RKS7_, symObjAddr: 0x24E0, symBinAddr: 0xF150, symSize: 0xD4 }
  - { offset: 0xD8244, size: 0x8, addend: 0x0, symName: __ZN8firebase9firestore6bundle23BundledDocumentMetadataD1Ev, symObjAddr: 0x25B4, symBinAddr: 0xF224, symSize: 0x54 }
  - { offset: 0xD839D, size: 0x8, addend: 0x0, symName: __ZN8firebase9firestore6bundle23BundledDocumentMetadataD0Ev, symObjAddr: 0x2608, symBinAddr: 0xF278, symSize: 0x58 }
  - { offset: 0xD8500, size: 0x8, addend: 0x0, symName: __ZNK8firebase9firestore6bundle23BundledDocumentMetadata12element_typeEv, symObjAddr: 0x2660, symBinAddr: 0xF2D0, symSize: 0x8 }
  - { offset: 0xD8525, size: 0x8, addend: 0x0, symName: __ZNSt3__112__hash_tableINS_17__hash_value_typeIN8firebase9firestore5model11DocumentKeyENS3_6bundle23BundledDocumentMetadataEEENS_22__unordered_map_hasherIS5_S8_NS4_15DocumentKeyHashENS_8equal_toIS5_EELb1EEENS_21__unordered_map_equalIS5_S8_SC_SA_Lb1EEENS_9allocatorIS8_EEE11__do_rehashILb1EEEvm, symObjAddr: 0x2744, symBinAddr: 0xF3B4, symSize: 0x150 }
  - { offset: 0xD892F, size: 0x8, addend: 0x0, symName: __ZNSt3__110unique_ptrINS_11__hash_nodeINS_17__hash_value_typeIN8firebase9firestore5model11DocumentKeyENS4_6bundle23BundledDocumentMetadataEEEPvEENS_22__hash_node_destructorINS_9allocatorISB_EEEEE5resetB8ne200100EPSB_, symObjAddr: 0x2894, symBinAddr: 0xF504, symSize: 0x48 }
  - { offset: 0xD8D27, size: 0x8, addend: 0x0, symName: __ZNK8firebase9firestore9immutable4impl8LlrbNodeINS0_5model11DocumentKeyENS4_15MutableDocumentEE11InnerInsertINS0_4util10ComparatorIS5_EEEES7_RKS5_RKS6_RKT_, symObjAddr: 0x3314, symBinAddr: 0xFEC0, symSize: 0x378 }
  - { offset: 0xDA679, size: 0x8, addend: 0x0, symName: __ZNK8firebase9firestore9immutable4impl14ArraySortedMapINS0_5model11DocumentKeyENS4_15MutableDocumentENS0_4util10ComparatorIS5_EEE11lower_boundERKS5_, symObjAddr: 0x3FB8, symBinAddr: 0x10A88, symSize: 0x7C }
  - { offset: 0xDA8E7, size: 0x8, addend: 0x0, symName: __ZN8firebase9firestore9immutable4impl10FixedArrayINSt3__14pairINS0_5model11DocumentKeyENS6_15MutableDocumentEEEE6appendEOS9_, symObjAddr: 0x4034, symBinAddr: 0x10B04, symSize: 0x90 }
  - { offset: 0xDAAE2, size: 0x8, addend: 0x0, symName: __ZN8firebase9firestore9immutable4impl10FixedArrayINSt3__14pairINS0_5model11DocumentKeyENS6_15MutableDocumentEEEE6appendIPKS9_EEvT_SE_, symObjAddr: 0x40C4, symBinAddr: 0x10B94, symSize: 0xD8 }
  - { offset: 0xDAD9C, size: 0x8, addend: 0x0, symName: __ZNSt3__14pairIN8firebase9firestore5model11DocumentKeyENS3_15MutableDocumentEED1Ev, symObjAddr: 0x2EFC, symBinAddr: 0xFB6C, symSize: 0x30 }
  - { offset: 0xDAF2E, size: 0x8, addend: 0x0, symName: __ZZN8firebase9firestore9immutable4impl8LlrbNodeINS0_5model11DocumentKeyENS4_15MutableDocumentEE8EmptyRepEvENKUlvE_clEv, symObjAddr: 0x2E24, symBinAddr: 0xFA94, symSize: 0xD8 }
  - { offset: 0xDB536, size: 0x8, addend: 0x0, symName: __ZNSt3__14pairIN8firebase9firestore5model11DocumentKeyENS3_15MutableDocumentEEC2B8ne200100ILb1ELi0EEEv, symObjAddr: 0x2FA4, symBinAddr: 0xFB9C, symSize: 0x4C }
  - { offset: 0xDB602, size: 0x8, addend: 0x0, symName: __ZNSt3__110shared_ptrIN8firebase9firestore9immutable4impl8LlrbNodeINS2_5model11DocumentKeyENS6_15MutableDocumentEE3RepEEC2B8ne200100ISA_Li0EEEPT_, symObjAddr: 0x3170, symBinAddr: 0xFD68, symSize: 0x70 }
  - { offset: 0xDB870, size: 0x8, addend: 0x0, symName: __ZN8firebase9firestore5model15MutableDocumentC2Ev, symObjAddr: 0x2FF0, symBinAddr: 0xFBE8, symSize: 0x68 }
  - { offset: 0xDBCB5, size: 0x8, addend: 0x0, symName: __ZNSt3__120__shared_ptr_emplaceIN8firebase9firestore5model11ObjectValueENS_9allocatorIS4_EEEC2B8ne200100IJES6_Li0EEES6_DpOT_, symObjAddr: 0x30A0, symBinAddr: 0xFC98, symSize: 0x4C }
  - { offset: 0xDBE44, size: 0x8, addend: 0x0, symName: __ZNSt3__120__shared_ptr_emplaceIN8firebase9firestore5model11ObjectValueENS_9allocatorIS4_EEED1Ev, symObjAddr: 0x30EC, symBinAddr: 0xFCE4, symSize: 0x14 }
  - { offset: 0xDBE66, size: 0x8, addend: 0x0, symName: __ZNSt3__120__shared_ptr_emplaceIN8firebase9firestore5model11ObjectValueENS_9allocatorIS4_EEED1Ev, symObjAddr: 0x30EC, symBinAddr: 0xFCE4, symSize: 0x14 }
  - { offset: 0xDBE9B, size: 0x8, addend: 0x0, symName: __ZNSt3__120__shared_ptr_emplaceIN8firebase9firestore5model11ObjectValueENS_9allocatorIS4_EEED0Ev, symObjAddr: 0x3100, symBinAddr: 0xFCF8, symSize: 0x24 }
  - { offset: 0xDBFD8, size: 0x8, addend: 0x0, symName: __ZNSt3__120__shared_ptr_emplaceIN8firebase9firestore5model11ObjectValueENS_9allocatorIS4_EEE16__on_zero_sharedEv, symObjAddr: 0x3124, symBinAddr: 0xFD1C, symSize: 0x8 }
  - { offset: 0xDC000, size: 0x8, addend: 0x0, symName: __ZNSt3__120__shared_ptr_emplaceIN8firebase9firestore5model11ObjectValueENS_9allocatorIS4_EEE16__on_zero_sharedEv, symObjAddr: 0x3124, symBinAddr: 0xFD1C, symSize: 0x8 }
  - { offset: 0xDC01D, size: 0x8, addend: 0x0, symName: __ZNSt3__120__shared_ptr_emplaceIN8firebase9firestore5model11ObjectValueENS_9allocatorIS4_EEE16__on_zero_sharedEv, symObjAddr: 0x3124, symBinAddr: 0xFD1C, symSize: 0x8 }
  - { offset: 0xDC0AE, size: 0x8, addend: 0x0, symName: __ZN8firebase9firestore6nanopb7MessageINS0_26_google_firestore_v1_ValueEED2Ev, symObjAddr: 0x3130, symBinAddr: 0xFD28, symSize: 0x40 }
  - { offset: 0xDC107, size: 0x8, addend: 0x0, symName: __ZNSt3__120__shared_ptr_emplaceIN8firebase9firestore5model11ObjectValueENS_9allocatorIS4_EEE21__on_zero_shared_weakEv, symObjAddr: 0x312C, symBinAddr: 0xFD24, symSize: 0x4 }
  - { offset: 0xDC138, size: 0x8, addend: 0x0, symName: __ZNSt3__120__shared_ptr_emplaceIN8firebase9firestore5model11ObjectValueENS_9allocatorIS4_EEE21__on_zero_shared_weakEv, symObjAddr: 0x312C, symBinAddr: 0xFD24, symSize: 0x4 }
  - { offset: 0xDC15A, size: 0x8, addend: 0x0, symName: __ZNSt3__120__shared_ptr_emplaceIN8firebase9firestore5model11ObjectValueENS_9allocatorIS4_EEE21__on_zero_shared_weakEv, symObjAddr: 0x312C, symBinAddr: 0xFD24, symSize: 0x4 }
  - { offset: 0xDC17D, size: 0x8, addend: 0x0, symName: __ZNSt3__120__shared_ptr_emplaceIN8firebase9firestore5model11ObjectValueENS_9allocatorIS4_EEE21__on_zero_shared_weakEv, symObjAddr: 0x312C, symBinAddr: 0xFD24, symSize: 0x4 }
  - { offset: 0xDC1B2, size: 0x8, addend: 0x0, symName: __ZNSt3__120__shared_ptr_emplaceIN8firebase9firestore5model11ObjectValueENS_9allocatorIS4_EEE21__on_zero_shared_weakEv, symObjAddr: 0x312C, symBinAddr: 0xFD24, symSize: 0x4 }
  - { offset: 0xDC30F, size: 0x8, addend: 0x0, symName: __ZNKSt3__114default_deleteIN8firebase9firestore9immutable4impl8LlrbNodeINS2_5model11DocumentKeyENS6_15MutableDocumentEE3RepEEclB8ne200100EPSA_, symObjAddr: 0x323C, symBinAddr: 0xFE34, symSize: 0x4C }
  - { offset: 0xDC56A, size: 0x8, addend: 0x0, symName: __ZNSt3__120__shared_ptr_pointerIPN8firebase9firestore9immutable4impl8LlrbNodeINS2_5model11DocumentKeyENS6_15MutableDocumentEE3RepENS_10shared_ptrISA_E27__shared_ptr_default_deleteISA_SA_EENS_9allocatorISA_EEED1Ev, symObjAddr: 0x31E0, symBinAddr: 0xFDD8, symSize: 0x4 }
  - { offset: 0xDC58C, size: 0x8, addend: 0x0, symName: __ZNSt3__120__shared_ptr_pointerIPN8firebase9firestore9immutable4impl8LlrbNodeINS2_5model11DocumentKeyENS6_15MutableDocumentEE3RepENS_10shared_ptrISA_E27__shared_ptr_default_deleteISA_SA_EENS_9allocatorISA_EEED1Ev, symObjAddr: 0x31E0, symBinAddr: 0xFDD8, symSize: 0x4 }
  - { offset: 0xDC5C1, size: 0x8, addend: 0x0, symName: __ZNSt3__120__shared_ptr_pointerIPN8firebase9firestore9immutable4impl8LlrbNodeINS2_5model11DocumentKeyENS6_15MutableDocumentEE3RepENS_10shared_ptrISA_E27__shared_ptr_default_deleteISA_SA_EENS_9allocatorISA_EEED0Ev, symObjAddr: 0x31E4, symBinAddr: 0xFDDC, symSize: 0x14 }
  - { offset: 0xDC622, size: 0x8, addend: 0x0, symName: __ZNSt3__120__shared_ptr_pointerIPN8firebase9firestore9immutable4impl8LlrbNodeINS2_5model11DocumentKeyENS6_15MutableDocumentEE3RepENS_10shared_ptrISA_E27__shared_ptr_default_deleteISA_SA_EENS_9allocatorISA_EEE16__on_zero_sharedEv, symObjAddr: 0x31F8, symBinAddr: 0xFDF0, symSize: 0x8 }
  - { offset: 0xDC65B, size: 0x8, addend: 0x0, symName: __ZNKSt3__120__shared_ptr_pointerIPN8firebase9firestore9immutable4impl8LlrbNodeINS2_5model11DocumentKeyENS6_15MutableDocumentEE3RepENS_10shared_ptrISA_E27__shared_ptr_default_deleteISA_SA_EENS_9allocatorISA_EEE13__get_deleterERKSt9type_info, symObjAddr: 0x3200, symBinAddr: 0xFDF8, symSize: 0x38 }
  - { offset: 0xDC75F, size: 0x8, addend: 0x0, symName: __ZNSt3__120__shared_ptr_pointerIPN8firebase9firestore9immutable4impl8LlrbNodeINS2_5model11DocumentKeyENS6_15MutableDocumentEE3RepENS_10shared_ptrISA_E27__shared_ptr_default_deleteISA_SA_EENS_9allocatorISA_EEE21__on_zero_shared_weakEv, symObjAddr: 0x3238, symBinAddr: 0xFE30, symSize: 0x4 }
  - { offset: 0xDC790, size: 0x8, addend: 0x0, symName: __ZNSt3__120__shared_ptr_pointerIPN8firebase9firestore9immutable4impl8LlrbNodeINS2_5model11DocumentKeyENS6_15MutableDocumentEE3RepENS_10shared_ptrISA_E27__shared_ptr_default_deleteISA_SA_EENS_9allocatorISA_EEE21__on_zero_shared_weakEv, symObjAddr: 0x3238, symBinAddr: 0xFE30, symSize: 0x4 }
  - { offset: 0xDC7B2, size: 0x8, addend: 0x0, symName: __ZNSt3__120__shared_ptr_pointerIPN8firebase9firestore9immutable4impl8LlrbNodeINS2_5model11DocumentKeyENS6_15MutableDocumentEE3RepENS_10shared_ptrISA_E27__shared_ptr_default_deleteISA_SA_EENS_9allocatorISA_EEE21__on_zero_shared_weakEv, symObjAddr: 0x3238, symBinAddr: 0xFE30, symSize: 0x4 }
  - { offset: 0xDC7E7, size: 0x8, addend: 0x0, symName: __ZNSt3__120__shared_ptr_pointerIPN8firebase9firestore9immutable4impl8LlrbNodeINS2_5model11DocumentKeyENS6_15MutableDocumentEE3RepENS_10shared_ptrISA_E27__shared_ptr_default_deleteISA_SA_EENS_9allocatorISA_EEE21__on_zero_shared_weakEv, symObjAddr: 0x3238, symBinAddr: 0xFE30, symSize: 0x4 }
  - { offset: 0xDC844, size: 0x8, addend: 0x0, symName: __ZN8firebase9firestore9immutable4impl8LlrbNodeINS0_5model11DocumentKeyENS4_15MutableDocumentEE3RepD1Ev, symObjAddr: 0x3288, symBinAddr: 0xFE80, symSize: 0x40 }
  - { offset: 0xDCF0D, size: 0x8, addend: 0x0, symName: __ZNK8firebase9firestore9immutable4impl8LlrbNodeINS0_5model11DocumentKeyENS4_15MutableDocumentEE5CloneEv, symObjAddr: 0x368C, symBinAddr: 0x10238, symSize: 0x188 }
  - { offset: 0xDD9CA, size: 0x8, addend: 0x0, symName: __ZN8firebase9firestore9immutable4impl8LlrbNodeINS0_5model11DocumentKeyENS4_15MutableDocumentEE5FixUpEv, symObjAddr: 0x3814, symBinAddr: 0x103C0, symSize: 0xBC }
  - { offset: 0xDDED9, size: 0x8, addend: 0x0, symName: __ZN8firebase9firestore9immutable4impl8LlrbNodeINS0_5model11DocumentKeyENS4_15MutableDocumentEE10RotateLeftEv, symObjAddr: 0x3974, symBinAddr: 0x10520, symSize: 0x1EC }
  - { offset: 0xDEDB8, size: 0x8, addend: 0x0, symName: __ZN8firebase9firestore9immutable4impl8LlrbNodeINS0_5model11DocumentKeyENS4_15MutableDocumentEE11RotateRightEv, symObjAddr: 0x3B60, symBinAddr: 0x1070C, symSize: 0x1EC }
  - { offset: 0xDFC9A, size: 0x8, addend: 0x0, symName: __ZN8firebase9firestore9immutable4impl8LlrbNodeINS0_5model11DocumentKeyENS4_15MutableDocumentEE9FlipColorEv, symObjAddr: 0x3D4C, symBinAddr: 0x108F8, symSize: 0x138 }
  - { offset: 0xE025B, size: 0x8, addend: 0x0, symName: __ZNSt3__120__shared_ptr_emplaceIN8firebase9firestore9immutable4impl8LlrbNodeINS2_5model11DocumentKeyENS6_15MutableDocumentEE3RepENS_9allocatorISA_EEED1Ev, symObjAddr: 0x38D0, symBinAddr: 0x1047C, symSize: 0x14 }
  - { offset: 0xE027D, size: 0x8, addend: 0x0, symName: __ZNSt3__120__shared_ptr_emplaceIN8firebase9firestore9immutable4impl8LlrbNodeINS2_5model11DocumentKeyENS6_15MutableDocumentEE3RepENS_9allocatorISA_EEED1Ev, symObjAddr: 0x38D0, symBinAddr: 0x1047C, symSize: 0x14 }
  - { offset: 0xE02B2, size: 0x8, addend: 0x0, symName: __ZNSt3__120__shared_ptr_emplaceIN8firebase9firestore9immutable4impl8LlrbNodeINS2_5model11DocumentKeyENS6_15MutableDocumentEE3RepENS_9allocatorISA_EEED0Ev, symObjAddr: 0x38E4, symBinAddr: 0x10490, symSize: 0x24 }
  - { offset: 0xE0390, size: 0x8, addend: 0x0, symName: __ZNSt3__120__shared_ptr_emplaceIN8firebase9firestore9immutable4impl8LlrbNodeINS2_5model11DocumentKeyENS6_15MutableDocumentEE3RepENS_9allocatorISA_EEE16__on_zero_sharedEv, symObjAddr: 0x3908, symBinAddr: 0x104B4, symSize: 0x28 }
  - { offset: 0xE0420, size: 0x8, addend: 0x0, symName: __ZNSt3__19allocatorIN8firebase9firestore9immutable4impl8LlrbNodeINS2_5model11DocumentKeyENS6_15MutableDocumentEE3RepEE7destroyB8ne200100EPSA_, symObjAddr: 0x3934, symBinAddr: 0x104E0, symSize: 0x40 }
  - { offset: 0xE06C0, size: 0x8, addend: 0x0, symName: __ZNSt3__120__shared_ptr_emplaceIN8firebase9firestore9immutable4impl8LlrbNodeINS2_5model11DocumentKeyENS6_15MutableDocumentEE3RepENS_9allocatorISA_EEE21__on_zero_shared_weakEv, symObjAddr: 0x3930, symBinAddr: 0x104DC, symSize: 0x4 }
  - { offset: 0xE06F1, size: 0x8, addend: 0x0, symName: __ZNSt3__120__shared_ptr_emplaceIN8firebase9firestore9immutable4impl8LlrbNodeINS2_5model11DocumentKeyENS6_15MutableDocumentEE3RepENS_9allocatorISA_EEE21__on_zero_shared_weakEv, symObjAddr: 0x3930, symBinAddr: 0x104DC, symSize: 0x4 }
  - { offset: 0xE0713, size: 0x8, addend: 0x0, symName: __ZNSt3__120__shared_ptr_emplaceIN8firebase9firestore9immutable4impl8LlrbNodeINS2_5model11DocumentKeyENS6_15MutableDocumentEE3RepENS_9allocatorISA_EEE21__on_zero_shared_weakEv, symObjAddr: 0x3930, symBinAddr: 0x104DC, symSize: 0x4 }
  - { offset: 0xE0736, size: 0x8, addend: 0x0, symName: __ZNSt3__120__shared_ptr_emplaceIN8firebase9firestore9immutable4impl8LlrbNodeINS2_5model11DocumentKeyENS6_15MutableDocumentEE3RepENS_9allocatorISA_EEE21__on_zero_shared_weakEv, symObjAddr: 0x3930, symBinAddr: 0x104DC, symSize: 0x4 }
  - { offset: 0xE076C, size: 0x8, addend: 0x0, symName: __ZNSt3__120__shared_ptr_emplaceIN8firebase9firestore9immutable4impl8LlrbNodeINS2_5model11DocumentKeyENS6_15MutableDocumentEE3RepENS_9allocatorISA_EEE21__on_zero_shared_weakEv, symObjAddr: 0x3930, symBinAddr: 0x104DC, symSize: 0x4 }
  - { offset: 0xE07ED, size: 0x8, addend: 0x0, symName: __ZNSt3__14pairIN8firebase9firestore5model11DocumentKeyENS3_15MutableDocumentEEaSB8ne200100ERKS6_, symObjAddr: 0x3E84, symBinAddr: 0x10A30, symSize: 0x58 }
  - { offset: 0xE09FA, size: 0x8, addend: 0x0, symName: __ZNSt3__14pairIN8firebase9firestore5model11DocumentKeyENS3_15MutableDocumentEEaSB8ne200100EOS6_, symObjAddr: 0x4404, symBinAddr: 0x10ED4, symSize: 0x58 }
  - { offset: 0xE0DAC, size: 0x8, addend: 0x0, symName: __ZNSt3__120__shared_ptr_emplaceIN8firebase9firestore9immutable4impl10FixedArrayINS_4pairINS2_5model11DocumentKeyENS7_15MutableDocumentEEEEENS_9allocatorISB_EEEC2B8ne200100IJPKSA_RSH_ESD_Li0EEESD_DpOT_, symObjAddr: 0x41FC, symBinAddr: 0x10CCC, symSize: 0x54 }
  - { offset: 0xE0FE1, size: 0x8, addend: 0x0, symName: __ZN8firebase9firestore9immutable4impl10FixedArrayINSt3__14pairINS0_5model11DocumentKeyENS6_15MutableDocumentEEEEC2IPKS9_EET_SE_, symObjAddr: 0x42B4, symBinAddr: 0x10D84, symSize: 0xA4 }
  - { offset: 0xE10E3, size: 0x8, addend: 0x0, symName: __ZNSt3__120__shared_ptr_emplaceIN8firebase9firestore9immutable4impl10FixedArrayINS_4pairINS2_5model11DocumentKeyENS7_15MutableDocumentEEEEENS_9allocatorISB_EEED1Ev, symObjAddr: 0x4250, symBinAddr: 0x10D20, symSize: 0x14 }
  - { offset: 0xE1105, size: 0x8, addend: 0x0, symName: __ZNSt3__120__shared_ptr_emplaceIN8firebase9firestore9immutable4impl10FixedArrayINS_4pairINS2_5model11DocumentKeyENS7_15MutableDocumentEEEEENS_9allocatorISB_EEED1Ev, symObjAddr: 0x4250, symBinAddr: 0x10D20, symSize: 0x14 }
  - { offset: 0xE113A, size: 0x8, addend: 0x0, symName: __ZNSt3__120__shared_ptr_emplaceIN8firebase9firestore9immutable4impl10FixedArrayINS_4pairINS2_5model11DocumentKeyENS7_15MutableDocumentEEEEENS_9allocatorISB_EEED0Ev, symObjAddr: 0x4264, symBinAddr: 0x10D34, symSize: 0x24 }
  - { offset: 0xE1204, size: 0x8, addend: 0x0, symName: __ZNSt3__120__shared_ptr_emplaceIN8firebase9firestore9immutable4impl10FixedArrayINS_4pairINS2_5model11DocumentKeyENS7_15MutableDocumentEEEEENS_9allocatorISB_EEE16__on_zero_sharedEv, symObjAddr: 0x4288, symBinAddr: 0x10D58, symSize: 0x28 }
  - { offset: 0xE1294, size: 0x8, addend: 0x0, symName: __ZNSt3__19allocatorIN8firebase9firestore9immutable4impl10FixedArrayINS_4pairINS2_5model11DocumentKeyENS7_15MutableDocumentEEEEEE7destroyB8ne200100EPSB_, symObjAddr: 0x43B0, symBinAddr: 0x10E80, symSize: 0x54 }
  - { offset: 0xE14C9, size: 0x8, addend: 0x0, symName: __ZNSt3__120__shared_ptr_emplaceIN8firebase9firestore9immutable4impl10FixedArrayINS_4pairINS2_5model11DocumentKeyENS7_15MutableDocumentEEEEENS_9allocatorISB_EEE21__on_zero_shared_weakEv, symObjAddr: 0x42B0, symBinAddr: 0x10D80, symSize: 0x4 }
  - { offset: 0xE14FA, size: 0x8, addend: 0x0, symName: __ZNSt3__120__shared_ptr_emplaceIN8firebase9firestore9immutable4impl10FixedArrayINS_4pairINS2_5model11DocumentKeyENS7_15MutableDocumentEEEEENS_9allocatorISB_EEE21__on_zero_shared_weakEv, symObjAddr: 0x42B0, symBinAddr: 0x10D80, symSize: 0x4 }
  - { offset: 0xE151C, size: 0x8, addend: 0x0, symName: __ZNSt3__120__shared_ptr_emplaceIN8firebase9firestore9immutable4impl10FixedArrayINS_4pairINS2_5model11DocumentKeyENS7_15MutableDocumentEEEEENS_9allocatorISB_EEE21__on_zero_shared_weakEv, symObjAddr: 0x42B0, symBinAddr: 0x10D80, symSize: 0x4 }
  - { offset: 0xE153F, size: 0x8, addend: 0x0, symName: __ZNSt3__120__shared_ptr_emplaceIN8firebase9firestore9immutable4impl10FixedArrayINS_4pairINS2_5model11DocumentKeyENS7_15MutableDocumentEEEEENS_9allocatorISB_EEE21__on_zero_shared_weakEv, symObjAddr: 0x42B0, symBinAddr: 0x10D80, symSize: 0x4 }
  - { offset: 0xE1575, size: 0x8, addend: 0x0, symName: __ZNSt3__120__shared_ptr_emplaceIN8firebase9firestore9immutable4impl10FixedArrayINS_4pairINS2_5model11DocumentKeyENS7_15MutableDocumentEEEEENS_9allocatorISB_EEE21__on_zero_shared_weakEv, symObjAddr: 0x42B0, symBinAddr: 0x10D80, symSize: 0x4 }
  - { offset: 0xE15D8, size: 0x8, addend: 0x0, symName: __ZNSt3__15arrayINS_4pairIN8firebase9firestore5model11DocumentKeyENS4_15MutableDocumentEEELm25EED1Ev, symObjAddr: 0x4358, symBinAddr: 0x10E28, symSize: 0x58 }
  - { offset: 0xE1E36, size: 0x8, addend: 0x0, symName: __ZNSt3__112__hash_tableINS_17__hash_value_typeINS_12basic_stringIcNS_11char_traitsIcEENS_9allocatorIcEEEEN8firebase9firestore9immutable9SortedSetINS9_5model11DocumentKeyENS9_4util10ComparatorISD_EEEEEENS_22__unordered_map_hasherIS7_SI_NS_4hashIS7_EENS_8equal_toIS7_EELb1EEENS_21__unordered_map_equalIS7_SI_SN_SL_Lb1EEENS5_ISI_EEE17__deallocate_nodeEPNS_16__hash_node_baseIPNS_11__hash_nodeISI_PvEEEE, symObjAddr: 0x48BC, symBinAddr: 0x11070, symSize: 0x3C }
  - { offset: 0xE221C, size: 0x8, addend: 0x0, symName: __ZNKSt3__18equal_toINS_12basic_stringIcNS_11char_traitsIcEENS_9allocatorIcEEEEEclB8ne200100ERKS6_S9_, symObjAddr: 0x50C4, symBinAddr: 0x113D0, symSize: 0x70 }
  - { offset: 0xE2264, size: 0x8, addend: 0x0, symName: __ZNKSt3__18equal_toINS_12basic_stringIcNS_11char_traitsIcEENS_9allocatorIcEEEEEclB8ne200100ERKS6_S9_, symObjAddr: 0x50C4, symBinAddr: 0x113D0, symSize: 0x70 }
  - { offset: 0xE2294, size: 0x8, addend: 0x0, symName: __ZNKSt3__18equal_toINS_12basic_stringIcNS_11char_traitsIcEENS_9allocatorIcEEEEEclB8ne200100ERKS6_S9_, symObjAddr: 0x50C4, symBinAddr: 0x113D0, symSize: 0x70 }
  - { offset: 0xE22B0, size: 0x8, addend: 0x0, symName: __ZNKSt3__18equal_toINS_12basic_stringIcNS_11char_traitsIcEENS_9allocatorIcEEEEEclB8ne200100ERKS6_S9_, symObjAddr: 0x50C4, symBinAddr: 0x113D0, symSize: 0x70 }
  - { offset: 0xE23B2, size: 0x8, addend: 0x0, symName: __ZNSt3__112__hash_tableINS_17__hash_value_typeINS_12basic_stringIcNS_11char_traitsIcEENS_9allocatorIcEEEEN8firebase9firestore9immutable9SortedSetINS9_5model11DocumentKeyENS9_4util10ComparatorISD_EEEEEENS_22__unordered_map_hasherIS7_SI_NS_4hashIS7_EENS_8equal_toIS7_EELb1EEENS_21__unordered_map_equalIS7_SI_SN_SL_Lb1EEENS5_ISI_EEE21__construct_node_hashIRKNS_21piecewise_construct_tEJNS_5tupleIJRKS7_EEENSX_IJEEEEEENS_10unique_ptrINS_11__hash_nodeISI_PvEENS_22__hash_node_destructorINS5_IS15_EEEEEEmOT_DpOT0_, symObjAddr: 0x4B9C, symBinAddr: 0x11350, symSize: 0x80 }
  - { offset: 0xE2790, size: 0x8, addend: 0x0, symName: __ZNSt3__110unique_ptrINS_11__hash_nodeINS_17__hash_value_typeINS_12basic_stringIcNS_11char_traitsIcEENS_9allocatorIcEEEEN8firebase9firestore9immutable9SortedSetINSA_5model11DocumentKeyENSA_4util10ComparatorISE_EEEEEEPvEENS_22__hash_node_destructorINS6_ISL_EEEEE5resetB8ne200100EPSL_, symObjAddr: 0x5410, symBinAddr: 0x114F0, symSize: 0x48 }
  - { offset: 0xE2BE0, size: 0x8, addend: 0x0, symName: __ZNSt3__14pairIKNS_12basic_stringIcNS_11char_traitsIcEENS_9allocatorIcEEEEN8firebase9firestore9immutable9SortedSetINS9_5model11DocumentKeyENS9_4util10ComparatorISD_EEEEEC2B8ne200100IJRS7_EJEJLm0EEJEEENS_21piecewise_construct_tERNS_5tupleIJDpT_EEERNSM_IJDpT0_EEENS_15__tuple_indicesIJXspT1_EEEENSV_IJXspT2_EEEE, symObjAddr: 0x5134, symBinAddr: 0x11440, symSize: 0xB0 }
  - { offset: 0xE3ADC, size: 0x8, addend: 0x0, symName: __ZNSt3__110unique_ptrINS_11__hash_nodeINS_17__hash_value_typeINS_12basic_stringIcNS_11char_traitsIcEENS_9allocatorIcEEEEN8firebase9firestore9immutable9SortedSetINSA_5model11DocumentKeyENSA_4util10ComparatorISE_EEEEEEPvEENS_22__hash_node_destructorINS6_ISL_EEEEE5resetB8ne200100EPSL_, symObjAddr: 0x5410, symBinAddr: 0x114F0, symSize: 0x48 }
  - { offset: 0xE3BE4, size: 0x8, addend: 0x0, symName: __ZZN8firebase9firestore9immutable4impl14ArraySortedMapINS0_5model11DocumentKeyENS0_4util5EmptyENS6_10ComparatorIS5_EEE10EmptyArrayEvENKUlvE_clEv, symObjAddr: 0x54F8, symBinAddr: 0x115D8, symSize: 0x5C }
  - { offset: 0xE3CCF, size: 0x8, addend: 0x0, symName: __ZN8firebase9firestore9immutable4impl10FixedArrayINSt3__14pairINS0_5model11DocumentKeyENS0_4util5EmptyEEEEC2Ev, symObjAddr: 0x5554, symBinAddr: 0x11634, symSize: 0x70 }
  - { offset: 0xE3DD2, size: 0x8, addend: 0x0, symName: __ZNSt3__110shared_ptrIKN8firebase9firestore9immutable4impl10FixedArrayINS_4pairINS2_5model11DocumentKeyENS2_4util5EmptyEEEEEEC2B8ne200100ISC_Li0EEEPT_, symObjAddr: 0x55C4, symBinAddr: 0x116A4, symSize: 0x7C }
  - { offset: 0xE41FA, size: 0x8, addend: 0x0, symName: __ZNSt3__110unique_ptrIN8firebase9firestore9immutable4impl10FixedArrayINS_4pairINS2_5model11DocumentKeyENS2_4util5EmptyEEEEENS_14default_deleteISC_EEE5resetB8ne200100EPSC_, symObjAddr: 0x56DC, symBinAddr: 0x117BC, symSize: 0x4C }
  - { offset: 0xE43E3, size: 0x8, addend: 0x0, symName: __ZNSt3__120__shared_ptr_pointerIPN8firebase9firestore9immutable4impl10FixedArrayINS_4pairINS2_5model11DocumentKeyENS2_4util5EmptyEEEEENS_10shared_ptrIKSC_E27__shared_ptr_default_deleteISF_SC_EENS_9allocatorISC_EEED1Ev, symObjAddr: 0x5640, symBinAddr: 0x11720, symSize: 0x4 }
  - { offset: 0xE4405, size: 0x8, addend: 0x0, symName: __ZNSt3__120__shared_ptr_pointerIPN8firebase9firestore9immutable4impl10FixedArrayINS_4pairINS2_5model11DocumentKeyENS2_4util5EmptyEEEEENS_10shared_ptrIKSC_E27__shared_ptr_default_deleteISF_SC_EENS_9allocatorISC_EEED1Ev, symObjAddr: 0x5640, symBinAddr: 0x11720, symSize: 0x4 }
  - { offset: 0xE443A, size: 0x8, addend: 0x0, symName: __ZNSt3__120__shared_ptr_pointerIPN8firebase9firestore9immutable4impl10FixedArrayINS_4pairINS2_5model11DocumentKeyENS2_4util5EmptyEEEEENS_10shared_ptrIKSC_E27__shared_ptr_default_deleteISF_SC_EENS_9allocatorISC_EEED0Ev, symObjAddr: 0x5644, symBinAddr: 0x11724, symSize: 0x14 }
  - { offset: 0xE449B, size: 0x8, addend: 0x0, symName: __ZNSt3__120__shared_ptr_pointerIPN8firebase9firestore9immutable4impl10FixedArrayINS_4pairINS2_5model11DocumentKeyENS2_4util5EmptyEEEEENS_10shared_ptrIKSC_E27__shared_ptr_default_deleteISF_SC_EENS_9allocatorISC_EEE16__on_zero_sharedEv, symObjAddr: 0x5658, symBinAddr: 0x11738, symSize: 0x8 }
  - { offset: 0xE44D5, size: 0x8, addend: 0x0, symName: __ZNKSt3__114default_deleteIN8firebase9firestore9immutable4impl10FixedArrayINS_4pairINS2_5model11DocumentKeyENS2_4util5EmptyEEEEEEclB8ne200100EPSC_, symObjAddr: 0x569C, symBinAddr: 0x1177C, symSize: 0x40 }
  - { offset: 0xE4667, size: 0x8, addend: 0x0, symName: __ZNKSt3__120__shared_ptr_pointerIPN8firebase9firestore9immutable4impl10FixedArrayINS_4pairINS2_5model11DocumentKeyENS2_4util5EmptyEEEEENS_10shared_ptrIKSC_E27__shared_ptr_default_deleteISF_SC_EENS_9allocatorISC_EEE13__get_deleterERKSt9type_info, symObjAddr: 0x5660, symBinAddr: 0x11740, symSize: 0x38 }
  - { offset: 0xE4707, size: 0x8, addend: 0x0, symName: __ZNSt3__120__shared_ptr_pointerIPN8firebase9firestore9immutable4impl10FixedArrayINS_4pairINS2_5model11DocumentKeyENS2_4util5EmptyEEEEENS_10shared_ptrIKSC_E27__shared_ptr_default_deleteISF_SC_EENS_9allocatorISC_EEE21__on_zero_shared_weakEv, symObjAddr: 0x5698, symBinAddr: 0x11778, symSize: 0x4 }
  - { offset: 0xE4738, size: 0x8, addend: 0x0, symName: __ZNSt3__120__shared_ptr_pointerIPN8firebase9firestore9immutable4impl10FixedArrayINS_4pairINS2_5model11DocumentKeyENS2_4util5EmptyEEEEENS_10shared_ptrIKSC_E27__shared_ptr_default_deleteISF_SC_EENS_9allocatorISC_EEE21__on_zero_shared_weakEv, symObjAddr: 0x5698, symBinAddr: 0x11778, symSize: 0x4 }
  - { offset: 0xE475A, size: 0x8, addend: 0x0, symName: __ZNSt3__120__shared_ptr_pointerIPN8firebase9firestore9immutable4impl10FixedArrayINS_4pairINS2_5model11DocumentKeyENS2_4util5EmptyEEEEENS_10shared_ptrIKSC_E27__shared_ptr_default_deleteISF_SC_EENS_9allocatorISC_EEE21__on_zero_shared_weakEv, symObjAddr: 0x5698, symBinAddr: 0x11778, symSize: 0x4 }
  - { offset: 0xE478F, size: 0x8, addend: 0x0, symName: __ZNSt3__120__shared_ptr_pointerIPN8firebase9firestore9immutable4impl10FixedArrayINS_4pairINS2_5model11DocumentKeyENS2_4util5EmptyEEEEENS_10shared_ptrIKSC_E27__shared_ptr_default_deleteISF_SC_EENS_9allocatorISC_EEE21__on_zero_shared_weakEv, symObjAddr: 0x5698, symBinAddr: 0x11778, symSize: 0x4 }
  - { offset: 0xE4845, size: 0x8, addend: 0x0, symName: __ZNSt3__112__hash_tableINS_17__hash_value_typeINS_12basic_stringIcNS_11char_traitsIcEENS_9allocatorIcEEEEN8firebase9firestore9immutable9SortedSetINS9_5model11DocumentKeyENS9_4util10ComparatorISD_EEEEEENS_22__unordered_map_hasherIS7_SI_NS_4hashIS7_EENS_8equal_toIS7_EELb1EEENS_21__unordered_map_equalIS7_SI_SN_SL_Lb1EEENS5_ISI_EEE21__construct_node_hashIRKS7_JSH_EEENS_10unique_ptrINS_11__hash_nodeISI_PvEENS_22__hash_node_destructorINS5_ISZ_EEEEEEmOT_DpOT0_, symObjAddr: 0x5980, symBinAddr: 0x11A60, symSize: 0x7C }
  - { offset: 0xE4C3A, size: 0x8, addend: 0x0, symName: __ZNSt3__14pairIKNS_12basic_stringIcNS_11char_traitsIcEENS_9allocatorIcEEEEN8firebase9firestore9immutable9SortedSetINS9_5model11DocumentKeyENS9_4util10ComparatorISD_EEEEEC2B8ne200100IRS7_SH_Li0EEEOT_OT0_, symObjAddr: 0x59FC, symBinAddr: 0x11ADC, symSize: 0x94 }
  - { offset: 0xE4F3E, size: 0x8, addend: 0x0, symName: __ZN8firebase9firestore9immutable4impl13TreeSortedMapINS0_5model11DocumentKeyENS0_4util5EmptyENS6_10ComparatorIS5_EEE6CreateINS2_14ArraySortedMapIS5_S7_S9_EEEESA_RKT_RKS9_, symObjAddr: 0x5BF0, symBinAddr: 0x11CD0, symSize: 0x148 }
  - { offset: 0xE559E, size: 0x8, addend: 0x0, symName: __ZNK8firebase9firestore9immutable4impl13TreeSortedMapINS0_5model11DocumentKeyENS0_4util5EmptyENS6_10ComparatorIS5_EEE6insertERKS5_RKS7_, symObjAddr: 0x5D38, symBinAddr: 0x11E18, symSize: 0x50 }
  - { offset: 0xE577A, size: 0x8, addend: 0x0, symName: __ZNK8firebase9firestore9immutable4impl14ArraySortedMapINS0_5model11DocumentKeyENS0_4util5EmptyENS6_10ComparatorIS5_EEE6insertERKS5_RKS7_, symObjAddr: 0x5D88, symBinAddr: 0x11E68, symSize: 0x20C }
  - { offset: 0xE622C, size: 0x8, addend: 0x0, symName: __ZNK8firebase9firestore9immutable4impl8LlrbNodeINS0_5model11DocumentKeyENS0_4util5EmptyEE11InnerInsertINS6_10ComparatorIS5_EEEES8_RKS5_RKS7_RKT_, symObjAddr: 0x629C, symBinAddr: 0x12304, symSize: 0x28C }
  - { offset: 0xE766D, size: 0x8, addend: 0x0, symName: __ZNK8firebase9firestore9immutable4impl14ArraySortedMapINS0_5model11DocumentKeyENS0_4util5EmptyENS6_10ComparatorIS5_EEE11lower_boundERKS5_, symObjAddr: 0x6C18, symBinAddr: 0x12C80, symSize: 0x7C }
  - { offset: 0xE78DB, size: 0x8, addend: 0x0, symName: __ZN8firebase9firestore9immutable4impl10FixedArrayINSt3__14pairINS0_5model11DocumentKeyENS0_4util5EmptyEEEE6appendEOSA_, symObjAddr: 0x6C94, symBinAddr: 0x12CFC, symSize: 0x90 }
  - { offset: 0xE7B1C, size: 0x8, addend: 0x0, symName: __ZN8firebase9firestore9immutable4impl10FixedArrayINSt3__14pairINS0_5model11DocumentKeyENS0_4util5EmptyEEEE6appendIPKSA_EEvT_SF_, symObjAddr: 0x6D24, symBinAddr: 0x12D8C, symSize: 0xD8 }
  - { offset: 0xE7E7A, size: 0x8, addend: 0x0, symName: __ZZN8firebase9firestore9immutable4impl8LlrbNodeINS0_5model11DocumentKeyENS0_4util5EmptyEE8EmptyRepEvENKUlvE_clEv, symObjAddr: 0x6010, symBinAddr: 0x120F0, symSize: 0xDC }
  - { offset: 0xE8254, size: 0x8, addend: 0x0, symName: __ZNSt3__110shared_ptrIN8firebase9firestore9immutable4impl8LlrbNodeINS2_5model11DocumentKeyENS2_4util5EmptyEE3RepEEC2B8ne200100ISB_Li0EEEPT_, symObjAddr: 0x6164, symBinAddr: 0x121CC, symSize: 0x70 }
  - { offset: 0xE85CA, size: 0x8, addend: 0x0, symName: __ZNKSt3__114default_deleteIN8firebase9firestore9immutable4impl8LlrbNodeINS2_5model11DocumentKeyENS2_4util5EmptyEE3RepEEclB8ne200100EPSB_, symObjAddr: 0x6230, symBinAddr: 0x12298, symSize: 0x3C }
  - { offset: 0xE878F, size: 0x8, addend: 0x0, symName: __ZNSt3__120__shared_ptr_pointerIPN8firebase9firestore9immutable4impl8LlrbNodeINS2_5model11DocumentKeyENS2_4util5EmptyEE3RepENS_10shared_ptrISB_E27__shared_ptr_default_deleteISB_SB_EENS_9allocatorISB_EEED1Ev, symObjAddr: 0x61D4, symBinAddr: 0x1223C, symSize: 0x4 }
  - { offset: 0xE87B1, size: 0x8, addend: 0x0, symName: __ZNSt3__120__shared_ptr_pointerIPN8firebase9firestore9immutable4impl8LlrbNodeINS2_5model11DocumentKeyENS2_4util5EmptyEE3RepENS_10shared_ptrISB_E27__shared_ptr_default_deleteISB_SB_EENS_9allocatorISB_EEED1Ev, symObjAddr: 0x61D4, symBinAddr: 0x1223C, symSize: 0x4 }
  - { offset: 0xE87E6, size: 0x8, addend: 0x0, symName: __ZNSt3__120__shared_ptr_pointerIPN8firebase9firestore9immutable4impl8LlrbNodeINS2_5model11DocumentKeyENS2_4util5EmptyEE3RepENS_10shared_ptrISB_E27__shared_ptr_default_deleteISB_SB_EENS_9allocatorISB_EEED0Ev, symObjAddr: 0x61D8, symBinAddr: 0x12240, symSize: 0x14 }
  - { offset: 0xE8847, size: 0x8, addend: 0x0, symName: __ZNSt3__120__shared_ptr_pointerIPN8firebase9firestore9immutable4impl8LlrbNodeINS2_5model11DocumentKeyENS2_4util5EmptyEE3RepENS_10shared_ptrISB_E27__shared_ptr_default_deleteISB_SB_EENS_9allocatorISB_EEE16__on_zero_sharedEv, symObjAddr: 0x61EC, symBinAddr: 0x12254, symSize: 0x8 }
  - { offset: 0xE8880, size: 0x8, addend: 0x0, symName: __ZNKSt3__120__shared_ptr_pointerIPN8firebase9firestore9immutable4impl8LlrbNodeINS2_5model11DocumentKeyENS2_4util5EmptyEE3RepENS_10shared_ptrISB_E27__shared_ptr_default_deleteISB_SB_EENS_9allocatorISB_EEE13__get_deleterERKSt9type_info, symObjAddr: 0x61F4, symBinAddr: 0x1225C, symSize: 0x38 }
  - { offset: 0xE8920, size: 0x8, addend: 0x0, symName: __ZNSt3__120__shared_ptr_pointerIPN8firebase9firestore9immutable4impl8LlrbNodeINS2_5model11DocumentKeyENS2_4util5EmptyEE3RepENS_10shared_ptrISB_E27__shared_ptr_default_deleteISB_SB_EENS_9allocatorISB_EEE21__on_zero_shared_weakEv, symObjAddr: 0x622C, symBinAddr: 0x12294, symSize: 0x4 }
  - { offset: 0xE8951, size: 0x8, addend: 0x0, symName: __ZNSt3__120__shared_ptr_pointerIPN8firebase9firestore9immutable4impl8LlrbNodeINS2_5model11DocumentKeyENS2_4util5EmptyEE3RepENS_10shared_ptrISB_E27__shared_ptr_default_deleteISB_SB_EENS_9allocatorISB_EEE21__on_zero_shared_weakEv, symObjAddr: 0x622C, symBinAddr: 0x12294, symSize: 0x4 }
  - { offset: 0xE8973, size: 0x8, addend: 0x0, symName: __ZNSt3__120__shared_ptr_pointerIPN8firebase9firestore9immutable4impl8LlrbNodeINS2_5model11DocumentKeyENS2_4util5EmptyEE3RepENS_10shared_ptrISB_E27__shared_ptr_default_deleteISB_SB_EENS_9allocatorISB_EEE21__on_zero_shared_weakEv, symObjAddr: 0x622C, symBinAddr: 0x12294, symSize: 0x4 }
  - { offset: 0xE89A8, size: 0x8, addend: 0x0, symName: __ZNSt3__120__shared_ptr_pointerIPN8firebase9firestore9immutable4impl8LlrbNodeINS2_5model11DocumentKeyENS2_4util5EmptyEE3RepENS_10shared_ptrISB_E27__shared_ptr_default_deleteISB_SB_EENS_9allocatorISB_EEE21__on_zero_shared_weakEv, symObjAddr: 0x622C, symBinAddr: 0x12294, symSize: 0x4 }
  - { offset: 0xE8A05, size: 0x8, addend: 0x0, symName: __ZN8firebase9firestore9immutable4impl8LlrbNodeINS0_5model11DocumentKeyENS0_4util5EmptyEE3RepD1Ev, symObjAddr: 0x626C, symBinAddr: 0x122D4, symSize: 0x30 }
  - { offset: 0xE8FCC, size: 0x8, addend: 0x0, symName: __ZNK8firebase9firestore9immutable4impl8LlrbNodeINS0_5model11DocumentKeyENS0_4util5EmptyEE5CloneEv, symObjAddr: 0x6528, symBinAddr: 0x12590, symSize: 0x120 }
  - { offset: 0xE97AA, size: 0x8, addend: 0x0, symName: __ZN8firebase9firestore9immutable4impl8LlrbNodeINS0_5model11DocumentKeyENS0_4util5EmptyEE5FixUpEv, symObjAddr: 0x6648, symBinAddr: 0x126B0, symSize: 0xBC }
  - { offset: 0xE9BAD, size: 0x8, addend: 0x0, symName: __ZN8firebase9firestore9immutable4impl8LlrbNodeINS0_5model11DocumentKeyENS0_4util5EmptyEE10RotateLeftEv, symObjAddr: 0x6770, symBinAddr: 0x127D8, symSize: 0x1B8 }
  - { offset: 0xEA8FA, size: 0x8, addend: 0x0, symName: __ZN8firebase9firestore9immutable4impl8LlrbNodeINS0_5model11DocumentKeyENS0_4util5EmptyEE11RotateRightEv, symObjAddr: 0x6928, symBinAddr: 0x12990, symSize: 0x1B8 }
  - { offset: 0xEB64E, size: 0x8, addend: 0x0, symName: __ZN8firebase9firestore9immutable4impl8LlrbNodeINS0_5model11DocumentKeyENS0_4util5EmptyEE9FlipColorEv, symObjAddr: 0x6AE0, symBinAddr: 0x12B48, symSize: 0x138 }
  - { offset: 0xEBC0D, size: 0x8, addend: 0x0, symName: __ZNSt3__120__shared_ptr_emplaceIN8firebase9firestore9immutable4impl8LlrbNodeINS2_5model11DocumentKeyENS2_4util5EmptyEE3RepENS_9allocatorISB_EEED1Ev, symObjAddr: 0x6704, symBinAddr: 0x1276C, symSize: 0x14 }
  - { offset: 0xEBC2F, size: 0x8, addend: 0x0, symName: __ZNSt3__120__shared_ptr_emplaceIN8firebase9firestore9immutable4impl8LlrbNodeINS2_5model11DocumentKeyENS2_4util5EmptyEE3RepENS_9allocatorISB_EEED1Ev, symObjAddr: 0x6704, symBinAddr: 0x1276C, symSize: 0x14 }
  - { offset: 0xEBC64, size: 0x8, addend: 0x0, symName: __ZNSt3__120__shared_ptr_emplaceIN8firebase9firestore9immutable4impl8LlrbNodeINS2_5model11DocumentKeyENS2_4util5EmptyEE3RepENS_9allocatorISB_EEED0Ev, symObjAddr: 0x6718, symBinAddr: 0x12780, symSize: 0x24 }
  - { offset: 0xEBD61, size: 0x8, addend: 0x0, symName: __ZNSt3__120__shared_ptr_emplaceIN8firebase9firestore9immutable4impl8LlrbNodeINS2_5model11DocumentKeyENS2_4util5EmptyEE3RepENS_9allocatorISB_EEE16__on_zero_sharedEv, symObjAddr: 0x673C, symBinAddr: 0x127A4, symSize: 0x30 }
  - { offset: 0xEBF62, size: 0x8, addend: 0x0, symName: __ZNSt3__120__shared_ptr_emplaceIN8firebase9firestore9immutable4impl8LlrbNodeINS2_5model11DocumentKeyENS2_4util5EmptyEE3RepENS_9allocatorISB_EEE21__on_zero_shared_weakEv, symObjAddr: 0x676C, symBinAddr: 0x127D4, symSize: 0x4 }
  - { offset: 0xEBF93, size: 0x8, addend: 0x0, symName: __ZNSt3__120__shared_ptr_emplaceIN8firebase9firestore9immutable4impl8LlrbNodeINS2_5model11DocumentKeyENS2_4util5EmptyEE3RepENS_9allocatorISB_EEE21__on_zero_shared_weakEv, symObjAddr: 0x676C, symBinAddr: 0x127D4, symSize: 0x4 }
  - { offset: 0xEBFB5, size: 0x8, addend: 0x0, symName: __ZNSt3__120__shared_ptr_emplaceIN8firebase9firestore9immutable4impl8LlrbNodeINS2_5model11DocumentKeyENS2_4util5EmptyEE3RepENS_9allocatorISB_EEE21__on_zero_shared_weakEv, symObjAddr: 0x676C, symBinAddr: 0x127D4, symSize: 0x4 }
  - { offset: 0xEBFD8, size: 0x8, addend: 0x0, symName: __ZNSt3__120__shared_ptr_emplaceIN8firebase9firestore9immutable4impl8LlrbNodeINS2_5model11DocumentKeyENS2_4util5EmptyEE3RepENS_9allocatorISB_EEE21__on_zero_shared_weakEv, symObjAddr: 0x676C, symBinAddr: 0x127D4, symSize: 0x4 }
  - { offset: 0xEC00D, size: 0x8, addend: 0x0, symName: __ZNSt3__120__shared_ptr_emplaceIN8firebase9firestore9immutable4impl8LlrbNodeINS2_5model11DocumentKeyENS2_4util5EmptyEE3RepENS_9allocatorISB_EEE21__on_zero_shared_weakEv, symObjAddr: 0x676C, symBinAddr: 0x127D4, symSize: 0x4 }
  - { offset: 0xEC47C, size: 0x8, addend: 0x0, symName: __ZNSt3__120__shared_ptr_emplaceIN8firebase9firestore9immutable4impl10FixedArrayINS_4pairINS2_5model11DocumentKeyENS2_4util5EmptyEEEEENS_9allocatorISC_EEEC2B8ne200100IJPKSB_RSI_ESE_Li0EEESE_DpOT_, symObjAddr: 0x6E5C, symBinAddr: 0x12EC4, symSize: 0x54 }
  - { offset: 0xEC6B1, size: 0x8, addend: 0x0, symName: __ZN8firebase9firestore9immutable4impl10FixedArrayINSt3__14pairINS0_5model11DocumentKeyENS0_4util5EmptyEEEEC2IPKSA_EET_SF_, symObjAddr: 0x6F1C, symBinAddr: 0x12F84, symSize: 0xB4 }
  - { offset: 0xEC8C7, size: 0x8, addend: 0x0, symName: __ZNSt3__120__shared_ptr_emplaceIN8firebase9firestore9immutable4impl10FixedArrayINS_4pairINS2_5model11DocumentKeyENS2_4util5EmptyEEEEENS_9allocatorISC_EEED1Ev, symObjAddr: 0x6EB0, symBinAddr: 0x12F18, symSize: 0x14 }
  - { offset: 0xEC8E9, size: 0x8, addend: 0x0, symName: __ZNSt3__120__shared_ptr_emplaceIN8firebase9firestore9immutable4impl10FixedArrayINS_4pairINS2_5model11DocumentKeyENS2_4util5EmptyEEEEENS_9allocatorISC_EEED1Ev, symObjAddr: 0x6EB0, symBinAddr: 0x12F18, symSize: 0x14 }
  - { offset: 0xEC91E, size: 0x8, addend: 0x0, symName: __ZNSt3__120__shared_ptr_emplaceIN8firebase9firestore9immutable4impl10FixedArrayINS_4pairINS2_5model11DocumentKeyENS2_4util5EmptyEEEEENS_9allocatorISC_EEED0Ev, symObjAddr: 0x6EC4, symBinAddr: 0x12F2C, symSize: 0x24 }
  - { offset: 0xECA07, size: 0x8, addend: 0x0, symName: __ZNSt3__120__shared_ptr_emplaceIN8firebase9firestore9immutable4impl10FixedArrayINS_4pairINS2_5model11DocumentKeyENS2_4util5EmptyEEEEENS_9allocatorISC_EEE16__on_zero_sharedEv, symObjAddr: 0x6EE8, symBinAddr: 0x12F50, symSize: 0x30 }
  - { offset: 0xECB74, size: 0x8, addend: 0x0, symName: __ZNSt3__120__shared_ptr_emplaceIN8firebase9firestore9immutable4impl10FixedArrayINS_4pairINS2_5model11DocumentKeyENS2_4util5EmptyEEEEENS_9allocatorISC_EEE21__on_zero_shared_weakEv, symObjAddr: 0x6F18, symBinAddr: 0x12F80, symSize: 0x4 }
  - { offset: 0xECBA5, size: 0x8, addend: 0x0, symName: __ZNSt3__120__shared_ptr_emplaceIN8firebase9firestore9immutable4impl10FixedArrayINS_4pairINS2_5model11DocumentKeyENS2_4util5EmptyEEEEENS_9allocatorISC_EEE21__on_zero_shared_weakEv, symObjAddr: 0x6F18, symBinAddr: 0x12F80, symSize: 0x4 }
  - { offset: 0xECBC7, size: 0x8, addend: 0x0, symName: __ZNSt3__120__shared_ptr_emplaceIN8firebase9firestore9immutable4impl10FixedArrayINS_4pairINS2_5model11DocumentKeyENS2_4util5EmptyEEEEENS_9allocatorISC_EEE21__on_zero_shared_weakEv, symObjAddr: 0x6F18, symBinAddr: 0x12F80, symSize: 0x4 }
  - { offset: 0xECBEA, size: 0x8, addend: 0x0, symName: __ZNSt3__120__shared_ptr_emplaceIN8firebase9firestore9immutable4impl10FixedArrayINS_4pairINS2_5model11DocumentKeyENS2_4util5EmptyEEEEENS_9allocatorISC_EEE21__on_zero_shared_weakEv, symObjAddr: 0x6F18, symBinAddr: 0x12F80, symSize: 0x4 }
  - { offset: 0xECC20, size: 0x8, addend: 0x0, symName: __ZNSt3__120__shared_ptr_emplaceIN8firebase9firestore9immutable4impl10FixedArrayINS_4pairINS2_5model11DocumentKeyENS2_4util5EmptyEEEEENS_9allocatorISC_EEE21__on_zero_shared_weakEv, symObjAddr: 0x6F18, symBinAddr: 0x12F80, symSize: 0x4 }
  - { offset: 0xEEACC, size: 0x8, addend: 0x0, symName: __ZNSt3__1L19piecewise_constructE, symObjAddr: 0xC869, symBinAddr: 0x160109, symSize: 0x0 }
  - { offset: 0x100A40, size: 0x8, addend: 0x0, symName: __ZNSt3__119__allocate_at_leastB8ne200100INS_9allocatorImEEEENS_19__allocation_resultINS_16allocator_traitsIT_E7pointerEEERS5_m, symObjAddr: 0x4F7C, symBinAddr: 0x17CC0, symSize: 0x34 }
  - { offset: 0x100AE6, size: 0x8, addend: 0x0, symName: __ZNSt3__124__copy_move_unwrap_itersB8ne200100INS_11__copy_implENS_14__bit_iteratorINS_6vectorIbNS_9allocatorIbEEEELb0ELm0EEES7_S7_Li0EEENS_4pairIT0_T2_EES9_T1_SA_, symObjAddr: 0x4FB0, symBinAddr: 0x17CF4, symSize: 0x8C }
  - { offset: 0x100C19, size: 0x8, addend: 0x0, symName: __ZNSt3__124__copy_move_unwrap_itersB8ne200100INS_11__copy_implENS_14__bit_iteratorINS_6vectorIbNS_9allocatorIbEEEELb0ELm0EEES7_S7_Li0EEENS_4pairIT0_T2_EES9_T1_SA_, symObjAddr: 0x4FB0, symBinAddr: 0x17CF4, symSize: 0x8C }
  - { offset: 0x1012FD, size: 0x8, addend: 0x0, symName: __ZNK8nlohmann6detail9iter_implINS_10basic_jsonINSt3__13mapENS3_6vectorENS3_12basic_stringIcNS3_11char_traitsIcEENS3_9allocatorIcEEEEbxydS9_NS_14adl_serializerENS5_IhNS9_IhEEEEEEEptEv, symObjAddr: 0x6254, symBinAddr: 0x18EBC, symSize: 0x114 }
  - { offset: 0x1013E3, size: 0x8, addend: 0x0, symName: __ZNSt3__134__uninitialized_allocator_relocateB8ne200100INS_9allocatorIN8nlohmann10basic_jsonINS_3mapENS_6vectorENS_12basic_stringIcNS_11char_traitsIcEENS1_IcEEEEbxydS1_NS2_14adl_serializerENS5_IhNS1_IhEEEEEEEEPSE_EEvRT_T0_SJ_SJ_, symObjAddr: 0x6008, symBinAddr: 0x18CB8, symSize: 0xDC }
  - { offset: 0x1013F7, size: 0x8, addend: 0x0, symName: __ZNSt3__134__uninitialized_allocator_relocateB8ne200100INS_9allocatorIN8nlohmann10basic_jsonINS_3mapENS_6vectorENS_12basic_stringIcNS_11char_traitsIcEENS1_IcEEEEbxydS1_NS2_14adl_serializerENS5_IhNS1_IhEEEEEEEEPSE_EEvRT_T0_SJ_SJ_, symObjAddr: 0x6008, symBinAddr: 0x18CB8, symSize: 0xDC }
  - { offset: 0x101760, size: 0x8, addend: 0x0, symName: __ZNSt3__119__allocator_destroyB8ne200100INS_9allocatorIN8nlohmann10basic_jsonINS_3mapENS_6vectorENS_12basic_stringIcNS_11char_traitsIcEENS1_IcEEEEbxydS1_NS2_14adl_serializerENS5_IhNS1_IhEEEEEEEENS_16reverse_iteratorIPSE_EESI_EEvRT_T0_T1_, symObjAddr: 0x612C, symBinAddr: 0x18DDC, symSize: 0x54 }
  - { offset: 0x101D78, size: 0x8, addend: 0x0, symName: __ZNSt3__112__destroy_atB8ne200100INS_4pairIKNS_12basic_stringIcNS_11char_traitsIcEENS_9allocatorIcEEEEN8nlohmann10basic_jsonINS_3mapENS_6vectorES7_bxydS5_NS9_14adl_serializerENSC_IhNS5_IhEEEEEEEELi0EEEvPT_, symObjAddr: 0x6EDC, symBinAddr: 0x19B44, symSize: 0x48 }
  - { offset: 0x102430, size: 0x8, addend: 0x0, symName: __ZNSt3__127__tree_balance_after_insertB8ne200100IPNS_16__tree_node_baseIPvEEEEvT_S5_, symObjAddr: 0x6CF8, symBinAddr: 0x19960, symSize: 0x19C }
  - { offset: 0x102AF1, size: 0x8, addend: 0x0, symName: __ZNSt3__135__uninitialized_allocator_copy_implB8ne200100INS_9allocatorIN8nlohmann10basic_jsonINS_3mapENS_6vectorENS_12basic_stringIcNS_11char_traitsIcEENS1_IcEEEEbxydS1_NS2_14adl_serializerENS5_IhNS1_IhEEEEEEEEPSE_SG_SG_EET2_RT_T0_T1_SH_, symObjAddr: 0x709C, symBinAddr: 0x19CCC, symSize: 0xA0 }
  - { offset: 0x1034CA, size: 0x8, addend: 0x0, symName: __ZNSt3__113__tree_removeB8ne200100IPNS_16__tree_node_baseIPvEEEEvT_S5_, symObjAddr: 0x7958, symBinAddr: 0x1A574, symSize: 0x380 }
  - { offset: 0x103DC9, size: 0x8, addend: 0x0, symName: __ZNSt3__120__throw_out_of_rangeB8ne200100EPKc, symObjAddr: 0xB120, symBinAddr: 0x1D768, symSize: 0x50 }
  - { offset: 0x10F9B6, size: 0x8, addend: 0x0, symName: __ZN8firebase9firestore6bundle12BundleReaderC2ENS1_16BundleSerializerENSt3__110unique_ptrINS0_4util10ByteStreamENS4_14default_deleteIS7_EEEE, symObjAddr: 0x0, symBinAddr: 0x13038, symSize: 0x54 }
  - { offset: 0x10F9E8, size: 0x8, addend: 0x0, symName: __ZN8firebase9firestore6bundle12BundleReaderC2ENS1_16BundleSerializerENSt3__110unique_ptrINS0_4util10ByteStreamENS4_14default_deleteIS7_EEEE, symObjAddr: 0x0, symBinAddr: 0x13038, symSize: 0x54 }
  - { offset: 0x10FA0A, size: 0x8, addend: 0x0, symName: __ZN8firebase9firestore6bundle12BundleReaderC2ENS1_16BundleSerializerENSt3__110unique_ptrINS0_4util10ByteStreamENS4_14default_deleteIS7_EEEE, symObjAddr: 0x0, symBinAddr: 0x13038, symSize: 0x54 }
  - { offset: 0x10FA2C, size: 0x8, addend: 0x0, symName: __ZN8firebase9firestore6bundle12BundleReaderC2ENS1_16BundleSerializerENSt3__110unique_ptrINS0_4util10ByteStreamENS4_14default_deleteIS7_EEEE, symObjAddr: 0x0, symBinAddr: 0x13038, symSize: 0x54 }
  - { offset: 0x10FA4E, size: 0x8, addend: 0x0, symName: __ZN8firebase9firestore6bundle12BundleReaderC2ENS1_16BundleSerializerENSt3__110unique_ptrINS0_4util10ByteStreamENS4_14default_deleteIS7_EEEE, symObjAddr: 0x0, symBinAddr: 0x13038, symSize: 0x54 }
  - { offset: 0x10FA70, size: 0x8, addend: 0x0, symName: __ZN8firebase9firestore6bundle12BundleReaderC2ENS1_16BundleSerializerENSt3__110unique_ptrINS0_4util10ByteStreamENS4_14default_deleteIS7_EEEE, symObjAddr: 0x0, symBinAddr: 0x13038, symSize: 0x54 }
  - { offset: 0x10FA92, size: 0x8, addend: 0x0, symName: __ZN8firebase9firestore6bundle12BundleReaderC2ENS1_16BundleSerializerENSt3__110unique_ptrINS0_4util10ByteStreamENS4_14default_deleteIS7_EEEE, symObjAddr: 0x0, symBinAddr: 0x13038, symSize: 0x54 }
  - { offset: 0x10FAB4, size: 0x8, addend: 0x0, symName: __ZN8firebase9firestore6bundle12BundleReaderC2ENS1_16BundleSerializerENSt3__110unique_ptrINS0_4util10ByteStreamENS4_14default_deleteIS7_EEEE, symObjAddr: 0x0, symBinAddr: 0x13038, symSize: 0x54 }
  - { offset: 0x10FAD6, size: 0x8, addend: 0x0, symName: __ZN8firebase9firestore6bundle12BundleReaderC2ENS1_16BundleSerializerENSt3__110unique_ptrINS0_4util10ByteStreamENS4_14default_deleteIS7_EEEE, symObjAddr: 0x0, symBinAddr: 0x13038, symSize: 0x54 }
  - { offset: 0x10FD31, size: 0x8, addend: 0x0, symName: __ZN8firebase9firestore6bundle12BundleReaderC1ENS1_16BundleSerializerENSt3__110unique_ptrINS0_4util10ByteStreamENS4_14default_deleteIS7_EEEE, symObjAddr: 0x54, symBinAddr: 0x1308C, symSize: 0x54 }
  - { offset: 0x10FD78, size: 0x8, addend: 0x0, symName: __ZN8firebase9firestore6bundle12BundleReaderC1ENS1_16BundleSerializerENSt3__110unique_ptrINS0_4util10ByteStreamENS4_14default_deleteIS7_EEEE, symObjAddr: 0x54, symBinAddr: 0x1308C, symSize: 0x54 }
  - { offset: 0x10FDA3, size: 0x8, addend: 0x0, symName: __ZN8firebase9firestore6bundle12BundleReaderC1ENS1_16BundleSerializerENSt3__110unique_ptrINS0_4util10ByteStreamENS4_14default_deleteIS7_EEEE, symObjAddr: 0x54, symBinAddr: 0x1308C, symSize: 0x54 }
  - { offset: 0x10FDC5, size: 0x8, addend: 0x0, symName: __ZN8firebase9firestore6bundle12BundleReaderC1ENS1_16BundleSerializerENSt3__110unique_ptrINS0_4util10ByteStreamENS4_14default_deleteIS7_EEEE, symObjAddr: 0x54, symBinAddr: 0x1308C, symSize: 0x54 }
  - { offset: 0x10FDE7, size: 0x8, addend: 0x0, symName: __ZN8firebase9firestore6bundle12BundleReaderC1ENS1_16BundleSerializerENSt3__110unique_ptrINS0_4util10ByteStreamENS4_14default_deleteIS7_EEEE, symObjAddr: 0x54, symBinAddr: 0x1308C, symSize: 0x54 }
  - { offset: 0x10FE09, size: 0x8, addend: 0x0, symName: __ZN8firebase9firestore6bundle12BundleReaderC1ENS1_16BundleSerializerENSt3__110unique_ptrINS0_4util10ByteStreamENS4_14default_deleteIS7_EEEE, symObjAddr: 0x54, symBinAddr: 0x1308C, symSize: 0x54 }
  - { offset: 0x10FE2B, size: 0x8, addend: 0x0, symName: __ZN8firebase9firestore6bundle12BundleReaderC1ENS1_16BundleSerializerENSt3__110unique_ptrINS0_4util10ByteStreamENS4_14default_deleteIS7_EEEE, symObjAddr: 0x54, symBinAddr: 0x1308C, symSize: 0x54 }
  - { offset: 0x10FE4D, size: 0x8, addend: 0x0, symName: __ZN8firebase9firestore6bundle12BundleReaderC1ENS1_16BundleSerializerENSt3__110unique_ptrINS0_4util10ByteStreamENS4_14default_deleteIS7_EEEE, symObjAddr: 0x54, symBinAddr: 0x1308C, symSize: 0x54 }
  - { offset: 0x10FE6F, size: 0x8, addend: 0x0, symName: __ZN8firebase9firestore6bundle12BundleReaderC1ENS1_16BundleSerializerENSt3__110unique_ptrINS0_4util10ByteStreamENS4_14default_deleteIS7_EEEE, symObjAddr: 0x54, symBinAddr: 0x1308C, symSize: 0x54 }
  - { offset: 0x10FE91, size: 0x8, addend: 0x0, symName: __ZN8firebase9firestore6bundle12BundleReaderC1ENS1_16BundleSerializerENSt3__110unique_ptrINS0_4util10ByteStreamENS4_14default_deleteIS7_EEEE, symObjAddr: 0x54, symBinAddr: 0x1308C, symSize: 0x54 }
  - { offset: 0x110300, size: 0x8, addend: 0x0, symName: __ZN8firebase9firestore6bundle12BundleReader17GetBundleMetadataEv, symObjAddr: 0xA8, symBinAddr: 0x130E0, symSize: 0x1C0 }
  - { offset: 0x11090D, size: 0x8, addend: 0x0, symName: __ZN8firebase9firestore6bundle12BundleReader15ReadNextElementEv, symObjAddr: 0x268, symBinAddr: 0x132A0, symSize: 0x1C4 }
  - { offset: 0x11149F, size: 0x8, addend: 0x0, symName: __ZN8nlohmann10basic_jsonINSt3__13mapENS1_6vectorENS1_12basic_stringIcNS1_11char_traitsIcEENS1_9allocatorIcEEEEbxydS7_NS_14adl_serializerENS3_IhNS7_IhEEEEE10json_value7destroyENS_6detail7value_tE, symObjAddr: 0xAC5C, symBinAddr: 0x1D2A4, symSize: 0x354 }
  - { offset: 0x1114B0, size: 0x8, addend: 0x0, symName: __ZN8firebase9firestore6bundle12BundleReader4FailENSt3__112basic_stringIcNS3_11char_traitsIcEENS3_9allocatorIcEEEE, symObjAddr: 0x42C, symBinAddr: 0x13464, symSize: 0xA4 }
  - { offset: 0x111C05, size: 0x8, addend: 0x0, symName: __ZN8firebase9firestore6bundle12BundleReader16ReadLengthPrefixEv, symObjAddr: 0x56C, symBinAddr: 0x135A4, symSize: 0xCC }
  - { offset: 0x11205E, size: 0x8, addend: 0x0, symName: __ZN8firebase9firestore6bundle12BundleReader16ReadJsonToBufferEm, symObjAddr: 0x638, symBinAddr: 0x13670, symSize: 0x154 }
  - { offset: 0x112648, size: 0x8, addend: 0x0, symName: __ZN8firebase9firestore6bundle12BundleReader29DecodeBundleElementFromBufferEv, symObjAddr: 0x78C, symBinAddr: 0x137C4, symSize: 0x640 }
  - { offset: 0x11407D, size: 0x8, addend: 0x0, symName: __ZN8firebase9firestore6bundle12BundleReader14GetNextElementEv, symObjAddr: 0x4D0, symBinAddr: 0x13508, symSize: 0x5C }
  - { offset: 0x114203, size: 0x8, addend: 0x0, symName: __ZN8firebase9firestore6bundle14BundleMetadataD1Ev, symObjAddr: 0x52C, symBinAddr: 0x13564, symSize: 0x40 }
  - { offset: 0x1145CE, size: 0x8, addend: 0x0, symName: __ZN8firebase9firestore4util17internal_statusor12StatusOrDataINSt3__112basic_stringIcNS4_11char_traitsIcEENS4_9allocatorIcEEEEED2Ev, symObjAddr: 0x1258, symBinAddr: 0x140D0, symSize: 0x40 }
  - { offset: 0x115441, size: 0x8, addend: 0x0, symName: __ZN8nlohmann10basic_jsonINSt3__13mapENS1_6vectorENS1_12basic_stringIcNS1_11char_traitsIcEENS1_9allocatorIcEEEEbxydS7_NS_14adl_serializerENS3_IhNS7_IhEEEEE5parseIPKcEESD_T_SH_NS1_8functionIFbiNS_6detail13parse_event_tERSD_EEEbb, symObjAddr: 0x1298, symBinAddr: 0x14110, symSize: 0x184 }
  - { offset: 0x1158A4, size: 0x8, addend: 0x0, symName: __ZNSt3__16__treeINS_12__value_typeINS_12basic_stringIcNS_11char_traitsIcEENS_9allocatorIcEEEEN8nlohmann10basic_jsonINS_3mapENS_6vectorES7_bxydS5_NS8_14adl_serializerENSB_IhNS5_IhEEEEEEEENS_19__map_value_compareIS7_SG_NS_4lessIvEELb1EEENS5_ISG_EEE4findIA9_cEENS_15__tree_iteratorISG_PNS_11__tree_nodeISG_PvEElEERKT_, symObjAddr: 0xB068, symBinAddr: 0x1D6B0, symSize: 0x7C }
  - { offset: 0x1159FA, size: 0x8, addend: 0x0, symName: __ZN8nlohmann10basic_jsonINSt3__13mapENS1_6vectorENS1_12basic_stringIcNS1_11char_traitsIcEENS1_9allocatorIcEEEEbxydS7_NS_14adl_serializerENS3_IhNS7_IhEEEEE2atERKS9_, symObjAddr: 0xDCC, symBinAddr: 0x13E04, symSize: 0x218 }
  - { offset: 0x1165FA, size: 0x8, addend: 0x0, symName: __ZNK8nlohmann10basic_jsonINSt3__13mapENS1_6vectorENS1_12basic_stringIcNS1_11char_traitsIcEENS1_9allocatorIcEEEEbxydS7_NS_14adl_serializerENS3_IhNS7_IhEEEEE16assert_invariantEv, symObjAddr: 0x1AB0, symBinAddr: 0x14928, symSize: 0xB4 }
  - { offset: 0x11662C, size: 0x8, addend: 0x0, symName: __ZN8nlohmann10basic_jsonINSt3__13mapENS1_6vectorENS1_12basic_stringIcNS1_11char_traitsIcEENS1_9allocatorIcEEEEbxydS7_NS_14adl_serializerENS3_IhNS7_IhEEEEE10json_value7destroyENS_6detail7value_tE, symObjAddr: 0xAC5C, symBinAddr: 0x1D2A4, symSize: 0x354 }
  - { offset: 0x1175DD, size: 0x8, addend: 0x0, symName: __ZN8nlohmann10basic_jsonINSt3__13mapENS1_6vectorENS1_12basic_stringIcNS1_11char_traitsIcEENS1_9allocatorIcEEEEbxydS7_NS_14adl_serializerENS3_IhNS7_IhEEEEED1Ev, symObjAddr: 0x1078, symBinAddr: 0x14058, symSize: 0x30 }
  - { offset: 0x11763E, size: 0x8, addend: 0x0, symName: __ZNSt3__13mapINS_12basic_stringIcNS_11char_traitsIcEENS_9allocatorIcEEEEN8nlohmann10basic_jsonIS0_NS_6vectorES6_bxydS4_NS7_14adl_serializerENS9_IhNS4_IhEEEEEENS_4lessIvEENS4_INS_4pairIKS6_SD_EEEEE2atERSH_, symObjAddr: 0xB0E4, symBinAddr: 0x1D72C, symSize: 0x3C }
  - { offset: 0x1176BC, size: 0x8, addend: 0x0, symName: __ZNSt3__120__throw_out_of_rangeB8ne200100EPKc, symObjAddr: 0xB120, symBinAddr: 0x1D768, symSize: 0x50 }
  - { offset: 0x1176C6, size: 0x8, addend: 0x0, symName: __ZNK8nlohmann10basic_jsonINSt3__13mapENS1_6vectorENS1_12basic_stringIcNS1_11char_traitsIcEENS1_9allocatorIcEEEEbxydS7_NS_14adl_serializerENS3_IhNS7_IhEEEEE9type_nameEv, symObjAddr: 0x788C, symBinAddr: 0x1A4A8, symSize: 0x28 }
  - { offset: 0x117719, size: 0x8, addend: 0x0, symName: __ZN8nlohmann6detail10type_error6createEiRKNSt3__112basic_stringIcNS2_11char_traitsIcEENS2_9allocatorIcEEEE, symObjAddr: 0x7758, symBinAddr: 0x1A374, symSize: 0x134 }
  - { offset: 0x117F24, size: 0x8, addend: 0x0, symName: __ZN8nlohmann6detail12out_of_range6createEiRKNSt3__112basic_stringIcNS2_11char_traitsIcEENS2_9allocatorIcEEEE, symObjAddr: 0x58B4, symBinAddr: 0x185F8, symSize: 0x134 }
  - { offset: 0x118777, size: 0x8, addend: 0x0, symName: __ZN8firebase9firestore6bundle14BundleDocumentD1Ev, symObjAddr: 0x103C, symBinAddr: 0x1401C, symSize: 0x3C }
  - { offset: 0x11884A, size: 0x8, addend: 0x0, symName: __ZN8firebase9firestore6bundle14BundleMetadataD0Ev, symObjAddr: 0x10A8, symBinAddr: 0x14088, symSize: 0x40 }
  - { offset: 0x1189B3, size: 0x8, addend: 0x0, symName: __ZNK8firebase9firestore6bundle14BundleMetadata12element_typeEv, symObjAddr: 0x10E8, symBinAddr: 0x140C8, symSize: 0x8 }
  - { offset: 0x118CF4, size: 0x8, addend: 0x0, symName: __ZN8nlohmann10basic_jsonINSt3__13mapENS1_6vectorENS1_12basic_stringIcNS1_11char_traitsIcEENS1_9allocatorIcEEEEbxydS7_NS_14adl_serializerENS3_IhNS7_IhEEEEE6parserINS_6detail22iterator_input_adapterIPKcEEEENSF_6parserISD_T_EESL_NS1_8functionIFbiNSF_13parse_event_tERSD_EEEbb, symObjAddr: 0x141C, symBinAddr: 0x14294, symSize: 0xE8 }
  - { offset: 0x118F60, size: 0x8, addend: 0x0, symName: __ZN8nlohmann6detail6parserINS_10basic_jsonINSt3__13mapENS3_6vectorENS3_12basic_stringIcNS3_11char_traitsIcEENS3_9allocatorIcEEEEbxydS9_NS_14adl_serializerENS5_IhNS9_IhEEEEEENS0_22iterator_input_adapterIPKcEEE5parseEbRSF_, symObjAddr: 0x1504, symBinAddr: 0x1437C, symSize: 0x55C }
  - { offset: 0x11ABEF, size: 0x8, addend: 0x0, symName: __ZN8nlohmann6detail5lexerINS_10basic_jsonINSt3__13mapENS3_6vectorENS3_12basic_stringIcNS3_11char_traitsIcEENS3_9allocatorIcEEEEbxydS9_NS_14adl_serializerENS5_IhNS9_IhEEEEEENS0_22iterator_input_adapterIPKcEEED2Ev, symObjAddr: 0x2F7C, symBinAddr: 0x15D38, symSize: 0x40 }
  - { offset: 0x11AE48, size: 0x8, addend: 0x0, symName: __ZN8nlohmann6detail6parserINS_10basic_jsonINSt3__13mapENS3_6vectorENS3_12basic_stringIcNS3_11char_traitsIcEENS3_9allocatorIcEEEEbxydS9_NS_14adl_serializerENS5_IhNS9_IhEEEEEENS0_22iterator_input_adapterIPKcEEED1Ev, symObjAddr: 0x1A60, symBinAddr: 0x148D8, symSize: 0x50 }
  - { offset: 0x11AFE6, size: 0x8, addend: 0x0, symName: __ZNSt3__110__function12__value_funcIFbiN8nlohmann6detail13parse_event_tERNS2_10basic_jsonINS_3mapENS_6vectorENS_12basic_stringIcNS_11char_traitsIcEENS_9allocatorIcEEEEbxydSB_NS2_14adl_serializerENS7_IhNSB_IhEEEEEEEEC2B8ne200100EOSK_, symObjAddr: 0x1ED4, symBinAddr: 0x14D4C, symSize: 0x64 }
  - { offset: 0x11B033, size: 0x8, addend: 0x0, symName: __ZN8nlohmann6detail6parserINS_10basic_jsonINSt3__13mapENS3_6vectorENS3_12basic_stringIcNS3_11char_traitsIcEENS3_9allocatorIcEEEEbxydS9_NS_14adl_serializerENS5_IhNS9_IhEEEEEENS0_22iterator_input_adapterIPKcEEEC2EOSJ_NS3_8functionIFbiNS0_13parse_event_tERSF_EEEbb, symObjAddr: 0x1F38, symBinAddr: 0x14DB0, symSize: 0xD4 }
  - { offset: 0x11B5D4, size: 0x8, addend: 0x0, symName: __ZN8nlohmann6detail28json_sax_dom_callback_parserINS_10basic_jsonINSt3__13mapENS3_6vectorENS3_12basic_stringIcNS3_11char_traitsIcEENS3_9allocatorIcEEEEbxydS9_NS_14adl_serializerENS5_IhNS9_IhEEEEEEEC2ERSF_NS3_8functionIFbiNS0_13parse_event_tESH_EEEb, symObjAddr: 0x4C1C, symBinAddr: 0x17974, symSize: 0x110 }
  - { offset: 0x11BAAB, size: 0x8, addend: 0x0, symName: __ZN8nlohmann6detail6parserINS_10basic_jsonINSt3__13mapENS3_6vectorENS3_12basic_stringIcNS3_11char_traitsIcEENS3_9allocatorIcEEEEbxydS9_NS_14adl_serializerENS5_IhNS9_IhEEEEEENS0_22iterator_input_adapterIPKcEEE18sax_parse_internalINS0_19json_sax_dom_parserISF_EEEEbPT_, symObjAddr: 0x41C8, symBinAddr: 0x16F20, symSize: 0xA04 }
  - { offset: 0x11D22E, size: 0x8, addend: 0x0, symName: __ZN8nlohmann6detail5lexerINS_10basic_jsonINSt3__13mapENS3_6vectorENS3_12basic_stringIcNS3_11char_traitsIcEENS3_9allocatorIcEEEEbxydS9_NS_14adl_serializerENS5_IhNS9_IhEEEEEENS0_22iterator_input_adapterIPKcEEE4scanEv, symObjAddr: 0x2064, symBinAddr: 0x14EDC, symSize: 0x250 }
  - { offset: 0x11D357, size: 0x8, addend: 0x0, symName: __ZNK8nlohmann6detail5lexerINS_10basic_jsonINSt3__13mapENS3_6vectorENS3_12basic_stringIcNS3_11char_traitsIcEENS3_9allocatorIcEEEEbxydS9_NS_14adl_serializerENS5_IhNS9_IhEEEEEENS0_22iterator_input_adapterIPKcEEE16get_token_stringEv, symObjAddr: 0x3A2C, symBinAddr: 0x16784, symSize: 0xE0 }
  - { offset: 0x11D59E, size: 0x8, addend: 0x0, symName: __ZN8nlohmann6detail6parserINS_10basic_jsonINSt3__13mapENS3_6vectorENS3_12basic_stringIcNS3_11char_traitsIcEENS3_9allocatorIcEEEEbxydS9_NS_14adl_serializerENS5_IhNS9_IhEEEEEENS0_22iterator_input_adapterIPKcEEE17exception_messageENS0_10lexer_baseISF_E10token_typeERKSB_, symObjAddr: 0x3D90, symBinAddr: 0x16AE8, symSize: 0x404 }
  - { offset: 0x11EF02, size: 0x8, addend: 0x0, symName: __ZN8nlohmann6detail11parse_error6createEiRKNS0_10position_tERKNSt3__112basic_stringIcNS5_11char_traitsIcEENS5_9allocatorIcEEEE, symObjAddr: 0x3B0C, symBinAddr: 0x16864, symSize: 0x284 }
  - { offset: 0x1201D1, size: 0x8, addend: 0x0, symName: __ZN8nlohmann6detail19json_sax_dom_parserINS_10basic_jsonINSt3__13mapENS3_6vectorENS3_12basic_stringIcNS3_11char_traitsIcEENS3_9allocatorIcEEEEbxydS9_NS_14adl_serializerENS5_IhNS9_IhEEEEEEE11parse_errorINS0_11parse_errorEEEbmRKSB_RKT_, symObjAddr: 0x4BCC, symBinAddr: 0x17924, symSize: 0x50 }
  - { offset: 0x12023D, size: 0x8, addend: 0x0, symName: __ZN8nlohmann6detail6parserINS_10basic_jsonINSt3__13mapENS3_6vectorENS3_12basic_stringIcNS3_11char_traitsIcEENS3_9allocatorIcEEEEbxydS9_NS_14adl_serializerENS5_IhNS9_IhEEEEEENS0_22iterator_input_adapterIPKcEEE18sax_parse_internalINS0_28json_sax_dom_callback_parserISF_EEEEbPT_, symObjAddr: 0x3020, symBinAddr: 0x15D78, symSize: 0x9BC }
  - { offset: 0x12177C, size: 0x8, addend: 0x0, symName: __ZN8nlohmann6detail28json_sax_dom_callback_parserINS_10basic_jsonINSt3__13mapENS3_6vectorENS3_12basic_stringIcNS3_11char_traitsIcEENS3_9allocatorIcEEEEbxydS9_NS_14adl_serializerENS5_IhNS9_IhEEEEEEE11parse_errorINS0_11parse_errorEEEbmRKSB_RKT_, symObjAddr: 0x39DC, symBinAddr: 0x16734, symSize: 0x50 }
  - { offset: 0x1217E9, size: 0x8, addend: 0x0, symName: __ZN8nlohmann6detail28json_sax_dom_callback_parserINS_10basic_jsonINSt3__13mapENS3_6vectorENS3_12basic_stringIcNS3_11char_traitsIcEENS3_9allocatorIcEEEEbxydS9_NS_14adl_serializerENS5_IhNS9_IhEEEEEEED2Ev, symObjAddr: 0x9288, symBinAddr: 0x1BEA4, symSize: 0x88 }
  - { offset: 0x12207F, size: 0x8, addend: 0x0, symName: __ZN8nlohmann10basic_jsonINSt3__13mapENS1_6vectorENS1_12basic_stringIcNS1_11char_traitsIcEENS1_9allocatorIcEEEEbxydS7_NS_14adl_serializerENS3_IhNS7_IhEEEEE10json_valueC2ENS_6detail7value_tE, symObjAddr: 0x1B64, symBinAddr: 0x149DC, symSize: 0xE0 }
  - { offset: 0x122439, size: 0x8, addend: 0x0, symName: __ZN8nlohmann10basic_jsonINSt3__13mapENS1_6vectorENS1_12basic_stringIcNS1_11char_traitsIcEENS1_9allocatorIcEEEEbxydS7_NS_14adl_serializerENS3_IhNS7_IhEEEEE6createIS9_JRA1_KcEEEPT_DpOT0_, symObjAddr: 0x1C44, symBinAddr: 0x14ABC, symSize: 0x48 }
  - { offset: 0x1228A9, size: 0x8, addend: 0x0, symName: __ZN8nlohmann6detail9exception4nameERKNSt3__112basic_stringIcNS2_11char_traitsIcEENS2_9allocatorIcEEEEi, symObjAddr: 0x1C8C, symBinAddr: 0x14B04, symSize: 0x180 }
  - { offset: 0x12331E, size: 0x8, addend: 0x0, symName: __ZN8nlohmann6detail9exceptionC2EiPKc, symObjAddr: 0x1E0C, symBinAddr: 0x14C84, symSize: 0x54 }
  - { offset: 0x123367, size: 0x8, addend: 0x0, symName: __ZNK8nlohmann6detail9exception4whatEv, symObjAddr: 0x1E60, symBinAddr: 0x14CD8, symSize: 0x8 }
  - { offset: 0x12338D, size: 0x8, addend: 0x0, symName: __ZN8nlohmann6detail9exceptionD1Ev, symObjAddr: 0x1E68, symBinAddr: 0x14CE0, symSize: 0x34 }
  - { offset: 0x1233EA, size: 0x8, addend: 0x0, symName: __ZN8nlohmann6detail9exceptionD0Ev, symObjAddr: 0x1E9C, symBinAddr: 0x14D14, symSize: 0x38 }
  - { offset: 0x1234B3, size: 0x8, addend: 0x0, symName: __ZN8nlohmann6detail5lexerINS_10basic_jsonINSt3__13mapENS3_6vectorENS3_12basic_stringIcNS3_11char_traitsIcEENS3_9allocatorIcEEEEbxydS9_NS_14adl_serializerENS5_IhNS9_IhEEEEEENS0_22iterator_input_adapterIPKcEEE17get_decimal_pointEv, symObjAddr: 0x200C, symBinAddr: 0x14E84, symSize: 0x58 }
  - { offset: 0x12351E, size: 0x8, addend: 0x0, symName: __ZN8nlohmann6detail5lexerINS_10basic_jsonINSt3__13mapENS3_6vectorENS3_12basic_stringIcNS3_11char_traitsIcEENS3_9allocatorIcEEEEbxydS9_NS_14adl_serializerENS5_IhNS9_IhEEEEEENS0_22iterator_input_adapterIPKcEEE8skip_bomEv, symObjAddr: 0x22B4, symBinAddr: 0x1512C, symSize: 0x60 }
  - { offset: 0x123594, size: 0x8, addend: 0x0, symName: __ZN8nlohmann6detail5lexerINS_10basic_jsonINSt3__13mapENS3_6vectorENS3_12basic_stringIcNS3_11char_traitsIcEENS3_9allocatorIcEEEEbxydS9_NS_14adl_serializerENS5_IhNS9_IhEEEEEENS0_22iterator_input_adapterIPKcEEE3getEv, symObjAddr: 0x2CA8, symBinAddr: 0x157D2C, symSize: 0xA8 }
  - { offset: 0x123637, size: 0x8, addend: 0x0, symName: __ZN8nlohmann6detail5lexerINS_10basic_jsonINSt3__13mapENS3_6vectorENS3_12basic_stringIcNS3_11char_traitsIcEENS3_9allocatorIcEEEEbxydS9_NS_14adl_serializerENS5_IhNS9_IhEEEEEENS0_22iterator_input_adapterIPKcEEE12scan_commentEv, symObjAddr: 0x2314, symBinAddr: 0x1518C, symSize: 0xAC }
  - { offset: 0x1236C1, size: 0x8, addend: 0x0, symName: __ZN8nlohmann6detail5lexerINS_10basic_jsonINSt3__13mapENS3_6vectorENS3_12basic_stringIcNS3_11char_traitsIcEENS3_9allocatorIcEEEEbxydS9_NS_14adl_serializerENS5_IhNS9_IhEEEEEENS0_22iterator_input_adapterIPKcEEE11scan_numberEv, symObjAddr: 0x2928, symBinAddr: 0x157A0, symSize: 0x380 }
  - { offset: 0x123DA2, size: 0x8, addend: 0x0, symName: __ZN8nlohmann6detail5lexerINS_10basic_jsonINSt3__13mapENS3_6vectorENS3_12basic_stringIcNS3_11char_traitsIcEENS3_9allocatorIcEEEEbxydS9_NS_14adl_serializerENS5_IhNS9_IhEEEEEENS0_22iterator_input_adapterIPKcEEE11scan_stringEv, symObjAddr: 0x2440, symBinAddr: 0x152B8, symSize: 0x4E8 }
  - { offset: 0x123FBB, size: 0x8, addend: 0x0, symName: __ZN8nlohmann6detail5lexerINS_10basic_jsonINSt3__13mapENS3_6vectorENS3_12basic_stringIcNS3_11char_traitsIcEENS3_9allocatorIcEEEEbxydS9_NS_14adl_serializerENS5_IhNS9_IhEEEEEENS0_22iterator_input_adapterIPKcEEE12scan_literalESI_mNS0_10lexer_baseISF_E10token_typeE, symObjAddr: 0x23C0, symBinAddr: 0x15238, symSize: 0x80 }
  - { offset: 0x12403F, size: 0x8, addend: 0x0, symName: __ZN8nlohmann6detail5lexerINS_10basic_jsonINSt3__13mapENS3_6vectorENS3_12basic_stringIcNS3_11char_traitsIcEENS3_9allocatorIcEEEEbxydS9_NS_14adl_serializerENS5_IhNS9_IhEEEEEENS0_22iterator_input_adapterIPKcEEE11scan_stringEv, symObjAddr: 0x2440, symBinAddr: 0x152B8, symSize: 0x4E8 }
  - { offset: 0x124049, size: 0x8, addend: 0x0, symName: __ZN8nlohmann6detail5lexerINS_10basic_jsonINSt3__13mapENS3_6vectorENS3_12basic_stringIcNS3_11char_traitsIcEENS3_9allocatorIcEEEEbxydS9_NS_14adl_serializerENS5_IhNS9_IhEEEEEENS0_22iterator_input_adapterIPKcEEE5ungetEv, symObjAddr: 0x2D50, symBinAddr: 0x15B20, symSize: 0x64 }
  - { offset: 0x1240FB, size: 0x8, addend: 0x0, symName: __ZNSt3__16vectorIcNS_9allocatorIcEEE9push_backB8ne200100EOc, symObjAddr: 0x2DB4, symBinAddr: 0x15B84, symSize: 0xD4 }
  - { offset: 0x124106, size: 0x8, addend: 0x0, symName: __ZN8nlohmann6detail5lexerINS_10basic_jsonINSt3__13mapENS3_6vectorENS3_12basic_stringIcNS3_11char_traitsIcEENS3_9allocatorIcEEEEbxydS9_NS_14adl_serializerENS5_IhNS9_IhEEEEEENS0_22iterator_input_adapterIPKcEEE12scan_literalESI_mNS0_10lexer_baseISF_E10token_typeE.cold.1, symObjAddr: 0xB28C, symBinAddr: 0x157DD4, symSize: 0x28 }
  - { offset: 0x12413D, size: 0x8, addend: 0x0, symName: __ZN8nlohmann6detail5lexerINS_10basic_jsonINSt3__13mapENS3_6vectorENS3_12basic_stringIcNS3_11char_traitsIcEENS3_9allocatorIcEEEEbxydS9_NS_14adl_serializerENS5_IhNS9_IhEEEEEENS0_22iterator_input_adapterIPKcEEE5resetEv, symObjAddr: 0x2E9C, symBinAddr: 0x15C58, symSize: 0x54 }
  - { offset: 0x1242DA, size: 0x8, addend: 0x0, symName: __ZN8nlohmann6detail5lexerINS_10basic_jsonINSt3__13mapENS3_6vectorENS3_12basic_stringIcNS3_11char_traitsIcEENS3_9allocatorIcEEEEbxydS9_NS_14adl_serializerENS5_IhNS9_IhEEEEEENS0_22iterator_input_adapterIPKcEEE18next_byte_in_rangeESt16initializer_listIiE, symObjAddr: 0x2F28, symBinAddr: 0x15CE4, symSize: 0x54 }
  - { offset: 0x124326, size: 0x8, addend: 0x0, symName: __ZN8nlohmann6detail5lexerINS_10basic_jsonINSt3__13mapENS3_6vectorENS3_12basic_stringIcNS3_11char_traitsIcEENS3_9allocatorIcEEEEbxydS9_NS_14adl_serializerENS5_IhNS9_IhEEEEEENS0_22iterator_input_adapterIPKcEEED2Ev, symObjAddr: 0x2F7C, symBinAddr: 0x15D38, symSize: 0x40 }
  - { offset: 0x124330, size: 0x8, addend: 0x0, symName: __ZN8nlohmann6detail5lexerINS_10basic_jsonINSt3__13mapENS3_6vectorENS3_12basic_stringIcNS3_11char_traitsIcEENS3_9allocatorIcEEEEbxydS9_NS_14adl_serializerENS5_IhNS9_IhEEEEEENS0_22iterator_input_adapterIPKcEEE13get_codepointEv, symObjAddr: 0x2EF0, symBinAddr: 0x15CAC, symSize: 0x38 }
  - { offset: 0x124384, size: 0x8, addend: 0x0, symName: __ZN8nlohmann6detail5lexerINS_10basic_jsonINSt3__13mapENS3_6vectorENS3_12basic_stringIcNS3_11char_traitsIcEENS3_9allocatorIcEEEEbxydS9_NS_14adl_serializerENS5_IhNS9_IhEEEEEENS0_22iterator_input_adapterIPKcEEE18next_byte_in_rangeESt16initializer_listIiE, symObjAddr: 0x2F28, symBinAddr: 0x15CE4, symSize: 0x54 }
  - { offset: 0x12438F, size: 0x8, addend: 0x0, symName: __ZN8nlohmann6detail5lexerINS_10basic_jsonINSt3__13mapENS3_6vectorENS3_12basic_stringIcNS3_11char_traitsIcEENS3_9allocatorIcEEEEbxydS9_NS_14adl_serializerENS5_IhNS9_IhEEEEEENS0_22iterator_input_adapterIPKcEEE11scan_stringEv.cold.1, symObjAddr: 0xB2B4, symBinAddr: 0x157DFC, symSize: 0x28 }
  - { offset: 0x1243A7, size: 0x8, addend: 0x0, symName: __ZN8nlohmann6detail5lexerINS_10basic_jsonINSt3__13mapENS3_6vectorENS3_12basic_stringIcNS3_11char_traitsIcEENS3_9allocatorIcEEEEbxydS9_NS_14adl_serializerENS5_IhNS9_IhEEEEEENS0_22iterator_input_adapterIPKcEEE11scan_stringEv.cold.2, symObjAddr: 0xB2DC, symBinAddr: 0x157E24, symSize: 0x28 }
  - { offset: 0x124445, size: 0x8, addend: 0x0, symName: __ZN8nlohmann6detail5lexerINS_10basic_jsonINSt3__13mapENS3_6vectorENS3_12basic_stringIcNS3_11char_traitsIcEENS3_9allocatorIcEEEEbxydS9_NS_14adl_serializerENS5_IhNS9_IhEEEEEENS0_22iterator_input_adapterIPKcEEE11scan_numberEv.cold.3, symObjAddr: 0xB354, symBinAddr: 0x157E9C, symSize: 0x28 }
  - { offset: 0x12445D, size: 0x8, addend: 0x0, symName: __ZN8nlohmann6detail5lexerINS_10basic_jsonINSt3__13mapENS3_6vectorENS3_12basic_stringIcNS3_11char_traitsIcEENS3_9allocatorIcEEEEbxydS9_NS_14adl_serializerENS5_IhNS9_IhEEEEEENS0_22iterator_input_adapterIPKcEEE11scan_numberEv.cold.2, symObjAddr: 0xB32C, symBinAddr: 0x157E74, symSize: 0x28 }
  - { offset: 0x124475, size: 0x8, addend: 0x0, symName: __ZN8nlohmann6detail5lexerINS_10basic_jsonINSt3__13mapENS3_6vectorENS3_12basic_stringIcNS3_11char_traitsIcEENS3_9allocatorIcEEEEbxydS9_NS_14adl_serializerENS5_IhNS9_IhEEEEEENS0_22iterator_input_adapterIPKcEEE11scan_numberEv.cold.1, symObjAddr: 0xB304, symBinAddr: 0x157E4C, symSize: 0x28 }
  - { offset: 0x12448D, size: 0x8, addend: 0x0, symName: __ZN8nlohmann6detail5lexerINS_10basic_jsonINSt3__13mapENS3_6vectorENS3_12basic_stringIcNS3_11char_traitsIcEENS3_9allocatorIcEEEEbxydS9_NS_14adl_serializerENS5_IhNS9_IhEEEEEENS0_22iterator_input_adapterIPKcEEE11scan_numberEv.cold.4, symObjAddr: 0xB37C, symBinAddr: 0x157EC4, symSize: 0x28 }
  - { offset: 0x1244D1, size: 0x8, addend: 0x0, symName: __ZNSt3__16vectorIcNS_9allocatorIcEEE9push_backB8ne200100EOc, symObjAddr: 0x2DB4, symBinAddr: 0x15B84, symSize: 0xD4 }
  - { offset: 0x124975, size: 0x8, addend: 0x0, symName: __ZN8nlohmann6detail5lexerINS_10basic_jsonINSt3__13mapENS3_6vectorENS3_12basic_stringIcNS3_11char_traitsIcEENS3_9allocatorIcEEEEbxydS9_NS_14adl_serializerENS5_IhNS9_IhEEEEEENS0_22iterator_input_adapterIPKcEEE5ungetEv.cold.1, symObjAddr: 0xB3A4, symBinAddr: 0x157EEC, symSize: 0x28 }
  - { offset: 0x124C3B, size: 0x8, addend: 0x0, symName: __ZN8nlohmann6detail5lexerINS_10basic_jsonINSt3__13mapENS3_6vectorENS3_12basic_stringIcNS3_11char_traitsIcEENS3_9allocatorIcEEEEbxydS9_NS_14adl_serializerENS5_IhNS9_IhEEEEEENS0_22iterator_input_adapterIPKcEEE5resetEv, symObjAddr: 0x2E9C, symBinAddr: 0x15C58, symSize: 0x54 }
  - { offset: 0x124C66, size: 0x8, addend: 0x0, symName: __ZN8nlohmann6detail5lexerINS_10basic_jsonINSt3__13mapENS3_6vectorENS3_12basic_stringIcNS3_11char_traitsIcEENS3_9allocatorIcEEEEbxydS9_NS_14adl_serializerENS5_IhNS9_IhEEEEEENS0_22iterator_input_adapterIPKcEEE13get_codepointEv.cold.2, symObjAddr: 0xB3F4, symBinAddr: 0x157F3C, symSize: 0x110 }
  - { offset: 0x124CDC, size: 0x8, addend: 0x0, symName: __ZN8nlohmann6detail5lexerINS_10basic_jsonINSt3__13mapENS3_6vectorENS3_12basic_stringIcNS3_11char_traitsIcEENS3_9allocatorIcEEEEbxydS9_NS_14adl_serializerENS5_IhNS9_IhEEEEEENS0_22iterator_input_adapterIPKcEEE13get_codepointEv.cold.1, symObjAddr: 0xB3CC, symBinAddr: 0x157F14, symSize: 0x28 }
  - { offset: 0x124CF4, size: 0x8, addend: 0x0, symName: __ZN8nlohmann6detail5lexerINS_10basic_jsonINSt3__13mapENS3_6vectorENS3_12basic_stringIcNS3_11char_traitsIcEENS3_9allocatorIcEEEEbxydS9_NS_14adl_serializerENS5_IhNS9_IhEEEEEENS0_22iterator_input_adapterIPKcEEE18next_byte_in_rangeESt16initializer_listIiE.cold.1, symObjAddr: 0xB504, symBinAddr: 0x15804C, symSize: 0x98 }
  - { offset: 0x124D5A, size: 0x8, addend: 0x0, symName: __ZN8nlohmann6detail5lexerINS_10basic_jsonINSt3__13mapENS3_6vectorENS3_12basic_stringIcNS3_11char_traitsIcEENS3_9allocatorIcEEEEbxydS9_NS_14adl_serializerENS5_IhNS9_IhEEEEEENS0_22iterator_input_adapterIPKcEEE18next_byte_in_rangeESt16initializer_listIiE.cold.2, symObjAddr: 0xB59C, symBinAddr: 0x1580E4, symSize: 0x28 }
  - { offset: 0x12506B, size: 0x8, addend: 0x0, symName: __ZN8nlohmann6detail28json_sax_dom_callback_parserINS_10basic_jsonINSt3__13mapENS3_6vectorENS3_12basic_stringIcNS3_11char_traitsIcEENS3_9allocatorIcEEEEbxydS9_NS_14adl_serializerENS5_IhNS9_IhEEEEEEE12handle_valueIRyEENS3_4pairIbPSF_EEOT_b, symObjAddr: 0x8D9C, symBinAddr: 0x1B9B8, symSize: 0x2B8 }
  - { offset: 0x125764, size: 0x8, addend: 0x0, symName: __ZN8nlohmann6detail28json_sax_dom_callback_parserINS_10basic_jsonINSt3__13mapENS3_6vectorENS3_12basic_stringIcNS3_11char_traitsIcEENS3_9allocatorIcEEEEbxydS9_NS_14adl_serializerENS5_IhNS9_IhEEEEEEE12start_objectEm, symObjAddr: 0x510C, symBinAddr: 0x17E50, symSize: 0x1A8 }
  - { offset: 0x125AF3, size: 0x8, addend: 0x0, symName: __ZN8nlohmann6detail28json_sax_dom_callback_parserINS_10basic_jsonINSt3__13mapENS3_6vectorENS3_12basic_stringIcNS3_11char_traitsIcEENS3_9allocatorIcEEEEbxydS9_NS_14adl_serializerENS5_IhNS9_IhEEEEEEE10end_objectEv, symObjAddr: 0x52B4, symBinAddr: 0x17FF8, symSize: 0x1AC }
  - { offset: 0x12602E, size: 0x8, addend: 0x0, symName: __ZN8nlohmann6detail28json_sax_dom_callback_parserINS_10basic_jsonINSt3__13mapENS3_6vectorENS3_12basic_stringIcNS3_11char_traitsIcEENS3_9allocatorIcEEEEbxydS9_NS_14adl_serializerENS5_IhNS9_IhEEEEEEE3keyERSB_, symObjAddr: 0x5460, symBinAddr: 0x181A4, symSize: 0x140 }
  - { offset: 0x126038, size: 0x8, addend: 0x0, symName: __ZN8nlohmann6detail28json_sax_dom_callback_parserINS_10basic_jsonINSt3__13mapENS3_6vectorENS3_12basic_stringIcNS3_11char_traitsIcEENS3_9allocatorIcEEEEbxydS9_NS_14adl_serializerENS5_IhNS9_IhEEEEEEE12handle_valueIRdEENS3_4pairIbPSF_EEOT_b, symObjAddr: 0x8024, symBinAddr: 0x1AC40, symSize: 0x2B8 }
  - { offset: 0x126733, size: 0x8, addend: 0x0, symName: __ZN8nlohmann6detail28json_sax_dom_callback_parserINS_10basic_jsonINSt3__13mapENS3_6vectorENS3_12basic_stringIcNS3_11char_traitsIcEENS3_9allocatorIcEEEEbxydS9_NS_14adl_serializerENS5_IhNS9_IhEEEEEEE12handle_valueIRbEENS3_4pairIbPSF_EEOT_b, symObjAddr: 0x82DC, symBinAddr: 0x1AEF8, symSize: 0x2B8 }
  - { offset: 0x126E23, size: 0x8, addend: 0x0, symName: __ZN8nlohmann6detail28json_sax_dom_callback_parserINS_10basic_jsonINSt3__13mapENS3_6vectorENS3_12basic_stringIcNS3_11char_traitsIcEENS3_9allocatorIcEEEEbxydS9_NS_14adl_serializerENS5_IhNS9_IhEEEEEEE12handle_valueIRxEENS3_4pairIbPSF_EEOT_b, symObjAddr: 0x8844, symBinAddr: 0x1B460, symSize: 0x2B8 }
  - { offset: 0x127521, size: 0x8, addend: 0x0, symName: __ZN8nlohmann6detail28json_sax_dom_callback_parserINS_10basic_jsonINSt3__13mapENS3_6vectorENS3_12basic_stringIcNS3_11char_traitsIcEENS3_9allocatorIcEEEEbxydS9_NS_14adl_serializerENS5_IhNS9_IhEEEEEEE12handle_valueIDnEENS3_4pairIbPSF_EEOT_b, symObjAddr: 0x8594, symBinAddr: 0x1B1B0, symSize: 0x2B0 }
  - { offset: 0x127BDD, size: 0x8, addend: 0x0, symName: __ZN8nlohmann6detail28json_sax_dom_callback_parserINS_10basic_jsonINSt3__13mapENS3_6vectorENS3_12basic_stringIcNS3_11char_traitsIcEENS3_9allocatorIcEEEEbxydS9_NS_14adl_serializerENS5_IhNS9_IhEEEEEEE11start_arrayEm, symObjAddr: 0x55A0, symBinAddr: 0x182E4, symSize: 0x1A8 }
  - { offset: 0x127F6C, size: 0x8, addend: 0x0, symName: __ZN8nlohmann6detail28json_sax_dom_callback_parserINS_10basic_jsonINSt3__13mapENS3_6vectorENS3_12basic_stringIcNS3_11char_traitsIcEENS3_9allocatorIcEEEEbxydS9_NS_14adl_serializerENS5_IhNS9_IhEEEEEEE9end_arrayEv, symObjAddr: 0x5748, symBinAddr: 0x1848C, symSize: 0x11C }
  - { offset: 0x12827C, size: 0x8, addend: 0x0, symName: __ZN8nlohmann6detail28json_sax_dom_callback_parserINS_10basic_jsonINSt3__13mapENS3_6vectorENS3_12basic_stringIcNS3_11char_traitsIcEENS3_9allocatorIcEEEEbxydS9_NS_14adl_serializerENS5_IhNS9_IhEEEEEEE11parse_errorINS0_12out_of_rangeEEEbmRKSB_RKT_, symObjAddr: 0x5864, symBinAddr: 0x185A8, symSize: 0x50 }
  - { offset: 0x128286, size: 0x8, addend: 0x0, symName: __ZN8nlohmann6detail28json_sax_dom_callback_parserINS_10basic_jsonINSt3__13mapENS3_6vectorENS3_12basic_stringIcNS3_11char_traitsIcEENS3_9allocatorIcEEEEbxydS9_NS_14adl_serializerENS5_IhNS9_IhEEEEEEE12handle_valueIRSB_EENS3_4pairIbPSF_EEOT_b, symObjAddr: 0x8AFC, symBinAddr: 0x1B718, symSize: 0x2A0 }
  - { offset: 0x1288C5, size: 0x8, addend: 0x0, symName: __ZN8nlohmann6detail28json_sax_dom_callback_parserINS_10basic_jsonINSt3__13mapENS3_6vectorENS3_12basic_stringIcNS3_11char_traitsIcEENS3_9allocatorIcEEEEbxydS9_NS_14adl_serializerENS5_IhNS9_IhEEEEEEE3keyERSB_, symObjAddr: 0x5460, symBinAddr: 0x181A4, symSize: 0x140 }
  - { offset: 0x128BF1, size: 0x8, addend: 0x0, symName: __ZNSt3__16vectorIbNS_9allocatorIbEEE9push_backERKb, symObjAddr: 0x4D2C, symBinAddr: 0x17A84, symSize: 0xA4 }
  - { offset: 0x128CDD, size: 0x8, addend: 0x0, symName: __ZNSt3__16vectorIbNS_9allocatorIbEEE7reserveEm, symObjAddr: 0x4DD0, symBinAddr: 0x17B28, symSize: 0xB8 }
  - { offset: 0x128CF1, size: 0x8, addend: 0x0, symName: __ZN8nlohmann6detail28json_sax_dom_callback_parserINS_10basic_jsonINSt3__13mapENS3_6vectorENS3_12basic_stringIcNS3_11char_traitsIcEENS3_9allocatorIcEEEEbxydS9_NS_14adl_serializerENS5_IhNS9_IhEEEEEEE11parse_errorINS0_12out_of_rangeEEEbmRKSB_RKT_, symObjAddr: 0x5864, symBinAddr: 0x185A8, symSize: 0x50 }
  - { offset: 0x128D5E, size: 0x8, addend: 0x0, symName: __ZN8nlohmann6detail11parse_errorC1ERKS1_, symObjAddr: 0x9054, symBinAddr: 0x1BC70, symSize: 0x60 }
  - { offset: 0x128ED5, size: 0x8, addend: 0x0, symName: __ZN8nlohmann6detail11parse_error15position_stringERKNS0_10position_tE, symObjAddr: 0x90EC, symBinAddr: 0x1BD08, symSize: 0x178 }
  - { offset: 0x129960, size: 0x8, addend: 0x0, symName: __ZN8nlohmann6detail10lexer_baseINS_10basic_jsonINSt3__13mapENS3_6vectorENS3_12basic_stringIcNS3_11char_traitsIcEENS3_9allocatorIcEEEEbxydS9_NS_14adl_serializerENS5_IhNS9_IhEEEEEEE15token_type_nameENSG_10token_typeE, symObjAddr: 0x9264, symBinAddr: 0x1BE80, symSize: 0x24 }
  - { offset: 0x129985, size: 0x8, addend: 0x0, symName: __ZN8nlohmann6detail11parse_errorD1Ev, symObjAddr: 0x4194, symBinAddr: 0x16EEC, symSize: 0x34 }
  - { offset: 0x129BA0, size: 0x8, addend: 0x0, symName: __ZN8nlohmann6detail19json_sax_dom_parserINS_10basic_jsonINSt3__13mapENS3_6vectorENS3_12basic_stringIcNS3_11char_traitsIcEENS3_9allocatorIcEEEEbxydS9_NS_14adl_serializerENS5_IhNS9_IhEEEEEEE12handle_valueIRyEEPSF_OT_, symObjAddr: 0xA450, symBinAddr: 0x1CF9C, symSize: 0x1A4 }
  - { offset: 0x12A213, size: 0x8, addend: 0x0, symName: __ZNSt3__16vectorIN8nlohmann10basic_jsonINS_3mapES0_NS_12basic_stringIcNS_11char_traitsIcEENS_9allocatorIcEEEEbxydS7_NS1_14adl_serializerENS0_IhNS7_IhEEEEEENS7_ISD_EEE24__emplace_back_slow_pathIJRyEEEPSD_DpOT_, symObjAddr: 0xA5F4, symBinAddr: 0x1D140, symSize: 0x120 }
  - { offset: 0x12A22B, size: 0x8, addend: 0x0, symName: __ZN8nlohmann6detail19json_sax_dom_parserINS_10basic_jsonINSt3__13mapENS3_6vectorENS3_12basic_stringIcNS3_11char_traitsIcEENS3_9allocatorIcEEEEbxydS9_NS_14adl_serializerENS5_IhNS9_IhEEEEEEE12handle_valueINS0_7value_tEEEPSF_OT_, symObjAddr: 0x9430, symBinAddr: 0x1BF7C, symSize: 0x174 }
  - { offset: 0x12A5F8, size: 0x8, addend: 0x0, symName: __ZNSt3__16vectorIN8nlohmann10basic_jsonINS_3mapES0_NS_12basic_stringIcNS_11char_traitsIcEENS_9allocatorIcEEEEbxydS7_NS1_14adl_serializerENS0_IhNS7_IhEEEEEENS7_ISD_EEE22__construct_one_at_endB8ne200100IJNS1_6detail7value_tEEEEvDpOT_, symObjAddr: 0x95A4, symBinAddr: 0x1C0F0, symSize: 0x48 }
  - { offset: 0x12A84F, size: 0x8, addend: 0x0, symName: __ZN8nlohmann6detail19json_sax_dom_parserINS_10basic_jsonINSt3__13mapENS3_6vectorENS3_12basic_stringIcNS3_11char_traitsIcEENS3_9allocatorIcEEEEbxydS9_NS_14adl_serializerENS5_IhNS9_IhEEEEEEE12handle_valueINS0_7value_tEEEPSF_OT_, symObjAddr: 0x9430, symBinAddr: 0x1BF7C, symSize: 0x174 }
  - { offset: 0x12A868, size: 0x8, addend: 0x0, symName: __ZNSt3__16__treeINS_12__value_typeINS_12basic_stringIcNS_11char_traitsIcEENS_9allocatorIcEEEEN8nlohmann10basic_jsonINS_3mapENS_6vectorES7_bxydS5_NS8_14adl_serializerENSB_IhNS5_IhEEEEEEEENS_19__map_value_compareIS7_SG_NS_4lessIvEELb1EEENS5_ISG_EEE25__emplace_unique_key_argsIS7_JRKNS_21piecewise_construct_tENS_5tupleIJRKS7_EEENSR_IJEEEEEENS_4pairINS_15__tree_iteratorISG_PNS_11__tree_nodeISG_PvEElEEbEERKT_DpOT0_, symObjAddr: 0x7E20, symBinAddr: 0x1AA3C, symSize: 0x94 }
  - { offset: 0x12A9F8, size: 0x8, addend: 0x0, symName: __ZN8nlohmann6detail19json_sax_dom_parserINS_10basic_jsonINSt3__13mapENS3_6vectorENS3_12basic_stringIcNS3_11char_traitsIcEENS3_9allocatorIcEEEEbxydS9_NS_14adl_serializerENS5_IhNS9_IhEEEEEEE12handle_valueIRdEEPSF_OT_, symObjAddr: 0x9704, symBinAddr: 0x1C250, symSize: 0x1A4 }
  - { offset: 0x12B071, size: 0x8, addend: 0x0, symName: __ZNSt3__16vectorIN8nlohmann10basic_jsonINS_3mapES0_NS_12basic_stringIcNS_11char_traitsIcEENS_9allocatorIcEEEEbxydS7_NS1_14adl_serializerENS0_IhNS7_IhEEEEEENS7_ISD_EEE24__emplace_back_slow_pathIJRdEEEPSD_DpOT_, symObjAddr: 0x98A8, symBinAddr: 0x1C3F4, symSize: 0x120 }
  - { offset: 0x12B084, size: 0x8, addend: 0x0, symName: __ZN8nlohmann6detail19json_sax_dom_parserINS_10basic_jsonINSt3__13mapENS3_6vectorENS3_12basic_stringIcNS3_11char_traitsIcEENS3_9allocatorIcEEEEbxydS9_NS_14adl_serializerENS5_IhNS9_IhEEEEEEE12handle_valueIRbEEPSF_OT_, symObjAddr: 0x99C8, symBinAddr: 0x1C514, symSize: 0x1A4 }
  - { offset: 0x12B6CD, size: 0x8, addend: 0x0, symName: __ZNSt3__16vectorIN8nlohmann10basic_jsonINS_3mapES0_NS_12basic_stringIcNS_11char_traitsIcEENS_9allocatorIcEEEEbxydS7_NS1_14adl_serializerENS0_IhNS7_IhEEEEEENS7_ISD_EEE24__emplace_back_slow_pathIJRbEEEPSD_DpOT_, symObjAddr: 0x9B6C, symBinAddr: 0x1C6B8, symSize: 0x120 }
  - { offset: 0x12B6E0, size: 0x8, addend: 0x0, symName: __ZN8nlohmann6detail19json_sax_dom_parserINS_10basic_jsonINSt3__13mapENS3_6vectorENS3_12basic_stringIcNS3_11char_traitsIcEENS3_9allocatorIcEEEEbxydS9_NS_14adl_serializerENS5_IhNS9_IhEEEEEEE12handle_valueIRxEEPSF_OT_, symObjAddr: 0x9F1C, symBinAddr: 0x1CA68, symSize: 0x1A4 }
  - { offset: 0x12BD53, size: 0x8, addend: 0x0, symName: __ZNSt3__16vectorIN8nlohmann10basic_jsonINS_3mapES0_NS_12basic_stringIcNS_11char_traitsIcEENS_9allocatorIcEEEEbxydS7_NS1_14adl_serializerENS0_IhNS7_IhEEEEEENS7_ISD_EEE24__emplace_back_slow_pathIJRxEEEPSD_DpOT_, symObjAddr: 0xA0C0, symBinAddr: 0x1CC0C, symSize: 0x120 }
  - { offset: 0x12BD66, size: 0x8, addend: 0x0, symName: __ZN8nlohmann6detail19json_sax_dom_parserINS_10basic_jsonINSt3__13mapENS3_6vectorENS3_12basic_stringIcNS3_11char_traitsIcEENS3_9allocatorIcEEEEbxydS9_NS_14adl_serializerENS5_IhNS9_IhEEEEEEE12handle_valueIDnEEPSF_OT_, symObjAddr: 0x9C8C, symBinAddr: 0x1C7D8, symSize: 0x188 }
  - { offset: 0x12C31A, size: 0x8, addend: 0x0, symName: __ZNSt3__16vectorIN8nlohmann10basic_jsonINS_3mapES0_NS_12basic_stringIcNS_11char_traitsIcEENS_9allocatorIcEEEEbxydS7_NS1_14adl_serializerENS0_IhNS7_IhEEEEEENS7_ISD_EEE24__emplace_back_slow_pathIJDnEEEPSD_DpOT_, symObjAddr: 0x9E14, symBinAddr: 0x1C960, symSize: 0x108 }
  - { offset: 0x12C32D, size: 0x8, addend: 0x0, symName: __ZN8nlohmann6detail19json_sax_dom_parserINS_10basic_jsonINSt3__13mapENS3_6vectorENS3_12basic_stringIcNS3_11char_traitsIcEENS3_9allocatorIcEEEEbxydS9_NS_14adl_serializerENS5_IhNS9_IhEEEEEEE12handle_valueIRSB_EEPSF_OT_, symObjAddr: 0xA1E0, symBinAddr: 0x1CD2C, symSize: 0x164 }
  - { offset: 0x12C7A2, size: 0x8, addend: 0x0, symName: __ZN8nlohmann6detail19json_sax_dom_parserINS_10basic_jsonINSt3__13mapENS3_6vectorENS3_12basic_stringIcNS3_11char_traitsIcEENS3_9allocatorIcEEEEbxydS9_NS_14adl_serializerENS5_IhNS9_IhEEEEEEE11parse_errorINS0_12out_of_rangeEEEbmRKSB_RKT_, symObjAddr: 0x9310, symBinAddr: 0x1BF2C, symSize: 0x50 }
  - { offset: 0x12C882, size: 0x8, addend: 0x0, symName: __ZNSt3__16vectorIbNS_9allocatorIbEEE7reserveEm, symObjAddr: 0x4DD0, symBinAddr: 0x17B28, symSize: 0xB8 }
  - { offset: 0x12CCD3, size: 0x8, addend: 0x0, symName: __ZNSt3__16vectorIbNS_9allocatorIbEEE11__vallocateB8ne200100Em, symObjAddr: 0x4E9C, symBinAddr: 0x17BE0, symSize: 0x40 }
  - { offset: 0x12CE0D, size: 0x8, addend: 0x0, symName: __ZNSt3__16vectorIbNS_9allocatorIbEEE11__vallocateB8ne200100Em, symObjAddr: 0x4E9C, symBinAddr: 0x17BE0, symSize: 0x40 }
  - { offset: 0x12CE80, size: 0x8, addend: 0x0, symName: __ZNSt3__16vectorIbNS_9allocatorIbEEE18__construct_at_endINS_14__bit_iteratorIS3_Lb0ELm0EEES6_EEvT_T0_m, symObjAddr: 0x4EDC, symBinAddr: 0x17C20, symSize: 0xA0 }
  - { offset: 0x12CE8A, size: 0x8, addend: 0x0, symName: __ZNSt3__16vectorIbNS_9allocatorIbEEE18__construct_at_endINS_14__bit_iteratorIS3_Lb0ELm0EEES6_EEvT_T0_m, symObjAddr: 0x4EDC, symBinAddr: 0x17C20, symSize: 0xA0 }
  - { offset: 0x12D1F2, size: 0x8, addend: 0x0, symName: __ZNKSt3__111__copy_implclB8ne200100INS_14__bit_iteratorINS_6vectorIbNS_9allocatorIbEEEELb0ELm0EEES7_S7_EENS_4pairIT_T1_EES9_T0_SA_, symObjAddr: 0x503C, symBinAddr: 0x17D80, symSize: 0xD0 }
  - { offset: 0x12D484, size: 0x8, addend: 0x0, symName: __ZNKSt3__18functionIFbiN8nlohmann6detail13parse_event_tERNS1_10basic_jsonINS_3mapENS_6vectorENS_12basic_stringIcNS_11char_traitsIcEENS_9allocatorIcEEEEbxydSA_NS1_14adl_serializerENS6_IhNSA_IhEEEEEEEEclEiS3_SH_, symObjAddr: 0x5A1C, symBinAddr: 0x18760, symSize: 0x40 }
  - { offset: 0x12D521, size: 0x8, addend: 0x0, symName: __ZN8nlohmann6detail28json_sax_dom_callback_parserINS_10basic_jsonINSt3__13mapENS3_6vectorENS3_12basic_stringIcNS3_11char_traitsIcEENS3_9allocatorIcEEEEbxydS9_NS_14adl_serializerENS5_IhNS9_IhEEEEEEE12handle_valueINS0_7value_tEEENS3_4pairIbPSF_EEOT_b, symObjAddr: 0x5A5C, symBinAddr: 0x187A0, symSize: 0x2B0 }
  - { offset: 0x12D52B, size: 0x8, addend: 0x0, symName: __ZN8nlohmann6detail28json_sax_dom_callback_parserINS_10basic_jsonINSt3__13mapENS3_6vectorENS3_12basic_stringIcNS3_11char_traitsIcEENS3_9allocatorIcEEEEbxydS9_NS_14adl_serializerENS5_IhNS9_IhEEEEEEE12handle_valueINS0_7value_tEEENS3_4pairIbPSF_EEOT_b, symObjAddr: 0x5A5C, symBinAddr: 0x187A0, symSize: 0x2B0 }
  - { offset: 0x12DB90, size: 0x8, addend: 0x0, symName: __ZNSt3__16vectorIPN8nlohmann10basic_jsonINS_3mapES0_NS_12basic_stringIcNS_11char_traitsIcEENS_9allocatorIcEEEEbxydS7_NS1_14adl_serializerENS0_IhNS7_IhEEEEEENS7_ISE_EEE9push_backB8ne200100ERKSE_, symObjAddr: 0x5D0C, symBinAddr: 0x18A50, symSize: 0xD0 }
  - { offset: 0x12E064, size: 0x8, addend: 0x0, symName: __ZN8nlohmann10basic_jsonINSt3__13mapENS1_6vectorENS1_12basic_stringIcNS1_11char_traitsIcEENS1_9allocatorIcEEEEbxydS7_NS_14adl_serializerENS3_IhNS7_IhEEEEEC2ERKSD_, symObjAddr: 0x66BC, symBinAddr: 0x19324, symSize: 0xE0 }
  - { offset: 0x12E1EF, size: 0x8, addend: 0x0, symName: __ZN8nlohmann6detail9iter_implINS_10basic_jsonINSt3__13mapENS3_6vectorENS3_12basic_stringIcNS3_11char_traitsIcEENS3_9allocatorIcEEEEbxydS9_NS_14adl_serializerENS5_IhNS9_IhEEEEEEEC2EPSF_, symObjAddr: 0x73F0, symBinAddr: 0x1A00C, symSize: 0x48 }
  - { offset: 0x12E27A, size: 0x8, addend: 0x0, symName: __ZN8nlohmann6detail9iter_implINS_10basic_jsonINSt3__13mapENS3_6vectorENS3_12basic_stringIcNS3_11char_traitsIcEENS3_9allocatorIcEEEEbxydS9_NS_14adl_serializerENS5_IhNS9_IhEEEEEEE9set_beginEv, symObjAddr: 0x7368, symBinAddr: 0x19F84, symSize: 0x88 }
  - { offset: 0x12E349, size: 0x8, addend: 0x0, symName: __ZN8nlohmann6detail9iter_implINS_10basic_jsonINSt3__13mapENS3_6vectorENS3_12basic_stringIcNS3_11char_traitsIcEENS3_9allocatorIcEEEEbxydS9_NS_14adl_serializerENS5_IhNS9_IhEEEEEEE7set_endEv, symObjAddr: 0x76DC, symBinAddr: 0x1A2F8, symSize: 0x7C }
  - { offset: 0x12E416, size: 0x8, addend: 0x0, symName: __ZNK8nlohmann6detail9iter_implINS_10basic_jsonINSt3__13mapENS3_6vectorENS3_12basic_stringIcNS3_11char_traitsIcEENS3_9allocatorIcEEEEbxydS9_NS_14adl_serializerENS5_IhNS9_IhEEEEEEEeqERKSG_, symObjAddr: 0x7438, symBinAddr: 0x1A054, symSize: 0x104 }
  - { offset: 0x12E670, size: 0x8, addend: 0x0, symName: __ZNK8nlohmann6detail9iter_implINS_10basic_jsonINSt3__13mapENS3_6vectorENS3_12basic_stringIcNS3_11char_traitsIcEENS3_9allocatorIcEEEEbxydS9_NS_14adl_serializerENS5_IhNS9_IhEEEEEEEptEv, symObjAddr: 0x6254, symBinAddr: 0x18EBC, symSize: 0x114 }
  - { offset: 0x12E96B, size: 0x8, addend: 0x0, symName: __ZN8nlohmann6detail9iter_implINS_10basic_jsonINSt3__13mapENS3_6vectorENS3_12basic_stringIcNS3_11char_traitsIcEENS3_9allocatorIcEEEEbxydS9_NS_14adl_serializerENS5_IhNS9_IhEEEEEEEppEv, symObjAddr: 0x6638, symBinAddr: 0x192A0, symSize: 0x84 }
  - { offset: 0x12EB0D, size: 0x8, addend: 0x0, symName: __ZN8nlohmann10basic_jsonINSt3__13mapENS1_6vectorENS1_12basic_stringIcNS1_11char_traitsIcEENS1_9allocatorIcEEEEbxydS7_NS_14adl_serializerENS3_IhNS7_IhEEEEEC2ERKSD_, symObjAddr: 0x66BC, symBinAddr: 0x19324, symSize: 0xE0 }
  - { offset: 0x12EB17, size: 0x8, addend: 0x0, symName: __ZN8nlohmann10basic_jsonINSt3__13mapENS1_6vectorENS1_12basic_stringIcNS1_11char_traitsIcEENS1_9allocatorIcEEEEbxydS7_NS_14adl_serializerENS3_IhNS7_IhEEEEE5eraseINS_6detail9iter_implISD_EELi0EEET_SI_, symObjAddr: 0x6368, symBinAddr: 0x18FD0, symSize: 0x2D0 }
  - { offset: 0x12F563, size: 0x8, addend: 0x0, symName: __ZN8nlohmann6detail28json_sax_dom_callback_parserINS_10basic_jsonINSt3__13mapENS3_6vectorENS3_12basic_stringIcNS3_11char_traitsIcEENS3_9allocatorIcEEEEbxydS9_NS_14adl_serializerENS5_IhNS9_IhEEEEEEE10end_objectEv.cold.2, symObjAddr: 0xB5EC, symBinAddr: 0x158134, symSize: 0x28 }
  - { offset: 0x12F57B, size: 0x8, addend: 0x0, symName: __ZN8nlohmann6detail28json_sax_dom_callback_parserINS_10basic_jsonINSt3__13mapENS3_6vectorENS3_12basic_stringIcNS3_11char_traitsIcEENS3_9allocatorIcEEEEbxydS9_NS_14adl_serializerENS5_IhNS9_IhEEEEEEE10end_objectEv.cold.1, symObjAddr: 0xB5C4, symBinAddr: 0x15810C, symSize: 0x28 }
  - { offset: 0x12F5D1, size: 0x8, addend: 0x0, symName: __ZN8nlohmann10basic_jsonINSt3__13mapENS1_6vectorENS1_12basic_stringIcNS1_11char_traitsIcEENS1_9allocatorIcEEEEbxydS7_NS_14adl_serializerENS3_IhNS7_IhEEEEEC2IRS9_S9_Li0EEEOT_, symObjAddr: 0x7DD8, symBinAddr: 0x1A9F4, symSize: 0x48 }
  - { offset: 0x12F772, size: 0x8, addend: 0x0, symName: __ZNSt3__16vectorIN8nlohmann10basic_jsonINS_3mapES0_NS_12basic_stringIcNS_11char_traitsIcEENS_9allocatorIcEEEEbxydS7_NS1_14adl_serializerENS0_IhNS7_IhEEEEEENS7_ISD_EEE22__base_destruct_at_endB8ne200100EPSD_, symObjAddr: 0x717C, symBinAddr: 0x19DAC, symSize: 0x60 }
  - { offset: 0x12F86E, size: 0x8, addend: 0x0, symName: __ZN8nlohmann6detail28json_sax_dom_callback_parserINS_10basic_jsonINSt3__13mapENS3_6vectorENS3_12basic_stringIcNS3_11char_traitsIcEENS3_9allocatorIcEEEEbxydS9_NS_14adl_serializerENS5_IhNS9_IhEEEEEEE9end_arrayEv.cold.2, symObjAddr: 0xB63C, symBinAddr: 0x158184, symSize: 0x28 }
  - { offset: 0x12F886, size: 0x8, addend: 0x0, symName: __ZN8nlohmann6detail28json_sax_dom_callback_parserINS_10basic_jsonINSt3__13mapENS3_6vectorENS3_12basic_stringIcNS3_11char_traitsIcEENS3_9allocatorIcEEEEbxydS9_NS_14adl_serializerENS5_IhNS9_IhEEEEEEE9end_arrayEv.cold.1, symObjAddr: 0xB614, symBinAddr: 0x15815C, symSize: 0x28 }
  - { offset: 0x12F89E, size: 0x8, addend: 0x0, symName: __ZN8nlohmann6detail12out_of_rangeC1ERKS1_, symObjAddr: 0x7F98, symBinAddr: 0x1ABB4, symSize: 0x54 }
  - { offset: 0x12F983, size: 0x8, addend: 0x0, symName: __ZN8nlohmann6detail12out_of_rangeD1Ev, symObjAddr: 0x59E8, symBinAddr: 0x1872C, symSize: 0x34 }
  - { offset: 0x12FB13, size: 0x8, addend: 0x0, symName: __ZNSt3__16vectorIN8nlohmann10basic_jsonINS_3mapES0_NS_12basic_stringIcNS_11char_traitsIcEENS_9allocatorIcEEEEbxydS7_NS1_14adl_serializerENS0_IhNS7_IhEEEEEENS7_ISD_EEE9push_backB8ne200100EOSD_, symObjAddr: 0x5E28, symBinAddr: 0x18B20, symSize: 0x74 }
  - { offset: 0x12FC77, size: 0x8, addend: 0x0, symName: __ZN8nlohmann6detail28json_sax_dom_callback_parserINS_10basic_jsonINSt3__13mapENS3_6vectorENS3_12basic_stringIcNS3_11char_traitsIcEENS3_9allocatorIcEEEEbxydS9_NS_14adl_serializerENS5_IhNS9_IhEEEEEEE12handle_valueINS0_7value_tEEENS3_4pairIbPSF_EEOT_b.cold.1, symObjAddr: 0xB664, symBinAddr: 0x1581AC, symSize: 0x24 }
  - { offset: 0x130067, size: 0x8, addend: 0x0, symName: __ZNSt3__16vectorIN8nlohmann10basic_jsonINS_3mapES0_NS_12basic_stringIcNS_11char_traitsIcEENS_9allocatorIcEEEEbxydS7_NS1_14adl_serializerENS0_IhNS7_IhEEEEEENS7_ISD_EEE24__emplace_back_slow_pathIJSD_EEEPSD_DpOT_, symObjAddr: 0x5E9C, symBinAddr: 0x18B94, symSize: 0x124 }
  - { offset: 0x1304D2, size: 0x8, addend: 0x0, symName: __ZNSt3__114__split_bufferIN8nlohmann10basic_jsonINS_3mapENS_6vectorENS_12basic_stringIcNS_11char_traitsIcEENS_9allocatorIcEEEEbxydS8_NS1_14adl_serializerENS4_IhNS8_IhEEEEEERNS8_ISE_EEED2Ev, symObjAddr: 0x6180, symBinAddr: 0x18E30, symSize: 0x34 }
  - { offset: 0x13065C, size: 0x8, addend: 0x0, symName: __ZNSt3__128__exception_guard_exceptionsINS_29_AllocatorDestroyRangeReverseINS_9allocatorIN8nlohmann10basic_jsonINS_3mapENS_6vectorENS_12basic_stringIcNS_11char_traitsIcEENS2_IcEEEEbxydS2_NS3_14adl_serializerENS6_IhNS2_IhEEEEEEEEPSF_EEED2B8ne200100Ev, symObjAddr: 0x60E4, symBinAddr: 0x18D94, symSize: 0x48 }
  - { offset: 0x130735, size: 0x8, addend: 0x0, symName: __ZNSt3__114__split_bufferIN8nlohmann10basic_jsonINS_3mapENS_6vectorENS_12basic_stringIcNS_11char_traitsIcEENS_9allocatorIcEEEEbxydS8_NS1_14adl_serializerENS4_IhNS8_IhEEEEEERNS8_ISE_EEE17__destruct_at_endB8ne200100EPSE_, symObjAddr: 0x61B4, symBinAddr: 0x18E64, symSize: 0x58 }
  - { offset: 0x1308D1, size: 0x8, addend: 0x0, symName: __ZNK8nlohmann6detail9iter_implINS_10basic_jsonINSt3__13mapENS3_6vectorENS3_12basic_stringIcNS3_11char_traitsIcEENS3_9allocatorIcEEEEbxydS9_NS_14adl_serializerENS5_IhNS9_IhEEEEEEEptEv.cold.1, symObjAddr: 0xB688, symBinAddr: 0x1581D0, symSize: 0x28 }
  - { offset: 0x1308E9, size: 0x8, addend: 0x0, symName: __ZNK8nlohmann6detail9iter_implINS_10basic_jsonINSt3__13mapENS3_6vectorENS3_12basic_stringIcNS3_11char_traitsIcEENS3_9allocatorIcEEEEbxydS9_NS_14adl_serializerENS5_IhNS9_IhEEEEEEEptEv.cold.3, symObjAddr: 0xB6D8, symBinAddr: 0x158220, symSize: 0x28 }
  - { offset: 0x130901, size: 0x8, addend: 0x0, symName: __ZNK8nlohmann6detail9iter_implINS_10basic_jsonINSt3__13mapENS3_6vectorENS3_12basic_stringIcNS3_11char_traitsIcEENS3_9allocatorIcEEEEbxydS9_NS_14adl_serializerENS5_IhNS9_IhEEEEEEEptEv.cold.2, symObjAddr: 0xB6B0, symBinAddr: 0x1581F8, symSize: 0x28 }
  - { offset: 0x13091E, size: 0x8, addend: 0x0, symName: __ZN8nlohmann6detail16invalid_iterator6createEiRKNSt3__112basic_stringIcNS2_11char_traitsIcEENS2_9allocatorIcEEEE, symObjAddr: 0x753C, symBinAddr: 0x1A158, symSize: 0x134 }
  - { offset: 0x1314B1, size: 0x8, addend: 0x0, symName: __ZNKSt3__111__move_implINS_17_ClassicAlgPolicyEEclB8ne200100IPN8nlohmann10basic_jsonINS_3mapENS_6vectorENS_12basic_stringIcNS_11char_traitsIcEENS_9allocatorIcEEEEbxydSB_NS4_14adl_serializerENS7_IhNSB_IhEEEEEESI_SI_EENS_4pairIT_T1_EESK_T0_SL_, symObjAddr: 0x7CD8, symBinAddr: 0x1A8F4, symSize: 0xC8 }
  - { offset: 0x131699, size: 0x8, addend: 0x0, symName: __ZNSt3__16__treeINS_12__value_typeINS_12basic_stringIcNS_11char_traitsIcEENS_9allocatorIcEEEEN8nlohmann10basic_jsonINS_3mapENS_6vectorES7_bxydS5_NS8_14adl_serializerENSB_IhNS5_IhEEEEEEEENS_19__map_value_compareIS7_SG_NS_4lessIvEELb1EEENS5_ISG_EEE21__remove_node_pointerEPNS_11__tree_nodeISG_PvEE, symObjAddr: 0x78E8, symBinAddr: 0x1A504, symSize: 0x70 }
  - { offset: 0x1317CB, size: 0x8, addend: 0x0, symName: __ZN8nlohmann6detail9iter_implINS_10basic_jsonINSt3__13mapENS3_6vectorENS3_12basic_stringIcNS3_11char_traitsIcEENS3_9allocatorIcEEEEbxydS9_NS_14adl_serializerENS5_IhNS9_IhEEEEEEEppEv.cold.1, symObjAddr: 0xB700, symBinAddr: 0x158248, symSize: 0x28 }
  - { offset: 0x13190B, size: 0x8, addend: 0x0, symName: __ZN8nlohmann10basic_jsonINSt3__13mapENS1_6vectorENS1_12basic_stringIcNS1_11char_traitsIcEENS1_9allocatorIcEEEEbxydS7_NS_14adl_serializerENS3_IhNS7_IhEEEEE6createINS3_ISD_NS7_ISD_EEEEJRKSG_EEEPT_DpOT0_, symObjAddr: 0x6F88, symBinAddr: 0x19BF0, symSize: 0x58 }
  - { offset: 0x131BCE, size: 0x8, addend: 0x0, symName: __ZN8nlohmann10basic_jsonINSt3__13mapENS1_6vectorENS1_12basic_stringIcNS1_11char_traitsIcEENS1_9allocatorIcEEEEbxydS7_NS_14adl_serializerENS3_IhNS7_IhEEEEE6createINS_27byte_container_with_subtypeISC_EEJRKSG_EEEPT_DpOT0_, symObjAddr: 0x7244, symBinAddr: 0x19E74, symSize: 0x5C }
  - { offset: 0x131EBD, size: 0x8, addend: 0x0, symName: __ZN8nlohmann10basic_jsonINSt3__13mapENS1_6vectorENS1_12basic_stringIcNS1_11char_traitsIcEENS1_9allocatorIcEEEEbxydS7_NS_14adl_serializerENS3_IhNS7_IhEEEEE6createINS2_IS9_SD_NS1_4lessIvEENS7_INS1_4pairIKS9_SD_EEEEEEJRKSL_EEEPT_DpOT0_, symObjAddr: 0x679C, symBinAddr: 0x19404, symSize: 0x48 }
  - { offset: 0x13214D, size: 0x8, addend: 0x0, symName: __ZN8nlohmann10basic_jsonINSt3__13mapENS1_6vectorENS1_12basic_stringIcNS1_11char_traitsIcEENS1_9allocatorIcEEEEbxydS7_NS_14adl_serializerENS3_IhNS7_IhEEEEE6createIS9_JRKS9_EEEPT_DpOT0_, symObjAddr: 0x71DC, symBinAddr: 0x19E0C, symSize: 0x68 }
  - { offset: 0x1325E0, size: 0x8, addend: 0x0, symName: __ZNSt3__13mapINS_12basic_stringIcNS_11char_traitsIcEENS_9allocatorIcEEEEN8nlohmann10basic_jsonIS0_NS_6vectorES6_bxydS4_NS7_14adl_serializerENS9_IhNS4_IhEEEEEENS_4lessIvEENS4_INS_4pairIKS6_SD_EEEEEC2B8ne200100ERKSK_, symObjAddr: 0x67E4, symBinAddr: 0x1944C, symSize: 0x54 }
  - { offset: 0x13283E, size: 0x8, addend: 0x0, symName: __ZNSt3__13mapINS_12basic_stringIcNS_11char_traitsIcEENS_9allocatorIcEEEEN8nlohmann10basic_jsonIS0_NS_6vectorES6_bxydS4_NS7_14adl_serializerENS9_IhNS4_IhEEEEEENS_4lessIvEENS4_INS_4pairIKS6_SD_EEEEE6insertB8ne200100INS_20__map_const_iteratorINS_21__tree_const_iteratorINS_12__value_typeIS6_SD_EEPNS_11__tree_nodeISP_PvEElEEEEEEvT_SW_, symObjAddr: 0x6838, symBinAddr: 0x194A0, symSize: 0x80 }
  - { offset: 0x132882, size: 0x8, addend: 0x0, symName: __ZNSt3__13mapINS_12basic_stringIcNS_11char_traitsIcEENS_9allocatorIcEEEEN8nlohmann10basic_jsonIS0_NS_6vectorES6_bxydS4_NS7_14adl_serializerENS9_IhNS4_IhEEEEEENS_4lessIvEENS4_INS_4pairIKS6_SD_EEEEE6insertB8ne200100INS_20__map_const_iteratorINS_21__tree_const_iteratorINS_12__value_typeIS6_SD_EEPNS_11__tree_nodeISP_PvEElEEEEEEvT_SW_, symObjAddr: 0x6838, symBinAddr: 0x194A0, symSize: 0x80 }
  - { offset: 0x132A13, size: 0x8, addend: 0x0, symName: __ZNSt3__16__treeINS_12__value_typeINS_12basic_stringIcNS_11char_traitsIcEENS_9allocatorIcEEEEN8nlohmann10basic_jsonINS_3mapENS_6vectorES7_bxydS5_NS8_14adl_serializerENSB_IhNS5_IhEEEEEEEENS_19__map_value_compareIS7_SG_NS_4lessIvEELb1EEENS5_ISG_EEE7destroyEPNS_11__tree_nodeISG_PvEE, symObjAddr: 0x6F24, symBinAddr: 0x19B8C, symSize: 0x64 }
  - { offset: 0x132E02, size: 0x8, addend: 0x0, symName: __ZNSt3__16__treeINS_12__value_typeINS_12basic_stringIcNS_11char_traitsIcEENS_9allocatorIcEEEEN8nlohmann10basic_jsonINS_3mapENS_6vectorES7_bxydS5_NS8_14adl_serializerENSB_IhNS5_IhEEEEEEEENS_19__map_value_compareIS7_SG_NS_4lessIvEELb1EEENS5_ISG_EEE30__emplace_hint_unique_key_argsIS7_JRKNS_4pairIKS7_SF_EEEEENSO_INS_15__tree_iteratorISG_PNS_11__tree_nodeISG_PvEElEEbEENS_21__tree_const_iteratorISG_SX_lEERKT_DpOT0_, symObjAddr: 0x68B8, symBinAddr: 0x19520, symSize: 0x80 }
  - { offset: 0x132FCC, size: 0x8, addend: 0x0, symName: __ZNSt3__16__treeINS_12__value_typeINS_12basic_stringIcNS_11char_traitsIcEENS_9allocatorIcEEEEN8nlohmann10basic_jsonINS_3mapENS_6vectorES7_bxydS5_NS8_14adl_serializerENSB_IhNS5_IhEEEEEEEENS_19__map_value_compareIS7_SG_NS_4lessIvEELb1EEENS5_ISG_EEE12__find_equalIS7_EERPNS_16__tree_node_baseIPvEENS_21__tree_const_iteratorISG_PNS_11__tree_nodeISG_SP_EElEERPNS_15__tree_end_nodeISR_EESS_RKT_, symObjAddr: 0x6938, symBinAddr: 0x195A0, symSize: 0x190 }
  - { offset: 0x13330F, size: 0x8, addend: 0x0, symName: __ZNSt3__16__treeINS_12__value_typeINS_12basic_stringIcNS_11char_traitsIcEENS_9allocatorIcEEEEN8nlohmann10basic_jsonINS_3mapENS_6vectorES7_bxydS5_NS8_14adl_serializerENSB_IhNS5_IhEEEEEEEENS_19__map_value_compareIS7_SG_NS_4lessIvEELb1EEENS5_ISG_EEE16__construct_nodeIJRKNS_4pairIKS7_SF_EEEEENS_10unique_ptrINS_11__tree_nodeISG_PvEENS_22__tree_node_destructorINS5_ISW_EEEEEEDpOT_, symObjAddr: 0x6AC8, symBinAddr: 0x19730, symSize: 0x68 }
  - { offset: 0x13353F, size: 0x8, addend: 0x0, symName: __ZNSt3__16__treeINS_12__value_typeINS_12basic_stringIcNS_11char_traitsIcEENS_9allocatorIcEEEEN8nlohmann10basic_jsonINS_3mapENS_6vectorES7_bxydS5_NS8_14adl_serializerENSB_IhNS5_IhEEEEEEEENS_19__map_value_compareIS7_SG_NS_4lessIvEELb1EEENS5_ISG_EEE16__insert_node_atEPNS_15__tree_end_nodeIPNS_16__tree_node_baseIPvEEEERSR_SR_, symObjAddr: 0x6B30, symBinAddr: 0x19798, symSize: 0x54 }
  - { offset: 0x13362D, size: 0x8, addend: 0x0, symName: __ZNKSt3__14lessIvEclB8ne200100IRKNS_12basic_stringIcNS_11char_traitsIcEENS_9allocatorIcEEEESA_EEDTltclsr3stdE7forwardIT_Efp_Eclsr3stdE7forwardIT0_Efp0_EEOSB_OSC_, symObjAddr: 0x6C1C, symBinAddr: 0x19884, symSize: 0x68 }
  - { offset: 0x1337CF, size: 0x8, addend: 0x0, symName: __ZNSt3__16__treeINS_12__value_typeINS_12basic_stringIcNS_11char_traitsIcEENS_9allocatorIcEEEEN8nlohmann10basic_jsonINS_3mapENS_6vectorES7_bxydS5_NS8_14adl_serializerENSB_IhNS5_IhEEEEEEEENS_19__map_value_compareIS7_SG_NS_4lessIvEELb1EEENS5_ISG_EEE12__find_equalIS7_EERPNS_16__tree_node_baseIPvEERPNS_15__tree_end_nodeISR_EERKT_, symObjAddr: 0x6B84, symBinAddr: 0x197EC, symSize: 0x98 }
  - { offset: 0x133AAE, size: 0x8, addend: 0x0, symName: __ZNSt3__14pairIKNS_12basic_stringIcNS_11char_traitsIcEENS_9allocatorIcEEEEN8nlohmann10basic_jsonINS_3mapENS_6vectorES6_bxydS4_NS8_14adl_serializerENSB_IhNS4_IhEEEEEEEC2B8ne200100ERKSG_, symObjAddr: 0x6C84, symBinAddr: 0x198EC, symSize: 0x74 }
  - { offset: 0x133C92, size: 0x8, addend: 0x0, symName: __ZNSt3__110unique_ptrINS_11__tree_nodeINS_12__value_typeINS_12basic_stringIcNS_11char_traitsIcEENS_9allocatorIcEEEEN8nlohmann10basic_jsonINS_3mapENS_6vectorES8_bxydS6_NS9_14adl_serializerENSC_IhNS6_IhEEEEEEEEPvEENS_22__tree_node_destructorINS6_ISJ_EEEEE5resetB8ne200100EPSJ_, symObjAddr: 0x6E94, symBinAddr: 0x19AFC, symSize: 0x48 }
  - { offset: 0x134121, size: 0x8, addend: 0x0, symName: __ZNSt3__16vectorIN8nlohmann10basic_jsonINS_3mapES0_NS_12basic_stringIcNS_11char_traitsIcEENS_9allocatorIcEEEEbxydS7_NS1_14adl_serializerENS0_IhNS7_IhEEEEEENS7_ISD_EEE16__init_with_sizeB8ne200100IPSD_SH_EEvT_T0_m, symObjAddr: 0x6FE0, symBinAddr: 0x19C48, symSize: 0x84 }
  - { offset: 0x134516, size: 0x8, addend: 0x0, symName: __ZNSt3__135__uninitialized_allocator_copy_implB8ne200100INS_9allocatorIN8nlohmann10basic_jsonINS_3mapENS_6vectorENS_12basic_stringIcNS_11char_traitsIcEENS1_IcEEEEbxydS1_NS2_14adl_serializerENS5_IhNS1_IhEEEEEEEEPSE_SG_SG_EET2_RT_T0_T1_SH_, symObjAddr: 0x709C, symBinAddr: 0x19CCC, symSize: 0xA0 }
  - { offset: 0x134520, size: 0x8, addend: 0x0, symName: __ZNSt3__16vectorIN8nlohmann10basic_jsonINS_3mapES0_NS_12basic_stringIcNS_11char_traitsIcEENS_9allocatorIcEEEEbxydS7_NS1_14adl_serializerENS0_IhNS7_IhEEEEEENS7_ISD_EEE16__destroy_vectorclB8ne200100Ev, symObjAddr: 0x713C, symBinAddr: 0x19D6C, symSize: 0x40 }
  - { offset: 0x134A32, size: 0x8, addend: 0x0, symName: __ZNSt3__16vectorIhNS_9allocatorIhEEE16__init_with_sizeB8ne200100IPhS5_EEvT_T0_m, symObjAddr: 0x72A0, symBinAddr: 0x19ED0, symSize: 0x78 }
  - { offset: 0x134F8D, size: 0x8, addend: 0x0, symName: __ZNSt3__16vectorIhNS_9allocatorIhEEE11__vallocateB8ne200100Em, symObjAddr: 0x7318, symBinAddr: 0x19F48, symSize: 0x3C }
  - { offset: 0x135097, size: 0x8, addend: 0x0, symName: __ZN8nlohmann6detail9iter_implINS_10basic_jsonINSt3__13mapENS3_6vectorENS3_12basic_stringIcNS3_11char_traitsIcEENS3_9allocatorIcEEEEbxydS9_NS_14adl_serializerENS5_IhNS9_IhEEEEEEE9set_beginEv, symObjAddr: 0x7368, symBinAddr: 0x19F84, symSize: 0x88 }
  - { offset: 0x135124, size: 0x8, addend: 0x0, symName: __ZNK8nlohmann6detail9iter_implINS_10basic_jsonINSt3__13mapENS3_6vectorENS3_12basic_stringIcNS3_11char_traitsIcEENS3_9allocatorIcEEEEbxydS9_NS_14adl_serializerENS5_IhNS9_IhEEEEEEEeqERKSG_.cold.1, symObjAddr: 0xB728, symBinAddr: 0x158270, symSize: 0x28 }
  - { offset: 0x1351BF, size: 0x8, addend: 0x0, symName: __ZN8nlohmann6detail16invalid_iteratorD1Ev, symObjAddr: 0x7670, symBinAddr: 0x1A28C, symSize: 0x34 }
  - { offset: 0x13523B, size: 0x8, addend: 0x0, symName: __ZN8nlohmann6detail16invalid_iteratorD0Ev, symObjAddr: 0x76A4, symBinAddr: 0x1A2C0, symSize: 0x38 }
  - { offset: 0x135342, size: 0x8, addend: 0x0, symName: __ZN8nlohmann6detail10type_errorD1Ev, symObjAddr: 0x78B4, symBinAddr: 0x1A4D0, symSize: 0x34 }
  - { offset: 0x1353BE, size: 0x8, addend: 0x0, symName: __ZN8nlohmann6detail10type_errorD0Ev, symObjAddr: 0x7DA0, symBinAddr: 0x1A9BC, symSize: 0x38 }
  - { offset: 0x1354E2, size: 0x8, addend: 0x0, symName: __ZNSt3__16__treeINS_12__value_typeINS_12basic_stringIcNS_11char_traitsIcEENS_9allocatorIcEEEEN8nlohmann10basic_jsonINS_3mapENS_6vectorES7_bxydS5_NS8_14adl_serializerENSB_IhNS5_IhEEEEEEEENS_19__map_value_compareIS7_SG_NS_4lessIvEELb1EEENS5_ISG_EEE16__construct_nodeIJRKNS_21piecewise_construct_tENS_5tupleIJRKS7_EEENSR_IJEEEEEENS_10unique_ptrINS_11__tree_nodeISG_PvEENS_22__tree_node_destructorINS5_ISZ_EEEEEEDpOT_, symObjAddr: 0x7EB4, symBinAddr: 0x1AAD0, symSize: 0x7C }
  - { offset: 0x1358E1, size: 0x8, addend: 0x0, symName: __ZNSt3__14pairIKNS_12basic_stringIcNS_11char_traitsIcEENS_9allocatorIcEEEEN8nlohmann10basic_jsonINS_3mapENS_6vectorES6_bxydS4_NS8_14adl_serializerENSB_IhNS4_IhEEEEEEEC2B8ne200100IJRS7_EJEJLm0EEJEEENS_21piecewise_construct_tERNS_5tupleIJDpT_EEERNSK_IJDpT0_EEENS_15__tuple_indicesIJXspT1_EEEENST_IJXspT2_EEEE, symObjAddr: 0x7F30, symBinAddr: 0x1AB4C, symSize: 0x68 }
  - { offset: 0x135B73, size: 0x8, addend: 0x0, symName: __ZN8nlohmann6detail12out_of_rangeD0Ev, symObjAddr: 0x7FEC, symBinAddr: 0x1AC08, symSize: 0x38 }
  - { offset: 0x1360A0, size: 0x8, addend: 0x0, symName: __ZN8nlohmann6detail11parse_errorD0Ev, symObjAddr: 0x90B4, symBinAddr: 0x1BCD0, symSize: 0x38 }
  - { offset: 0x136288, size: 0x8, addend: 0x0, symName: __ZNSt3__16vectorIN8nlohmann10basic_jsonINS_3mapES0_NS_12basic_stringIcNS_11char_traitsIcEENS_9allocatorIcEEEEbxydS7_NS1_14adl_serializerENS0_IhNS7_IhEEEEEENS7_ISD_EEE22__construct_one_at_endB8ne200100IJNS1_6detail7value_tEEEEvDpOT_, symObjAddr: 0x95A4, symBinAddr: 0x1C0F0, symSize: 0x48 }
  - { offset: 0x13644A, size: 0x8, addend: 0x0, symName: __ZNSt3__16vectorIN8nlohmann10basic_jsonINS_3mapES0_NS_12basic_stringIcNS_11char_traitsIcEENS_9allocatorIcEEEEbxydS7_NS1_14adl_serializerENS0_IhNS7_IhEEEEEENS7_ISD_EEE24__emplace_back_slow_pathIJNS1_6detail7value_tEEEEPSD_DpOT_, symObjAddr: 0x95EC, symBinAddr: 0x1C138, symSize: 0x118 }
  - { offset: 0x13677F, size: 0x8, addend: 0x0, symName: __ZN8nlohmann6detail19json_sax_dom_parserINS_10basic_jsonINSt3__13mapENS3_6vectorENS3_12basic_stringIcNS3_11char_traitsIcEENS3_9allocatorIcEEEEbxydS9_NS_14adl_serializerENS5_IhNS9_IhEEEEEEE12handle_valueINS0_7value_tEEEPSF_OT_.cold.2, symObjAddr: 0xB84C, symBinAddr: 0x1582BC, symSize: 0x24 }
  - { offset: 0x136797, size: 0x8, addend: 0x0, symName: __ZN8nlohmann6detail19json_sax_dom_parserINS_10basic_jsonINSt3__13mapENS3_6vectorENS3_12basic_stringIcNS3_11char_traitsIcEENS3_9allocatorIcEEEEbxydS9_NS_14adl_serializerENS5_IhNS9_IhEEEEEEE12handle_valueINS0_7value_tEEEPSF_OT_.cold.1, symObjAddr: 0xB828, symBinAddr: 0x158298, symSize: 0x24 }
  - { offset: 0x136924, size: 0x8, addend: 0x0, symName: __ZNSt3__16vectorIN8nlohmann10basic_jsonINS_3mapES0_NS_12basic_stringIcNS_11char_traitsIcEENS_9allocatorIcEEEEbxydS7_NS1_14adl_serializerENS0_IhNS7_IhEEEEEENS7_ISD_EEE24__emplace_back_slow_pathIJRdEEEPSD_DpOT_, symObjAddr: 0x98A8, symBinAddr: 0x1C3F4, symSize: 0x120 }
  - { offset: 0x136DE8, size: 0x8, addend: 0x0, symName: __ZNSt3__16vectorIN8nlohmann10basic_jsonINS_3mapES0_NS_12basic_stringIcNS_11char_traitsIcEENS_9allocatorIcEEEEbxydS7_NS1_14adl_serializerENS0_IhNS7_IhEEEEEENS7_ISD_EEE24__emplace_back_slow_pathIJRbEEEPSD_DpOT_, symObjAddr: 0x9B6C, symBinAddr: 0x1C6B8, symSize: 0x120 }
  - { offset: 0x13729C, size: 0x8, addend: 0x0, symName: __ZNSt3__16vectorIN8nlohmann10basic_jsonINS_3mapES0_NS_12basic_stringIcNS_11char_traitsIcEENS_9allocatorIcEEEEbxydS7_NS1_14adl_serializerENS0_IhNS7_IhEEEEEENS7_ISD_EEE24__emplace_back_slow_pathIJDnEEEPSD_DpOT_, symObjAddr: 0x9E14, symBinAddr: 0x1C960, symSize: 0x108 }
  - { offset: 0x137730, size: 0x8, addend: 0x0, symName: __ZNSt3__16vectorIN8nlohmann10basic_jsonINS_3mapES0_NS_12basic_stringIcNS_11char_traitsIcEENS_9allocatorIcEEEEbxydS7_NS1_14adl_serializerENS0_IhNS7_IhEEEEEENS7_ISD_EEE24__emplace_back_slow_pathIJRxEEEPSD_DpOT_, symObjAddr: 0xA0C0, symBinAddr: 0x1CC0C, symSize: 0x120 }
  - { offset: 0x137BF2, size: 0x8, addend: 0x0, symName: __ZNSt3__16vectorIN8nlohmann10basic_jsonINS_3mapES0_NS_12basic_stringIcNS_11char_traitsIcEENS_9allocatorIcEEEEbxydS7_NS1_14adl_serializerENS0_IhNS7_IhEEEEEENS7_ISD_EEE24__emplace_back_slow_pathIJRS9_EEEPSD_DpOT_, symObjAddr: 0xA344, symBinAddr: 0x1CE90, symSize: 0x10C }
  - { offset: 0x137FE8, size: 0x8, addend: 0x0, symName: __ZNSt3__16vectorIN8nlohmann10basic_jsonINS_3mapES0_NS_12basic_stringIcNS_11char_traitsIcEENS_9allocatorIcEEEEbxydS7_NS1_14adl_serializerENS0_IhNS7_IhEEEEEENS7_ISD_EEE24__emplace_back_slow_pathIJRyEEEPSD_DpOT_, symObjAddr: 0xA5F4, symBinAddr: 0x1D140, symSize: 0x120 }
  - { offset: 0x138E98, size: 0x8, addend: 0x0, symName: __ZN8firebase9firestore6bundle14BundleDocumentD0Ev, symObjAddr: 0xAB1C, symBinAddr: 0x1D260, symSize: 0x3C }
  - { offset: 0x138F90, size: 0x8, addend: 0x0, symName: __ZNK8firebase9firestore6bundle14BundleDocument12element_typeEv, symObjAddr: 0xAB58, symBinAddr: 0x1D29C, symSize: 0x8 }
  - { offset: 0x13928E, size: 0x8, addend: 0x0, symName: __ZNSt3__16vectorIN8nlohmann10basic_jsonINS_3mapES0_NS_12basic_stringIcNS_11char_traitsIcEENS_9allocatorIcEEEEbxydS7_NS1_14adl_serializerENS0_IhNS7_IhEEEEEENS7_ISD_EEE7reserveEm, symObjAddr: 0xAFB0, symBinAddr: 0x1D5F8, symSize: 0xB8 }
  - { offset: 0x1395F5, size: 0x8, addend: 0x0, symName: __ZNSt12out_of_rangeC1B8ne200100EPKc, symObjAddr: 0xB170, symBinAddr: 0x1D7B8, symSize: 0x24 }
  - { offset: 0x1398C8, size: 0x8, addend: 0x0, symName: _OUTLINED_FUNCTION_0, symObjAddr: 0xBA20, symBinAddr: 0x1D7DC, symSize: 0x8 }
  - { offset: 0x1398E0, size: 0x8, addend: 0x0, symName: _OUTLINED_FUNCTION_1, symObjAddr: 0xBA28, symBinAddr: 0x1D7E4, symSize: 0x8 }
  - { offset: 0x1398F8, size: 0x8, addend: 0x0, symName: _OUTLINED_FUNCTION_2, symObjAddr: 0xBA30, symBinAddr: 0x1D7EC, symSize: 0x8 }
  - { offset: 0x13B741, size: 0x8, addend: 0x0, symName: __ZN8firebase9firestore6bundle12_GLOBAL__N_113kDefaultBoundE, symObjAddr: 0x189250, symBinAddr: 0x219170, symSize: 0x0 }
  - { offset: 0x13B74F, size: 0x8, addend: 0x0, symName: __ZN8firebase9firestore6bundle12_GLOBAL__N_121DecodeSnapshotVersionERNS0_4util10JsonReaderERKN8nlohmann10basic_jsonINSt3__13mapENS8_6vectorENS8_12basic_stringIcNS8_11char_traitsIcEENS8_9allocatorIcEEEEbxydSE_NS6_14adl_serializerENSA_IhNSE_IhEEEEEE, symObjAddr: 0x288, symBinAddr: 0x1DA7C, symSize: 0x34 }
  - { offset: 0x13B7A8, size: 0x8, addend: 0x0, symName: __ZN8firebase9firestore6bundle12_GLOBAL__N_115DecodeTimestampERNS0_4util10JsonReaderERKN8nlohmann10basic_jsonINSt3__13mapENS8_6vectorENS8_12basic_stringIcNS8_11char_traitsIcEENS8_9allocatorIcEEEEbxydSE_NS6_14adl_serializerENSA_IhNSE_IhEEEEEE, symObjAddr: 0x3F40, symBinAddr: 0x21704, symSize: 0x214 }
  - { offset: 0x13C554, size: 0x8, addend: 0x0, symName: __ZN8firebase9firestore6bundle12_GLOBAL__N_120DecodeFieldReferenceERNS0_4util10JsonReaderERKN8nlohmann10basic_jsonINSt3__13mapENS8_6vectorENS8_12basic_stringIcNS8_11char_traitsIcEENS8_9allocatorIcEEEEbxydSE_NS6_14adl_serializerENSA_IhNSE_IhEEEEEE, symObjAddr: 0x3334, symBinAddr: 0x20B28, symSize: 0xDC }
  - { offset: 0x13C95B, size: 0x8, addend: 0x0, symName: __ZN8firebase9firestore6bundle12_GLOBAL__N_117DecodeUnaryFilterERNS0_4util10JsonReaderERKN8nlohmann10basic_jsonINSt3__13mapENS8_6vectorENS8_12basic_stringIcNS8_11char_traitsIcEENS8_9allocatorIcEEEEbxydSE_NS6_14adl_serializerENSA_IhNSE_IhEEEEEE, symObjAddr: 0x2CC0, symBinAddr: 0x204B4, symSize: 0x674 }
  - { offset: 0x13E95A, size: 0x8, addend: 0x0, symName: __ZN8firebase9firestore6bundle12_GLOBAL__N_113InvalidFilterEv, symObjAddr: 0x3B50, symBinAddr: 0x21344, symSize: 0xD4 }
  - { offset: 0x13EDF9, size: 0x8, addend: 0x0, symName: __ZN8firebase9firestore6bundle12_GLOBAL__N_116DecodeBytesValueERNS0_4util10JsonReaderERKNSt3__112basic_stringIcNS6_11char_traitsIcEENS6_9allocatorIcEEEE, symObjAddr: 0x4154, symBinAddr: 0x21918, symSize: 0xBC }
  - { offset: 0x13F1B8, size: 0x8, addend: 0x0, symName: __ZN8firebase9firestore6bundle12_GLOBAL__N_119DecodeGeoPointValueERNS0_4util10JsonReaderERKN8nlohmann10basic_jsonINSt3__13mapENS8_6vectorENS8_12basic_stringIcNS8_11char_traitsIcEENS8_9allocatorIcEEEEbxydSE_NS6_14adl_serializerENSA_IhNSE_IhEEEEEE, symObjAddr: 0x431C, symBinAddr: 0x21AE0, symSize: 0x60 }
  - { offset: 0x140842, size: 0x8, addend: 0x0, symName: __ZN8firebase9firestore4util12StringFormatIJmmEEENSt3__112basic_stringIcNS3_11char_traitsIcEENS3_9allocatorIcEEEEPKcDpRKT_, symObjAddr: 0x9668, symBinAddr: 0x24728, symSize: 0x9C }
  - { offset: 0x140CEA, size: 0x8, addend: 0x0, symName: __ZN8firebase9firestore4util12StringFormatIJPKcEEENSt3__112basic_stringIcNS5_11char_traitsIcEENS5_9allocatorIcEEEES4_DpRKT_, symObjAddr: 0x9034, symBinAddr: 0x241B0, symSize: 0x90 }
  - { offset: 0x142380, size: 0x8, addend: 0x0, symName: __ZN8firebase9firestore6nanopb17MakeSharedMessageINS0_31_google_firestore_v1_ArrayValueEEENS1_13SharedMessageIT_EERKS5_, symObjAddr: 0x0, symBinAddr: 0x1D7F4, symSize: 0x84 }
  - { offset: 0x142730, size: 0x8, addend: 0x0, symName: __ZN8firebase9firestore6nanopb17MakeSharedMessageINS0_26_google_firestore_v1_ValueEEENS1_13SharedMessageIT_EERKS5_, symObjAddr: 0x71B4, symBinAddr: 0x23640, symSize: 0x94 }
  - { offset: 0x152D89, size: 0x8, addend: 0x0, symName: __ZNSt3__115allocate_sharedB8ne200100INS_12basic_stringIcNS_11char_traitsIcEENS_9allocatorIcEEEENS4_IS6_EEJRS6_ELi0EEENS_10shared_ptrIT_EERKT0_DpOT1_, symObjAddr: 0x9490, symBinAddr: 0x245B4, symSize: 0x58 }
  - { offset: 0x153EF1, size: 0x8, addend: 0x0, symName: __ZNSt3__134__uninitialized_allocator_relocateB8ne200100INS_9allocatorIN8firebase9firestore4core7OrderByEEEPS5_EEvRT_T0_SA_SA_, symObjAddr: 0x6098, symBinAddr: 0x22DC4, symSize: 0xBC }
  - { offset: 0x153F05, size: 0x8, addend: 0x0, symName: __ZNSt3__134__uninitialized_allocator_relocateB8ne200100INS_9allocatorIN8firebase9firestore4core7OrderByEEEPS5_EEvRT_T0_SA_SA_, symObjAddr: 0x6098, symBinAddr: 0x22DC4, symSize: 0xBC }
  - { offset: 0x154E5C, size: 0x8, addend: 0x0, symName: __ZNSt3__117__call_once_proxyB8ne200100INS_5tupleIJOZN8firebase9firestore4util18ThreadSafeMemoizerINS_6vectorINS3_4core7OrderByENS_9allocatorIS8_EEEEED1EvEUlvE_EEEEEvPv, symObjAddr: 0x66FC, symBinAddr: 0x233AC, symSize: 0x4 }
  - { offset: 0x154F8B, size: 0x8, addend: 0x0, symName: __ZNSt3__117__call_once_proxyB8ne200100INS_5tupleIJOZN8firebase9firestore4util18ThreadSafeMemoizerINS3_4core6TargetEED1EvEUlvE_EEEEEvPv, symObjAddr: 0x6818, symBinAddr: 0x234C8, symSize: 0x4 }
  - { offset: 0x156DDA, size: 0x8, addend: 0x0, symName: __ZNSt3__135__uninitialized_allocator_copy_implB8ne200100INS_9allocatorINS_12basic_stringIcNS_11char_traitsIcEENS1_IcEEEEEEPKS6_S9_PS6_EET2_RT_T0_T1_SB_, symObjAddr: 0x97CC, symBinAddr: 0x2488C, symSize: 0xBC }
  - { offset: 0x15B3E6, size: 0x8, addend: 0x0, symName: __ZN8nlohmann6detail9from_jsonINS_10basic_jsonINSt3__13mapENS3_6vectorENS3_12basic_stringIcNS3_11char_traitsIcEENS3_9allocatorIcEEEEbxydS9_NS_14adl_serializerENS5_IhNS9_IhEEEEEEiLi0EEEvRKT_RT0_, symObjAddr: 0x6250, symBinAddr: 0x22F00, symSize: 0x154 }
  - { offset: 0x15B719, size: 0x8, addend: 0x0, symName: __ZN8nlohmann6detail9from_jsonINS_10basic_jsonINSt3__13mapENS3_6vectorENS3_12basic_stringIcNS3_11char_traitsIcEENS3_9allocatorIcEEEEbxydS9_NS_14adl_serializerENS5_IhNS9_IhEEEEEEEEvRKT_RNSG_9boolean_tE, symObjAddr: 0xA6F8, symBinAddr: 0x24AD0, symSize: 0x120 }
  - { offset: 0x15BA3C, size: 0x8, addend: 0x0, symName: __ZN8nlohmann6detail13int_to_stringINSt3__112basic_stringIcNS2_11char_traitsIcEENS2_9allocatorIcEEEEEEvRT_m, symObjAddr: 0xAF5C, symBinAddr: 0x24F20, symSize: 0x50 }
  - { offset: 0x15BBB1, size: 0x8, addend: 0x0, symName: __ZN8nlohmann6detail9from_jsonINS_10basic_jsonINSt3__13mapENS3_6vectorENS3_12basic_stringIcNS3_11char_traitsIcEENS3_9allocatorIcEEEEbxydS9_NS_14adl_serializerENS5_IhNS9_IhEEEEEEEEvRKT_RNSG_8string_tE, symObjAddr: 0xB1E0, symBinAddr: 0x251A4, symSize: 0x124 }
  - { offset: 0x15BF45, size: 0x8, addend: 0x0, symName: __ZN8nlohmann6detail20get_arithmetic_valueINS_10basic_jsonINSt3__13mapENS3_6vectorENS3_12basic_stringIcNS3_11char_traitsIcEENS3_9allocatorIcEEEEbxydS9_NS_14adl_serializerENS5_IhNS9_IhEEEEEExLi0EEEvRKT_RT0_, symObjAddr: 0x7864, symBinAddr: 0x23C98, symSize: 0x13C }
  - { offset: 0x15C278, size: 0x8, addend: 0x0, symName: __ZN8nlohmann6detail9from_jsonINS_10basic_jsonINSt3__13mapENS3_6vectorENS3_12basic_stringIcNS3_11char_traitsIcEENS3_9allocatorIcEEEEbxydS9_NS_14adl_serializerENS5_IhNS9_IhEEEEEEjLi0EEEvRKT_RT0_, symObjAddr: 0x90C4, symBinAddr: 0x24240, symSize: 0x154 }
  - { offset: 0x15C5DB, size: 0x8, addend: 0x0, symName: __ZN8nlohmann6detail20get_arithmetic_valueINS_10basic_jsonINSt3__13mapENS3_6vectorENS3_12basic_stringIcNS3_11char_traitsIcEENS3_9allocatorIcEEEEbxydS9_NS_14adl_serializerENS5_IhNS9_IhEEEEEEyLi0EEEvRKT_RT0_, symObjAddr: 0x92FC, symBinAddr: 0x24478, symSize: 0x13C }
  - { offset: 0x15EE4F, size: 0x8, addend: 0x0, symName: __ZN8firebase9firestore4util18ThreadSafeMemoizerINSt3__16vectorINS0_4core7OrderByENS3_9allocatorIS6_EEEEED2Ev, symObjAddr: 0x6690, symBinAddr: 0x23340, symSize: 0x6C }
  - { offset: 0x15F2AC, size: 0x8, addend: 0x0, symName: __ZN8firebase9firestore4util18ThreadSafeMemoizerINS0_4core6TargetEED2Ev, symObjAddr: 0x6744, symBinAddr: 0x233F4, symSize: 0xD4 }
  - { offset: 0x15FF6A, size: 0x8, addend: 0x0, symName: __ZN8firebase9firestore6nanopb7MessageINS0_31_google_firestore_v1_ArrayValueEED2Ev, symObjAddr: 0xA98C, symBinAddr: 0x24BF0, symSize: 0x40 }
  - { offset: 0x160378, size: 0x8, addend: 0x0, symName: __ZNK8firebase9firestore6bundle16BundleSerializer20DecodeBundleMetadataERNS0_4util10JsonReaderERKN8nlohmann10basic_jsonINSt3__13mapENS8_6vectorENS8_12basic_stringIcNS8_11char_traitsIcEENS8_9allocatorIcEEEEbxydSE_NS6_14adl_serializerENSA_IhNSE_IhEEEEEE, symObjAddr: 0x84, symBinAddr: 0x1D878, symSize: 0x13C }
  - { offset: 0x1607B5, size: 0x8, addend: 0x0, symName: __ZN8firebase9firestore4util10JsonReader11RequiredIntIjEET_PKcRKN8nlohmann10basic_jsonINSt3__13mapENS9_6vectorENS9_12basic_stringIcNS9_11char_traitsIcEENS9_9allocatorIcEEEEbxydSF_NS7_14adl_serializerENSB_IhNSF_IhEEEEEE, symObjAddr: 0x1C0, symBinAddr: 0x1D9B4, symSize: 0xC8 }
  - { offset: 0x160B64, size: 0x8, addend: 0x0, symName: __ZN8firebase9firestore4util10JsonReader11OptionalIntIjEET_PKcRKN8nlohmann10basic_jsonINSt3__13mapENS9_6vectorENS9_12basic_stringIcNS9_11char_traitsIcEENS9_9allocatorIcEEEEbxydSF_NS7_14adl_serializerENSB_IhNSF_IhEEEEEES4_, symObjAddr: 0x2BC, symBinAddr: 0x1DAB0, symSize: 0xC0 }
  - { offset: 0x160F08, size: 0x8, addend: 0x0, symName: __ZN8firebase9firestore4util10JsonReader11OptionalIntIyEET_PKcRKN8nlohmann10basic_jsonINSt3__13mapENS9_6vectorENS9_12basic_stringIcNS9_11char_traitsIcEENS9_9allocatorIcEEEEbxydSF_NS7_14adl_serializerENSB_IhNSF_IhEEEEEES4_, symObjAddr: 0x37C, symBinAddr: 0x1DB70, symSize: 0xC0 }
  - { offset: 0x16139C, size: 0x8, addend: 0x0, symName: __ZNSt3__16__treeINS_12__value_typeINS_12basic_stringIcNS_11char_traitsIcEENS_9allocatorIcEEEEN8nlohmann10basic_jsonINS_3mapENS_6vectorES7_bxydS5_NS8_14adl_serializerENSB_IhNS5_IhEEEEEEEENS_19__map_value_compareIS7_SG_NS_4lessIvEELb1EEENS5_ISG_EEE4findIPKcEENS_15__tree_iteratorISG_PNS_11__tree_nodeISG_PvEElEERKT_, symObjAddr: 0x77E8, symBinAddr: 0x23C1C, symSize: 0x7C }
  - { offset: 0x161663, size: 0x8, addend: 0x0, symName: __ZNK8nlohmann10basic_jsonINSt3__13mapENS1_6vectorENS1_12basic_stringIcNS1_11char_traitsIcEENS1_9allocatorIcEEEEbxydS7_NS_14adl_serializerENS3_IhNS7_IhEEEEE2atERKS9_, symObjAddr: 0x1880, symBinAddr: 0x1F074, symSize: 0x218 }
  - { offset: 0x161C20, size: 0x8, addend: 0x0, symName: __ZN8firebase9firestore4util10JsonReader8ParseIntIjEET_RKN8nlohmann10basic_jsonINSt3__13mapENS7_6vectorENS7_12basic_stringIcNS7_11char_traitsIcEENS7_9allocatorIcEEEEbxydSD_NS5_14adl_serializerENS9_IhNSD_IhEEEEEERS2_, symObjAddr: 0x8F50, symBinAddr: 0x240CC, symSize: 0xE4 }
  - { offset: 0x16208F, size: 0x8, addend: 0x0, symName: __ZN8firebase9firestore4util11ReadContext4FailIJPKcEEEvS5_DpRKT_, symObjAddr: 0x8EE4, symBinAddr: 0x24060, symSize: 0x6C }
  - { offset: 0x162325, size: 0x8, addend: 0x0, symName: __ZN8firebase9firestore4util10JsonReader8ParseIntIyEET_RKN8nlohmann10basic_jsonINSt3__13mapENS7_6vectorENS7_12basic_stringIcNS7_11char_traitsIcEENS7_9allocatorIcEEEEbxydSD_NS5_14adl_serializerENS9_IhNSD_IhEEEEEERS2_, symObjAddr: 0x9218, symBinAddr: 0x24394, symSize: 0xE4 }
  - { offset: 0x162C0C, size: 0x8, addend: 0x0, symName: __ZNK8firebase9firestore6bundle16BundleSerializer16DecodeNamedQueryERNS0_4util10JsonReaderERKN8nlohmann10basic_jsonINSt3__13mapENS8_6vectorENS8_12basic_stringIcNS8_11char_traitsIcEENS8_9allocatorIcEEEEbxydSE_NS6_14adl_serializerENSA_IhNSE_IhEEEEEE, symObjAddr: 0x43C, symBinAddr: 0x1DC30, symSize: 0x21C }
  - { offset: 0x16370B, size: 0x8, addend: 0x0, symName: __ZNK8firebase9firestore6bundle16BundleSerializer18DecodeBundledQueryERNS0_4util10JsonReaderERKN8nlohmann10basic_jsonINSt3__13mapENS8_6vectorENS8_12basic_stringIcNS8_11char_traitsIcEENS8_9allocatorIcEEEEbxydSE_NS6_14adl_serializerENSA_IhNSE_IhEEEEEE, symObjAddr: 0x658, symBinAddr: 0x1DE4C, symSize: 0x1030 }
  - { offset: 0x1696E5, size: 0x8, addend: 0x0, symName: __ZN8firebase9firestore6bundle10NamedQueryC2ENSt3__112basic_stringIcNS3_11char_traitsIcEENS3_9allocatorIcEEEENS1_12BundledQueryENS0_5model15SnapshotVersionE, symObjAddr: 0x5040, symBinAddr: 0x22714, symSize: 0x120 }
  - { offset: 0x16A074, size: 0x8, addend: 0x0, symName: __ZN8firebase9firestore6bundle12BundledQueryD1Ev, symObjAddr: 0x1688, symBinAddr: 0x1EE7C, symSize: 0x9C }
  - { offset: 0x16B76C, size: 0x8, addend: 0x0, symName: __ZN8firebase9firestore4util11ReadContext4FailIJEEEvPKcDpRKT_, symObjAddr: 0x2038, symBinAddr: 0x1F82C, symSize: 0x70 }
  - { offset: 0x16BA0F, size: 0x8, addend: 0x0, symName: __ZNK8firebase9firestore6bundle16BundleSerializer10DecodeNameERNS0_4util10JsonReaderERKN8nlohmann10basic_jsonINSt3__13mapENS8_6vectorENS8_12basic_stringIcNS8_11char_traitsIcEENS8_9allocatorIcEEEEbxydSE_NS6_14adl_serializerENSA_IhNSE_IhEEEEEE, symObjAddr: 0x1724, symBinAddr: 0x1EF18, symSize: 0x15C }
  - { offset: 0x16C2AC, size: 0x8, addend: 0x0, symName: __ZN8nlohmann10basic_jsonINSt3__13mapENS1_6vectorENS1_12basic_stringIcNS1_11char_traitsIcEENS1_9allocatorIcEEEEbxydS7_NS_14adl_serializerENS3_IhNS7_IhEEEEE12get_ref_implIRKNS3_ISD_NS7_ISD_EEEEKSD_EET_RT0_, symObjAddr: 0x5360, symBinAddr: 0x228D8, symSize: 0x120 }
  - { offset: 0x16C612, size: 0x8, addend: 0x0, symName: __ZNK8firebase9firestore5model4impl8BasePathINS1_12ResourcePathEE6AppendERKNSt3__112basic_stringIcNS6_11char_traitsIcEENS6_9allocatorIcEEEE, symObjAddr: 0x52BC, symBinAddr: 0x22834, symSize: 0xA4 }
  - { offset: 0x16C8C5, size: 0x8, addend: 0x0, symName: __ZNSt3__16vectorINS_12basic_stringIcNS_11char_traitsIcEENS_9allocatorIcEEEENS4_IS6_EEE13__vdeallocateEv, symObjAddr: 0x5EE0, symBinAddr: 0x22C54, symSize: 0x38 }
  - { offset: 0x16C981, size: 0x8, addend: 0x0, symName: __ZNK8firebase9firestore6bundle16BundleSerializer11DecodeWhereERNS0_4util10JsonReaderERKN8nlohmann10basic_jsonINSt3__13mapENS8_6vectorENS8_12basic_stringIcNS8_11char_traitsIcEENS8_9allocatorIcEEEEbxydSE_NS6_14adl_serializerENSA_IhNSE_IhEEEEEE, symObjAddr: 0x1A98, symBinAddr: 0x1F28C, symSize: 0x2B8 }
  - { offset: 0x16D2CA, size: 0x8, addend: 0x0, symName: __ZNSt3__16vectorIN8firebase9firestore4core7OrderByENS_9allocatorIS4_EEE24__emplace_back_slow_pathIJNS2_5model9FieldPathERNS3_9DirectionEEEEPS4_DpOT_, symObjAddr: 0x5F18, symBinAddr: 0x22C8C, symSize: 0x138 }
  - { offset: 0x16D88A, size: 0x8, addend: 0x0, symName: __ZN8firebase9firestore4util11ReadContext4FailENSt3__112basic_stringIcNS3_11char_traitsIcEENS3_9allocatorIcEEEE, symObjAddr: 0x20A8, symBinAddr: 0x1F89C, symSize: 0xA4 }
  - { offset: 0x16DC97, size: 0x8, addend: 0x0, symName: __ZNK8firebase9firestore6bundle16BundleSerializer18DecodeStartAtBoundERNS0_4util10JsonReaderERKN8nlohmann10basic_jsonINSt3__13mapENS8_6vectorENS8_12basic_stringIcNS8_11char_traitsIcEENS8_9allocatorIcEEEEbxydSE_NS6_14adl_serializerENSA_IhNSE_IhEEEEEE, symObjAddr: 0x1D50, symBinAddr: 0x1F544, symSize: 0x170 }
  - { offset: 0x16E24C, size: 0x8, addend: 0x0, symName: __ZN4absl12lts_2024011617optional_internal18optional_data_baseIN8firebase9firestore4core5BoundEE6assignIS6_EEvOT_, symObjAddr: 0x95AC, symBinAddr: 0x246D0, symSize: 0x58 }
  - { offset: 0x16E3B2, size: 0x8, addend: 0x0, symName: __ZNK8firebase9firestore6bundle16BundleSerializer16DecodeEndAtBoundERNS0_4util10JsonReaderERKN8nlohmann10basic_jsonINSt3__13mapENS8_6vectorENS8_12basic_stringIcNS8_11char_traitsIcEENS8_9allocatorIcEEEEbxydSE_NS6_14adl_serializerENSA_IhNSE_IhEEEEEE, symObjAddr: 0x1EC0, symBinAddr: 0x1F6B4, symSize: 0x178 }
  - { offset: 0x16EA35, size: 0x8, addend: 0x0, symName: __ZN8firebase9firestore4core5QueryC2ENS0_5model12ResourcePathENSt3__110shared_ptrIKNS5_12basic_stringIcNS5_11char_traitsIcEENS5_9allocatorIcEEEEEENS5_6vectorINS1_6FilterENSA_ISG_EEEENSF_INS1_7OrderByENSA_ISJ_EEEEiNS1_9LimitTypeEN4absl12lts_202401168optionalINS1_5BoundEEESR_, symObjAddr: 0x63A4, symBinAddr: 0x23054, symSize: 0x2A8 }
  - { offset: 0x1703A8, size: 0x8, addend: 0x0, symName: __ZN8firebase9firestore6bundle12BundledQueryC2ENS0_4core6TargetENS3_9LimitTypeE, symObjAddr: 0x6E64, symBinAddr: 0x234CC, symSize: 0xF0 }
  - { offset: 0x1703ED, size: 0x8, addend: 0x0, symName: __ZN8firebase9firestore6bundle12BundledQueryC2ENS0_4core6TargetENS3_9LimitTypeE, symObjAddr: 0x6E64, symBinAddr: 0x234CC, symSize: 0xF0 }
  - { offset: 0x17040F, size: 0x8, addend: 0x0, symName: __ZN8firebase9firestore6bundle12BundledQueryC2ENS0_4core6TargetENS3_9LimitTypeE, symObjAddr: 0x6E64, symBinAddr: 0x234CC, symSize: 0xF0 }
  - { offset: 0x170431, size: 0x8, addend: 0x0, symName: __ZN8firebase9firestore6bundle12BundledQueryC2ENS0_4core6TargetENS3_9LimitTypeE, symObjAddr: 0x6E64, symBinAddr: 0x234CC, symSize: 0xF0 }
  - { offset: 0x170453, size: 0x8, addend: 0x0, symName: __ZN8firebase9firestore6bundle12BundledQueryC2ENS0_4core6TargetENS3_9LimitTypeE, symObjAddr: 0x6E64, symBinAddr: 0x234CC, symSize: 0xF0 }
  - { offset: 0x170475, size: 0x8, addend: 0x0, symName: __ZN8firebase9firestore6bundle12BundledQueryC2ENS0_4core6TargetENS3_9LimitTypeE, symObjAddr: 0x6E64, symBinAddr: 0x234CC, symSize: 0xF0 }
  - { offset: 0x170497, size: 0x8, addend: 0x0, symName: __ZN8firebase9firestore6bundle12BundledQueryC2ENS0_4core6TargetENS3_9LimitTypeE, symObjAddr: 0x6E64, symBinAddr: 0x234CC, symSize: 0xF0 }
  - { offset: 0x1704B9, size: 0x8, addend: 0x0, symName: __ZN8firebase9firestore6bundle12BundledQueryC2ENS0_4core6TargetENS3_9LimitTypeE, symObjAddr: 0x6E64, symBinAddr: 0x234CC, symSize: 0xF0 }
  - { offset: 0x170EB4, size: 0x8, addend: 0x0, symName: __ZN8nlohmann10basic_jsonINSt3__13mapENS1_6vectorENS1_12basic_stringIcNS1_11char_traitsIcEENS1_9allocatorIcEEEEbxydS7_NS_14adl_serializerENS3_IhNS7_IhEEEEE12get_ref_implIRKS9_KSD_EET_RT0_, symObjAddr: 0x892C, symBinAddr: 0x23EFC, symSize: 0x120 }
  - { offset: 0x17121A, size: 0x8, addend: 0x0, symName: __ZNK8firebase9firestore5model4impl8BasePathINS1_12ResourcePathEE8PopFirstEm, symObjAddr: 0x214C, symBinAddr: 0x1F940, symSize: 0xC4 }
  - { offset: 0x1721E5, size: 0x8, addend: 0x0, symName: __ZNK8firebase9firestore6bundle16BundleSerializer21DecodeCompositeFilterERNS0_4util10JsonReaderERKN8nlohmann10basic_jsonINSt3__13mapENS8_6vectorENS8_12basic_stringIcNS8_11char_traitsIcEENS8_9allocatorIcEEEEbxydSE_NS6_14adl_serializerENSA_IhNSE_IhEEEEEE, symObjAddr: 0x2210, symBinAddr: 0x1FA04, symSize: 0x3CC }
  - { offset: 0x173142, size: 0x8, addend: 0x0, symName: __ZNK8firebase9firestore6bundle16BundleSerializer17DecodeFieldFilterERNS0_4util10JsonReaderERKN8nlohmann10basic_jsonINSt3__13mapENS8_6vectorENS8_12basic_stringIcNS8_11char_traitsIcEENS8_9allocatorIcEEEEbxydSE_NS6_14adl_serializerENSA_IhNSE_IhEEEEEE, symObjAddr: 0x25DC, symBinAddr: 0x1FDD0, symSize: 0x6E4 }
  - { offset: 0x1744A3, size: 0x8, addend: 0x0, symName: __ZNSt3__16vectorIN8firebase9firestore4core6FilterENS_9allocatorIS4_EEE16__init_with_sizeB8ne200100IPKS4_SA_EEvT_T0_m, symObjAddr: 0x9980, symBinAddr: 0x24948, symSize: 0x98 }
  - { offset: 0x174A31, size: 0x8, addend: 0x0, symName: __ZNK8firebase9firestore6bundle16BundleSerializer17DecodeBoundFieldsERNS0_4util10JsonReaderERKN8nlohmann10basic_jsonINSt3__13mapENS8_6vectorENS8_12basic_stringIcNS8_11char_traitsIcEENS8_9allocatorIcEEEEbxydSE_NS6_14adl_serializerENSA_IhNSE_IhEEEEEE, symObjAddr: 0x3C54, symBinAddr: 0x21418, symSize: 0x224 }
  - { offset: 0x17558C, size: 0x8, addend: 0x0, symName: __ZNSt3__16vectorINS_12basic_stringIcNS_11char_traitsIcEENS_9allocatorIcEEEENS4_IS6_EEE16__init_with_sizeB8ne200100INS_11__wrap_iterIPKS6_EESD_EEvT_T0_m, symObjAddr: 0x9748, symBinAddr: 0x24808, symSize: 0x84 }
  - { offset: 0x175C40, size: 0x8, addend: 0x0, symName: __ZNSt3__16vectorIN8firebase9firestore4core6FilterENS_9allocatorIS4_EEE26__swap_out_circular_bufferERNS_14__split_bufferIS4_RS6_EE, symObjAddr: 0x9A18, symBinAddr: 0x249E0, symSize: 0xA4 }
  - { offset: 0x175F2C, size: 0x8, addend: 0x0, symName: __ZNSt3__114__split_bufferIN8firebase9firestore4core6FilterERNS_9allocatorIS4_EEED2Ev, symObjAddr: 0x9ABC, symBinAddr: 0x24A84, symSize: 0x4C }
  - { offset: 0x176E37, size: 0x8, addend: 0x0, symName: __ZNK8firebase9firestore6bundle16BundleSerializer11DecodeValueERNS0_4util10JsonReaderERKN8nlohmann10basic_jsonINSt3__13mapENS8_6vectorENS8_12basic_stringIcNS8_11char_traitsIcEENS8_9allocatorIcEEEEbxydSE_NS6_14adl_serializerENSA_IhNSE_IhEEEEEE, symObjAddr: 0x3410, symBinAddr: 0x20C04, symSize: 0x740 }
  - { offset: 0x1789C2, size: 0x8, addend: 0x0, symName: __ZN8firebase9firestore4util11ReadContext10set_statusENS1_6StatusE, symObjAddr: 0x7078, symBinAddr: 0x235BC, symSize: 0x3C }
  - { offset: 0x178A6B, size: 0x8, addend: 0x0, symName: __ZN8firebase9firestore4util17internal_statusor12StatusOrDataINS0_5model9FieldPathEED2Ev, symObjAddr: 0x716C, symBinAddr: 0x235F8, symSize: 0x48 }
  - { offset: 0x17935D, size: 0x8, addend: 0x0, symName: __ZN8firebase9firestore4util10JsonReader11RequiredIntIxEET_PKcRKN8nlohmann10basic_jsonINSt3__13mapENS9_6vectorENS9_12basic_stringIcNS9_11char_traitsIcEENS9_9allocatorIcEEEEbxydSF_NS7_14adl_serializerENSB_IhNSF_IhEEEEEE, symObjAddr: 0x3E78, symBinAddr: 0x2163C, symSize: 0xC8 }
  - { offset: 0x1798A7, size: 0x8, addend: 0x0, symName: __ZNK8firebase9firestore6bundle16BundleSerializer20DecodeReferenceValueERNS0_4util10JsonReaderERKNSt3__112basic_stringIcNS6_11char_traitsIcEENS6_9allocatorIcEEEE, symObjAddr: 0x4210, symBinAddr: 0x219D4, symSize: 0x10C }
  - { offset: 0x179E69, size: 0x8, addend: 0x0, symName: __ZNK8firebase9firestore6bundle16BundleSerializer16DecodeArrayValueERNS0_4util10JsonReaderERKN8nlohmann10basic_jsonINSt3__13mapENS8_6vectorENS8_12basic_stringIcNS8_11char_traitsIcEENS8_9allocatorIcEEEEbxydSE_NS6_14adl_serializerENSA_IhNSE_IhEEEEEE, symObjAddr: 0x437C, symBinAddr: 0x21B40, symSize: 0x144 }
  - { offset: 0x17A3C0, size: 0x8, addend: 0x0, symName: __ZNK8firebase9firestore6bundle16BundleSerializer14DecodeMapValueERNS0_4util10JsonReaderERKN8nlohmann10basic_jsonINSt3__13mapENS8_6vectorENS8_12basic_stringIcNS8_11char_traitsIcEENS8_9allocatorIcEEEEbxydSE_NS6_14adl_serializerENSA_IhNSE_IhEEEEEE, symObjAddr: 0x44C0, symBinAddr: 0x21C84, symSize: 0x268 }
  - { offset: 0x17AFC1, size: 0x8, addend: 0x0, symName: __ZN8firebase9firestore6nanopb7MessageINS0_29_google_firestore_v1_MapValueEED2Ev, symObjAddr: 0xAA48, symBinAddr: 0x24C30, symSize: 0x40 }
  - { offset: 0x17B319, size: 0x8, addend: 0x0, symName: __ZN8firebase9firestore4util10JsonReader8ParseIntIxEET_RKN8nlohmann10basic_jsonINSt3__13mapENS7_6vectorENS7_12basic_stringIcNS7_11char_traitsIcEENS7_9allocatorIcEEEEbxydSD_NS5_14adl_serializerENS9_IhNSD_IhEEEEEERS2_, symObjAddr: 0x7704, symBinAddr: 0x23B38, symSize: 0xE4 }
  - { offset: 0x17BA23, size: 0x8, addend: 0x0, symName: __ZN8firebase9firestore4util8StatusOrINS_9TimestampEEC2Ev, symObjAddr: 0x7504, symBinAddr: 0x23938, symSize: 0xA0 }
  - { offset: 0x17BDCD, size: 0x8, addend: 0x0, symName: __ZN8firebase9firestore4util17internal_statusor12StatusOrDataINS_9TimestampEEaSEOS5_, symObjAddr: 0x7604, symBinAddr: 0x23A38, symSize: 0x4C }
  - { offset: 0x17BEA1, size: 0x8, addend: 0x0, symName: __ZN8firebase9firestore4util10JsonReader11OptionalIntIxEET_PKcRKN8nlohmann10basic_jsonINSt3__13mapENS9_6vectorENS9_12basic_stringIcNS9_11char_traitsIcEENS9_9allocatorIcEEEEbxydSF_NS7_14adl_serializerENSB_IhNSF_IhEEEEEES4_, symObjAddr: 0x72A0, symBinAddr: 0x236D4, symSize: 0xC0 }
  - { offset: 0x17C245, size: 0x8, addend: 0x0, symName: __ZN8firebase9firestore4util10JsonReader11OptionalIntIiEET_PKcRKN8nlohmann10basic_jsonINSt3__13mapENS9_6vectorENS9_12basic_stringIcNS9_11char_traitsIcEENS9_9allocatorIcEEEEbxydSF_NS7_14adl_serializerENSB_IhNSF_IhEEEEEES4_, symObjAddr: 0x7360, symBinAddr: 0x23794, symSize: 0xC0 }
  - { offset: 0x17C5E9, size: 0x8, addend: 0x0, symName: __ZNK8firebase9firestore4util6Status13error_messageEv, symObjAddr: 0x74E4, symBinAddr: 0x23918, symSize: 0x20 }
  - { offset: 0x17C611, size: 0x8, addend: 0x0, symName: __ZNK8firebase9firestore4util6Status13error_messageEv, symObjAddr: 0x74E4, symBinAddr: 0x23918, symSize: 0x20 }
  - { offset: 0x17C62C, size: 0x8, addend: 0x0, symName: __ZNK8firebase9firestore4util6Status13error_messageEv, symObjAddr: 0x74E4, symBinAddr: 0x23918, symSize: 0x20 }
  - { offset: 0x17C64E, size: 0x8, addend: 0x0, symName: __ZNK8firebase9firestore4util6Status13error_messageEv, symObjAddr: 0x74E4, symBinAddr: 0x23918, symSize: 0x20 }
  - { offset: 0x17C66A, size: 0x8, addend: 0x0, symName: __ZN8firebase9firestore4util11ReadContext4FailIJNSt3__112basic_stringIcNS4_11char_traitsIcEENS4_9allocatorIcEEEEEEEvPKcDpRKT_, symObjAddr: 0x7420, symBinAddr: 0x23854, symSize: 0xC4 }
  - { offset: 0x17CC5B, size: 0x8, addend: 0x0, symName: __ZN8nlohmann6detail15iteration_proxyINS0_9iter_implIKNS_10basic_jsonINSt3__13mapENS4_6vectorENS4_12basic_stringIcNS4_11char_traitsIcEENS4_9allocatorIcEEEEbxydSA_NS_14adl_serializerENS6_IhNSA_IhEEEEEEEEE5beginEv, symObjAddr: 0x4728, symBinAddr: 0x21EEC, symSize: 0x44 }
  - { offset: 0x17CD52, size: 0x8, addend: 0x0, symName: __ZN8nlohmann6detail15iteration_proxyINS0_9iter_implIKNS_10basic_jsonINSt3__13mapENS4_6vectorENS4_12basic_stringIcNS4_11char_traitsIcEENS4_9allocatorIcEEEEbxydSA_NS_14adl_serializerENS6_IhNSA_IhEEEEEEEEE3endEv, symObjAddr: 0x476C, symBinAddr: 0x21F30, symSize: 0x44 }
  - { offset: 0x17CE49, size: 0x8, addend: 0x0, symName: __ZNK8nlohmann6detail9iter_implIKNS_10basic_jsonINSt3__13mapENS3_6vectorENS3_12basic_stringIcNS3_11char_traitsIcEENS3_9allocatorIcEEEEbxydS9_NS_14adl_serializerENS5_IhNS9_IhEEEEEEEeqERKSH_, symObjAddr: 0xAC34, symBinAddr: 0x24E1C, symSize: 0x104 }
  - { offset: 0x17D0A3, size: 0x8, addend: 0x0, symName: __ZNK8nlohmann6detail21iteration_proxy_valueINS0_9iter_implIKNS_10basic_jsonINSt3__13mapENS4_6vectorENS4_12basic_stringIcNS4_11char_traitsIcEENS4_9allocatorIcEEEEbxydSA_NS_14adl_serializerENS6_IhNSA_IhEEEEEEEEE3keyEv, symObjAddr: 0x47B0, symBinAddr: 0x21F74, symSize: 0x74 }
  - { offset: 0x17D109, size: 0x8, addend: 0x0, symName: __ZN8nlohmann6detail21iteration_proxy_valueINS0_9iter_implIKNS_10basic_jsonINSt3__13mapENS4_6vectorENS4_12basic_stringIcNS4_11char_traitsIcEENS4_9allocatorIcEEEEbxydSA_NS_14adl_serializerENS6_IhNSA_IhEEEEEEEEED1Ev, symObjAddr: 0x4824, symBinAddr: 0x21FE8, symSize: 0x40 }
  - { offset: 0x17D113, size: 0x8, addend: 0x0, symName: __ZNK8nlohmann6detail9iter_implIKNS_10basic_jsonINSt3__13mapENS3_6vectorENS3_12basic_stringIcNS3_11char_traitsIcEENS3_9allocatorIcEEEEbxydS9_NS_14adl_serializerENS5_IhNS9_IhEEEEEEEdeEv, symObjAddr: 0xB07C, symBinAddr: 0x25040, symSize: 0x164 }
  - { offset: 0x17D508, size: 0x8, addend: 0x0, symName: __ZN8nlohmann6detail13int_to_stringINSt3__112basic_stringIcNS2_11char_traitsIcEENS2_9allocatorIcEEEEEEvRT_m, symObjAddr: 0xAF5C, symBinAddr: 0x24F20, symSize: 0x50 }
  - { offset: 0x17D513, size: 0x8, addend: 0x0, symName: __ZN8nlohmann6detail21iteration_proxy_valueINS0_9iter_implIKNS_10basic_jsonINSt3__13mapENS4_6vectorENS4_12basic_stringIcNS4_11char_traitsIcEENS4_9allocatorIcEEEEbxydSA_NS_14adl_serializerENS6_IhNSA_IhEEEEEEEEED1Ev, symObjAddr: 0x4824, symBinAddr: 0x21FE8, symSize: 0x40 }
  - { offset: 0x17D7E9, size: 0x8, addend: 0x0, symName: __ZN8nlohmann6detail9iter_implIKNS_10basic_jsonINSt3__13mapENS3_6vectorENS3_12basic_stringIcNS3_11char_traitsIcEENS3_9allocatorIcEEEEbxydS9_NS_14adl_serializerENS5_IhNS9_IhEEEEEEEC2EPSG_, symObjAddr: 0xAB10, symBinAddr: 0x24CF8, symSize: 0x48 }
  - { offset: 0x17D874, size: 0x8, addend: 0x0, symName: __ZN8nlohmann6detail9iter_implIKNS_10basic_jsonINSt3__13mapENS3_6vectorENS3_12basic_stringIcNS3_11char_traitsIcEENS3_9allocatorIcEEEEbxydS9_NS_14adl_serializerENS5_IhNS9_IhEEEEEEE9set_beginEv, symObjAddr: 0xAA88, symBinAddr: 0x24C70, symSize: 0x88 }
  - { offset: 0x17D944, size: 0x8, addend: 0x0, symName: __ZN8nlohmann6detail21iteration_proxy_valueINS0_9iter_implIKNS_10basic_jsonINSt3__13mapENS4_6vectorENS4_12basic_stringIcNS4_11char_traitsIcEENS4_9allocatorIcEEEEbxydSA_NS_14adl_serializerENS6_IhNSA_IhEEEEEEEEEC2ESI_, symObjAddr: 0xAB58, symBinAddr: 0x24D40, symSize: 0x60 }
  - { offset: 0x17DA3D, size: 0x8, addend: 0x0, symName: __ZN8nlohmann6detail9iter_implIKNS_10basic_jsonINSt3__13mapENS3_6vectorENS3_12basic_stringIcNS3_11char_traitsIcEENS3_9allocatorIcEEEEbxydS9_NS_14adl_serializerENS5_IhNS9_IhEEEEEEE7set_endEv, symObjAddr: 0xABB8, symBinAddr: 0x24DA0, symSize: 0x7C }
  - { offset: 0x17DB1E, size: 0x8, addend: 0x0, symName: __ZNK8nlohmann6detail9iter_implIKNS_10basic_jsonINSt3__13mapENS3_6vectorENS3_12basic_stringIcNS3_11char_traitsIcEENS3_9allocatorIcEEEEbxydS9_NS_14adl_serializerENS5_IhNS9_IhEEEEEEE3keyEv, symObjAddr: 0xAFAC, symBinAddr: 0x24F70, symSize: 0xD0 }
  - { offset: 0x17DD2F, size: 0x8, addend: 0x0, symName: __ZNK8nlohmann6detail21iteration_proxy_valueINS0_9iter_implIKNS_10basic_jsonINSt3__13mapENS4_6vectorENS4_12basic_stringIcNS4_11char_traitsIcEENS4_9allocatorIcEEEEbxydSA_NS_14adl_serializerENS6_IhNSA_IhEEEEEEEEE3keyEv.cold.1, symObjAddr: 0xB304, symBinAddr: 0x1582E0, symSize: 0x28 }
  - { offset: 0x17DF77, size: 0x8, addend: 0x0, symName: __ZNK8firebase9firestore6bundle16BundleSerializer22DecodeDocumentMetadataERNS0_4util10JsonReaderERKN8nlohmann10basic_jsonINSt3__13mapENS8_6vectorENS8_12basic_stringIcNS8_11char_traitsIcEENS8_9allocatorIcEEEEbxydSE_NS6_14adl_serializerENSA_IhNSE_IhEEEEEE, symObjAddr: 0x4864, symBinAddr: 0x22028, symSize: 0x310 }
  - { offset: 0x17EE89, size: 0x8, addend: 0x0, symName: __ZNK8nlohmann10basic_jsonINSt3__13mapENS1_6vectorENS1_12basic_stringIcNS1_11char_traitsIcEENS1_9allocatorIcEEEEbxydS7_NS_14adl_serializerENS3_IhNS7_IhEEEEE3getIS9_S9_Li0EEET0_v, symObjAddr: 0x4CA0, symBinAddr: 0x22464, symSize: 0x48 }
  - { offset: 0x17F063, size: 0x8, addend: 0x0, symName: __ZNSt3__16vectorINS_12basic_stringIcNS_11char_traitsIcEENS_9allocatorIcEEEENS4_IS6_EEE9push_backB8ne200100EOS6_, symObjAddr: 0x4B74, symBinAddr: 0x22338, symSize: 0x12C }
  - { offset: 0x17F42F, size: 0x8, addend: 0x0, symName: __ZNK8nlohmann10basic_jsonINSt3__13mapENS1_6vectorENS1_12basic_stringIcNS1_11char_traitsIcEENS1_9allocatorIcEEEEbxydS7_NS_14adl_serializerENS3_IhNS7_IhEEEEE3getIS9_S9_Li0EEET0_v, symObjAddr: 0x4CA0, symBinAddr: 0x22464, symSize: 0x48 }
  - { offset: 0x17F6FA, size: 0x8, addend: 0x0, symName: __ZNSt3__114__split_bufferINS_12basic_stringIcNS_11char_traitsIcEENS_9allocatorIcEEEERNS4_IS6_EEED2Ev, symObjAddr: 0x5E58, symBinAddr: 0x22BCC, symSize: 0x34 }
  - { offset: 0x17FA03, size: 0x8, addend: 0x0, symName: __ZNK8firebase9firestore6bundle16BundleSerializer14DecodeDocumentERNS0_4util10JsonReaderERKN8nlohmann10basic_jsonINSt3__13mapENS8_6vectorENS8_12basic_stringIcNS8_11char_traitsIcEENS8_9allocatorIcEEEEbxydSE_NS6_14adl_serializerENSA_IhNSE_IhEEEEEE, symObjAddr: 0x4CE8, symBinAddr: 0x224AC, symSize: 0x268 }
  - { offset: 0x1809E4, size: 0x8, addend: 0x0, symName: __ZNSt3__16vectorINS_12basic_stringIcNS_11char_traitsIcEENS_9allocatorIcEEEENS4_IS6_EEE9push_backB8ne200100ERKS6_, symObjAddr: 0x5904, symBinAddr: 0x229F8, symSize: 0x3C }
  - { offset: 0x181251, size: 0x8, addend: 0x0, symName: __ZNSt3__16vectorINS_12basic_stringIcNS_11char_traitsIcEENS_9allocatorIcEEEENS4_IS6_EEE22__construct_one_at_endB8ne200100IJRKS6_EEEvDpOT_, symObjAddr: 0x5CC0, symBinAddr: 0x22A34, symSize: 0x5C }
  - { offset: 0x181435, size: 0x8, addend: 0x0, symName: __ZNSt3__16vectorINS_12basic_stringIcNS_11char_traitsIcEENS_9allocatorIcEEEENS4_IS6_EEE24__emplace_back_slow_pathIJRKS6_EEEPS6_DpOT_, symObjAddr: 0x5D1C, symBinAddr: 0x22A90, symSize: 0x13C }
  - { offset: 0x181ED8, size: 0x8, addend: 0x0, symName: __ZNSt3__114__split_bufferINS_12basic_stringIcNS_11char_traitsIcEENS_9allocatorIcEEEERNS4_IS6_EEE17__destruct_at_endB8ne200100EPS6_, symObjAddr: 0x5E8C, symBinAddr: 0x22C00, symSize: 0x54 }
  - { offset: 0x181F0F, size: 0x8, addend: 0x0, symName: __ZNSt3__114__split_bufferINS_12basic_stringIcNS_11char_traitsIcEENS_9allocatorIcEEEERNS4_IS6_EEE17__destruct_at_endB8ne200100EPS6_, symObjAddr: 0x5E8C, symBinAddr: 0x22C00, symSize: 0x54 }
  - { offset: 0x1821A3, size: 0x8, addend: 0x0, symName: __ZNSt3__114__split_bufferIN8firebase9firestore4core7OrderByERNS_9allocatorIS4_EEED2Ev, symObjAddr: 0x61D0, symBinAddr: 0x22E80, symSize: 0x30 }
  - { offset: 0x18260F, size: 0x8, addend: 0x0, symName: __ZNSt3__114__split_bufferIN8firebase9firestore4core7OrderByERNS_9allocatorIS4_EEE5clearB8ne200100Ev, symObjAddr: 0x6200, symBinAddr: 0x22EB0, symSize: 0x50 }
  - { offset: 0x182E16, size: 0x8, addend: 0x0, symName: __ZNSt3__120__shared_ptr_emplaceIN8firebase9firestore4util18ThreadSafeMemoizerINS_6vectorINS2_4core7OrderByENS_9allocatorIS7_EEEEEENS8_ISB_EEED1Ev, symObjAddr: 0x664C, symBinAddr: 0x232FC, symSize: 0x14 }
  - { offset: 0x182E38, size: 0x8, addend: 0x0, symName: __ZNSt3__120__shared_ptr_emplaceIN8firebase9firestore4util18ThreadSafeMemoizerINS_6vectorINS2_4core7OrderByENS_9allocatorIS7_EEEEEENS8_ISB_EEED1Ev, symObjAddr: 0x664C, symBinAddr: 0x232FC, symSize: 0x14 }
  - { offset: 0x182E6D, size: 0x8, addend: 0x0, symName: __ZNSt3__120__shared_ptr_emplaceIN8firebase9firestore4util18ThreadSafeMemoizerINS_6vectorINS2_4core7OrderByENS_9allocatorIS7_EEEEEENS8_ISB_EEED0Ev, symObjAddr: 0x6660, symBinAddr: 0x23310, symSize: 0x24 }
  - { offset: 0x182F83, size: 0x8, addend: 0x0, symName: __ZNSt3__120__shared_ptr_emplaceIN8firebase9firestore4util18ThreadSafeMemoizerINS_6vectorINS2_4core7OrderByENS_9allocatorIS7_EEEEEENS8_ISB_EEE16__on_zero_sharedEv, symObjAddr: 0x6684, symBinAddr: 0x23334, symSize: 0x8 }
  - { offset: 0x182FAB, size: 0x8, addend: 0x0, symName: __ZNSt3__120__shared_ptr_emplaceIN8firebase9firestore4util18ThreadSafeMemoizerINS_6vectorINS2_4core7OrderByENS_9allocatorIS7_EEEEEENS8_ISB_EEE16__on_zero_sharedEv, symObjAddr: 0x6684, symBinAddr: 0x23334, symSize: 0x8 }
  - { offset: 0x182FC8, size: 0x8, addend: 0x0, symName: __ZNSt3__120__shared_ptr_emplaceIN8firebase9firestore4util18ThreadSafeMemoizerINS_6vectorINS2_4core7OrderByENS_9allocatorIS7_EEEEEENS8_ISB_EEE16__on_zero_sharedEv, symObjAddr: 0x6684, symBinAddr: 0x23334, symSize: 0x8 }
  - { offset: 0x183088, size: 0x8, addend: 0x0, symName: __ZNSt3__120__shared_ptr_emplaceIN8firebase9firestore4util18ThreadSafeMemoizerINS_6vectorINS2_4core7OrderByENS_9allocatorIS7_EEEEEENS8_ISB_EEE21__on_zero_shared_weakEv, symObjAddr: 0x668C, symBinAddr: 0x2333C, symSize: 0x4 }
  - { offset: 0x1830B9, size: 0x8, addend: 0x0, symName: __ZNSt3__120__shared_ptr_emplaceIN8firebase9firestore4util18ThreadSafeMemoizerINS_6vectorINS2_4core7OrderByENS_9allocatorIS7_EEEEEENS8_ISB_EEE21__on_zero_shared_weakEv, symObjAddr: 0x668C, symBinAddr: 0x2333C, symSize: 0x4 }
  - { offset: 0x1830DB, size: 0x8, addend: 0x0, symName: __ZNSt3__120__shared_ptr_emplaceIN8firebase9firestore4util18ThreadSafeMemoizerINS_6vectorINS2_4core7OrderByENS_9allocatorIS7_EEEEEENS8_ISB_EEE21__on_zero_shared_weakEv, symObjAddr: 0x668C, symBinAddr: 0x2333C, symSize: 0x4 }
  - { offset: 0x1830FE, size: 0x8, addend: 0x0, symName: __ZNSt3__120__shared_ptr_emplaceIN8firebase9firestore4util18ThreadSafeMemoizerINS_6vectorINS2_4core7OrderByENS_9allocatorIS7_EEEEEENS8_ISB_EEE21__on_zero_shared_weakEv, symObjAddr: 0x668C, symBinAddr: 0x2333C, symSize: 0x4 }
  - { offset: 0x183133, size: 0x8, addend: 0x0, symName: __ZNSt3__120__shared_ptr_emplaceIN8firebase9firestore4util18ThreadSafeMemoizerINS_6vectorINS2_4core7OrderByENS_9allocatorIS7_EEEEEENS8_ISB_EEE21__on_zero_shared_weakEv, symObjAddr: 0x668C, symBinAddr: 0x2333C, symSize: 0x4 }
  - { offset: 0x18337C, size: 0x8, addend: 0x0, symName: __ZNSt3__120__shared_ptr_emplaceIN8firebase9firestore4util18ThreadSafeMemoizerINS2_4core6TargetEEENS_9allocatorIS7_EEED1Ev, symObjAddr: 0x6700, symBinAddr: 0x233B0, symSize: 0x14 }
  - { offset: 0x18339E, size: 0x8, addend: 0x0, symName: __ZNSt3__120__shared_ptr_emplaceIN8firebase9firestore4util18ThreadSafeMemoizerINS2_4core6TargetEEENS_9allocatorIS7_EEED1Ev, symObjAddr: 0x6700, symBinAddr: 0x233B0, symSize: 0x14 }
  - { offset: 0x1833D3, size: 0x8, addend: 0x0, symName: __ZNSt3__120__shared_ptr_emplaceIN8firebase9firestore4util18ThreadSafeMemoizerINS2_4core6TargetEEENS_9allocatorIS7_EEED0Ev, symObjAddr: 0x6714, symBinAddr: 0x233C4, symSize: 0x24 }
  - { offset: 0x1834E9, size: 0x8, addend: 0x0, symName: __ZNSt3__120__shared_ptr_emplaceIN8firebase9firestore4util18ThreadSafeMemoizerINS2_4core6TargetEEENS_9allocatorIS7_EEE16__on_zero_sharedEv, symObjAddr: 0x6738, symBinAddr: 0x233E8, symSize: 0x8 }
  - { offset: 0x183511, size: 0x8, addend: 0x0, symName: __ZNSt3__120__shared_ptr_emplaceIN8firebase9firestore4util18ThreadSafeMemoizerINS2_4core6TargetEEENS_9allocatorIS7_EEE16__on_zero_sharedEv, symObjAddr: 0x6738, symBinAddr: 0x233E8, symSize: 0x8 }
  - { offset: 0x18352E, size: 0x8, addend: 0x0, symName: __ZNSt3__120__shared_ptr_emplaceIN8firebase9firestore4util18ThreadSafeMemoizerINS2_4core6TargetEEENS_9allocatorIS7_EEE16__on_zero_sharedEv, symObjAddr: 0x6738, symBinAddr: 0x233E8, symSize: 0x8 }
  - { offset: 0x1835EE, size: 0x8, addend: 0x0, symName: __ZNSt3__120__shared_ptr_emplaceIN8firebase9firestore4util18ThreadSafeMemoizerINS2_4core6TargetEEENS_9allocatorIS7_EEE21__on_zero_shared_weakEv, symObjAddr: 0x6740, symBinAddr: 0x233F0, symSize: 0x4 }
  - { offset: 0x18361F, size: 0x8, addend: 0x0, symName: __ZNSt3__120__shared_ptr_emplaceIN8firebase9firestore4util18ThreadSafeMemoizerINS2_4core6TargetEEENS_9allocatorIS7_EEE21__on_zero_shared_weakEv, symObjAddr: 0x6740, symBinAddr: 0x233F0, symSize: 0x4 }
  - { offset: 0x183641, size: 0x8, addend: 0x0, symName: __ZNSt3__120__shared_ptr_emplaceIN8firebase9firestore4util18ThreadSafeMemoizerINS2_4core6TargetEEENS_9allocatorIS7_EEE21__on_zero_shared_weakEv, symObjAddr: 0x6740, symBinAddr: 0x233F0, symSize: 0x4 }
  - { offset: 0x183664, size: 0x8, addend: 0x0, symName: __ZNSt3__120__shared_ptr_emplaceIN8firebase9firestore4util18ThreadSafeMemoizerINS2_4core6TargetEEENS_9allocatorIS7_EEE21__on_zero_shared_weakEv, symObjAddr: 0x6740, symBinAddr: 0x233F0, symSize: 0x4 }
  - { offset: 0x18369A, size: 0x8, addend: 0x0, symName: __ZNSt3__120__shared_ptr_emplaceIN8firebase9firestore4util18ThreadSafeMemoizerINS2_4core6TargetEEENS_9allocatorIS7_EEE21__on_zero_shared_weakEv, symObjAddr: 0x6740, symBinAddr: 0x233F0, symSize: 0x4 }
  - { offset: 0x184739, size: 0x8, addend: 0x0, symName: __ZN8firebase9firestore4util10JsonReader8ParseIntIiEET_RKN8nlohmann10basic_jsonINSt3__13mapENS7_6vectorENS7_12basic_stringIcNS7_11char_traitsIcEENS7_9allocatorIcEEEEbxydSD_NS5_14adl_serializerENS9_IhNSD_IhEEEEEERS2_, symObjAddr: 0x79A0, symBinAddr: 0x23DD4, symSize: 0xE4 }
  - { offset: 0x184BA9, size: 0x8, addend: 0x0, symName: __ZN8firebase9firestore4util17internal_statusor12StatusOrDataINS_9TimestampEEC2EONS1_6StatusE, symObjAddr: 0x75A4, symBinAddr: 0x239D8, symSize: 0x60 }
  - { offset: 0x184E67, size: 0x8, addend: 0x0, symName: __ZN8firebase9firestore4util17internal_statusor12StatusOrDataINS_9TimestampEE6AssignEONS1_6StatusE, symObjAddr: 0x76A8, symBinAddr: 0x23ADC, symSize: 0x5C }
  - { offset: 0x184FA4, size: 0x8, addend: 0x0, symName: __ZN8firebase9firestore4util17internal_statusor12StatusOrDataINS_9TimestampEE6AssignEOS4_, symObjAddr: 0x7650, symBinAddr: 0x23A84, symSize: 0x58 }
  - { offset: 0x186B93, size: 0x8, addend: 0x0, symName: __ZNSt3__120__shared_ptr_emplaceIN8firebase9firestore6nanopb7MessageINS2_31_google_firestore_v1_ArrayValueEEENS_9allocatorIS6_EEED1Ev, symObjAddr: 0x88E8, symBinAddr: 0x23EB8, symSize: 0x14 }
  - { offset: 0x186BB5, size: 0x8, addend: 0x0, symName: __ZNSt3__120__shared_ptr_emplaceIN8firebase9firestore6nanopb7MessageINS2_31_google_firestore_v1_ArrayValueEEENS_9allocatorIS6_EEED1Ev, symObjAddr: 0x88E8, symBinAddr: 0x23EB8, symSize: 0x14 }
  - { offset: 0x186BEA, size: 0x8, addend: 0x0, symName: __ZNSt3__120__shared_ptr_emplaceIN8firebase9firestore6nanopb7MessageINS2_31_google_firestore_v1_ArrayValueEEENS_9allocatorIS6_EEED0Ev, symObjAddr: 0x88FC, symBinAddr: 0x23ECC, symSize: 0x24 }
  - { offset: 0x186CE7, size: 0x8, addend: 0x0, symName: __ZNSt3__120__shared_ptr_emplaceIN8firebase9firestore6nanopb7MessageINS2_31_google_firestore_v1_ArrayValueEEENS_9allocatorIS6_EEE16__on_zero_sharedEv, symObjAddr: 0x8920, symBinAddr: 0x23EF0, symSize: 0x8 }
  - { offset: 0x186D0F, size: 0x8, addend: 0x0, symName: __ZNSt3__120__shared_ptr_emplaceIN8firebase9firestore6nanopb7MessageINS2_31_google_firestore_v1_ArrayValueEEENS_9allocatorIS6_EEE16__on_zero_sharedEv, symObjAddr: 0x8920, symBinAddr: 0x23EF0, symSize: 0x8 }
  - { offset: 0x186D2C, size: 0x8, addend: 0x0, symName: __ZNSt3__120__shared_ptr_emplaceIN8firebase9firestore6nanopb7MessageINS2_31_google_firestore_v1_ArrayValueEEENS_9allocatorIS6_EEE16__on_zero_sharedEv, symObjAddr: 0x8920, symBinAddr: 0x23EF0, symSize: 0x8 }
  - { offset: 0x186DEC, size: 0x8, addend: 0x0, symName: __ZNSt3__120__shared_ptr_emplaceIN8firebase9firestore6nanopb7MessageINS2_31_google_firestore_v1_ArrayValueEEENS_9allocatorIS6_EEE21__on_zero_shared_weakEv, symObjAddr: 0x8928, symBinAddr: 0x23EF8, symSize: 0x4 }
  - { offset: 0x186E1D, size: 0x8, addend: 0x0, symName: __ZNSt3__120__shared_ptr_emplaceIN8firebase9firestore6nanopb7MessageINS2_31_google_firestore_v1_ArrayValueEEENS_9allocatorIS6_EEE21__on_zero_shared_weakEv, symObjAddr: 0x8928, symBinAddr: 0x23EF8, symSize: 0x4 }
  - { offset: 0x186E3F, size: 0x8, addend: 0x0, symName: __ZNSt3__120__shared_ptr_emplaceIN8firebase9firestore6nanopb7MessageINS2_31_google_firestore_v1_ArrayValueEEENS_9allocatorIS6_EEE21__on_zero_shared_weakEv, symObjAddr: 0x8928, symBinAddr: 0x23EF8, symSize: 0x4 }
  - { offset: 0x186E62, size: 0x8, addend: 0x0, symName: __ZNSt3__120__shared_ptr_emplaceIN8firebase9firestore6nanopb7MessageINS2_31_google_firestore_v1_ArrayValueEEENS_9allocatorIS6_EEE21__on_zero_shared_weakEv, symObjAddr: 0x8928, symBinAddr: 0x23EF8, symSize: 0x4 }
  - { offset: 0x186E97, size: 0x8, addend: 0x0, symName: __ZNSt3__120__shared_ptr_emplaceIN8firebase9firestore6nanopb7MessageINS2_31_google_firestore_v1_ArrayValueEEENS_9allocatorIS6_EEE21__on_zero_shared_weakEv, symObjAddr: 0x8928, symBinAddr: 0x23EF8, symSize: 0x4 }
  - { offset: 0x187056, size: 0x8, addend: 0x0, symName: __ZNSt3__120__shared_ptr_emplaceIN8firebase9firestore6nanopb7MessageINS2_26_google_firestore_v1_ValueEEENS_9allocatorIS6_EEED1Ev, symObjAddr: 0x8B08, symBinAddr: 0x2401C, symSize: 0x14 }
  - { offset: 0x187078, size: 0x8, addend: 0x0, symName: __ZNSt3__120__shared_ptr_emplaceIN8firebase9firestore6nanopb7MessageINS2_26_google_firestore_v1_ValueEEENS_9allocatorIS6_EEED1Ev, symObjAddr: 0x8B08, symBinAddr: 0x2401C, symSize: 0x14 }
  - { offset: 0x1870AD, size: 0x8, addend: 0x0, symName: __ZNSt3__120__shared_ptr_emplaceIN8firebase9firestore6nanopb7MessageINS2_26_google_firestore_v1_ValueEEENS_9allocatorIS6_EEED0Ev, symObjAddr: 0x8B1C, symBinAddr: 0x24030, symSize: 0x24 }
  - { offset: 0x1871AA, size: 0x8, addend: 0x0, symName: __ZNSt3__120__shared_ptr_emplaceIN8firebase9firestore6nanopb7MessageINS2_26_google_firestore_v1_ValueEEENS_9allocatorIS6_EEE16__on_zero_sharedEv, symObjAddr: 0x8B40, symBinAddr: 0x24054, symSize: 0x8 }
  - { offset: 0x1871D2, size: 0x8, addend: 0x0, symName: __ZNSt3__120__shared_ptr_emplaceIN8firebase9firestore6nanopb7MessageINS2_26_google_firestore_v1_ValueEEENS_9allocatorIS6_EEE16__on_zero_sharedEv, symObjAddr: 0x8B40, symBinAddr: 0x24054, symSize: 0x8 }
  - { offset: 0x1871EF, size: 0x8, addend: 0x0, symName: __ZNSt3__120__shared_ptr_emplaceIN8firebase9firestore6nanopb7MessageINS2_26_google_firestore_v1_ValueEEENS_9allocatorIS6_EEE16__on_zero_sharedEv, symObjAddr: 0x8B40, symBinAddr: 0x24054, symSize: 0x8 }
  - { offset: 0x1872AF, size: 0x8, addend: 0x0, symName: __ZNSt3__120__shared_ptr_emplaceIN8firebase9firestore6nanopb7MessageINS2_26_google_firestore_v1_ValueEEENS_9allocatorIS6_EEE21__on_zero_shared_weakEv, symObjAddr: 0x8B48, symBinAddr: 0x2405C, symSize: 0x4 }
  - { offset: 0x1872E0, size: 0x8, addend: 0x0, symName: __ZNSt3__120__shared_ptr_emplaceIN8firebase9firestore6nanopb7MessageINS2_26_google_firestore_v1_ValueEEENS_9allocatorIS6_EEE21__on_zero_shared_weakEv, symObjAddr: 0x8B48, symBinAddr: 0x2405C, symSize: 0x4 }
  - { offset: 0x187302, size: 0x8, addend: 0x0, symName: __ZNSt3__120__shared_ptr_emplaceIN8firebase9firestore6nanopb7MessageINS2_26_google_firestore_v1_ValueEEENS_9allocatorIS6_EEE21__on_zero_shared_weakEv, symObjAddr: 0x8B48, symBinAddr: 0x2405C, symSize: 0x4 }
  - { offset: 0x187325, size: 0x8, addend: 0x0, symName: __ZNSt3__120__shared_ptr_emplaceIN8firebase9firestore6nanopb7MessageINS2_26_google_firestore_v1_ValueEEENS_9allocatorIS6_EEE21__on_zero_shared_weakEv, symObjAddr: 0x8B48, symBinAddr: 0x2405C, symSize: 0x4 }
  - { offset: 0x18735A, size: 0x8, addend: 0x0, symName: __ZNSt3__120__shared_ptr_emplaceIN8firebase9firestore6nanopb7MessageINS2_26_google_firestore_v1_ValueEEENS_9allocatorIS6_EEE21__on_zero_shared_weakEv, symObjAddr: 0x8B48, symBinAddr: 0x2405C, symSize: 0x4 }
  - { offset: 0x187C3E, size: 0x8, addend: 0x0, symName: __ZNSt3__120__shared_ptr_emplaceINS_12basic_stringIcNS_11char_traitsIcEENS_9allocatorIcEEEENS4_IS6_EEEC2B8ne200100IJRS6_ES7_Li0EEES7_DpOT_, symObjAddr: 0x94E8, symBinAddr: 0x2460C, symSize: 0x74 }
  - { offset: 0x187DCF, size: 0x8, addend: 0x0, symName: __ZNSt3__120__shared_ptr_emplaceINS_12basic_stringIcNS_11char_traitsIcEENS_9allocatorIcEEEENS4_IS6_EEED1Ev, symObjAddr: 0x955C, symBinAddr: 0x24680, symSize: 0x14 }
  - { offset: 0x187DF1, size: 0x8, addend: 0x0, symName: __ZNSt3__120__shared_ptr_emplaceINS_12basic_stringIcNS_11char_traitsIcEENS_9allocatorIcEEEENS4_IS6_EEED1Ev, symObjAddr: 0x955C, symBinAddr: 0x24680, symSize: 0x14 }
  - { offset: 0x187E26, size: 0x8, addend: 0x0, symName: __ZNSt3__120__shared_ptr_emplaceINS_12basic_stringIcNS_11char_traitsIcEENS_9allocatorIcEEEENS4_IS6_EEED0Ev, symObjAddr: 0x9570, symBinAddr: 0x24694, symSize: 0x24 }
  - { offset: 0x187EC1, size: 0x8, addend: 0x0, symName: __ZNSt3__120__shared_ptr_emplaceINS_12basic_stringIcNS_11char_traitsIcEENS_9allocatorIcEEEENS4_IS6_EEE16__on_zero_sharedEv, symObjAddr: 0x9594, symBinAddr: 0x246B8, symSize: 0x14 }
  - { offset: 0x187F56, size: 0x8, addend: 0x0, symName: __ZNSt3__120__shared_ptr_emplaceINS_12basic_stringIcNS_11char_traitsIcEENS_9allocatorIcEEEENS4_IS6_EEE16__on_zero_sharedEv, symObjAddr: 0x9594, symBinAddr: 0x246B8, symSize: 0x14 }
  - { offset: 0x18800F, size: 0x8, addend: 0x0, symName: __ZNSt3__120__shared_ptr_emplaceINS_12basic_stringIcNS_11char_traitsIcEENS_9allocatorIcEEEENS4_IS6_EEE21__on_zero_shared_weakEv, symObjAddr: 0x95A8, symBinAddr: 0x246CC, symSize: 0x4 }
  - { offset: 0x188040, size: 0x8, addend: 0x0, symName: __ZNSt3__120__shared_ptr_emplaceINS_12basic_stringIcNS_11char_traitsIcEENS_9allocatorIcEEEENS4_IS6_EEE21__on_zero_shared_weakEv, symObjAddr: 0x95A8, symBinAddr: 0x246CC, symSize: 0x4 }
  - { offset: 0x188062, size: 0x8, addend: 0x0, symName: __ZNSt3__120__shared_ptr_emplaceINS_12basic_stringIcNS_11char_traitsIcEENS_9allocatorIcEEEENS4_IS6_EEE21__on_zero_shared_weakEv, symObjAddr: 0x95A8, symBinAddr: 0x246CC, symSize: 0x4 }
  - { offset: 0x188085, size: 0x8, addend: 0x0, symName: __ZNSt3__120__shared_ptr_emplaceINS_12basic_stringIcNS_11char_traitsIcEENS_9allocatorIcEEEENS4_IS6_EEE21__on_zero_shared_weakEv, symObjAddr: 0x95A8, symBinAddr: 0x246CC, symSize: 0x4 }
  - { offset: 0x1880BA, size: 0x8, addend: 0x0, symName: __ZNSt3__120__shared_ptr_emplaceINS_12basic_stringIcNS_11char_traitsIcEENS_9allocatorIcEEEENS4_IS6_EEE21__on_zero_shared_weakEv, symObjAddr: 0x95A8, symBinAddr: 0x246CC, symSize: 0x4 }
  - { offset: 0x1882CA, size: 0x8, addend: 0x0, symName: __ZN4absl12lts_202401168AlphaNumC2Em, symObjAddr: 0x9704, symBinAddr: 0x247C4, symSize: 0x44 }
  - { offset: 0x1883B6, size: 0x8, addend: 0x0, symName: __ZNSt3__16vectorINS_12basic_stringIcNS_11char_traitsIcEENS_9allocatorIcEEEENS4_IS6_EEE16__init_with_sizeB8ne200100INS_11__wrap_iterIPKS6_EESD_EEvT_T0_m, symObjAddr: 0x9748, symBinAddr: 0x24808, symSize: 0x84 }
  - { offset: 0x18B057, size: 0x8, addend: 0x0, symName: __ZN8nlohmann6detail9from_jsonINS_10basic_jsonINSt3__13mapENS3_6vectorENS3_12basic_stringIcNS3_11char_traitsIcEENS3_9allocatorIcEEEEbxydS9_NS_14adl_serializerENS5_IhNS9_IhEEEEEEEEvRKT_RNSG_9boolean_tE, symObjAddr: 0xA6F8, symBinAddr: 0x24AD0, symSize: 0x120 }
  - { offset: 0x18BC23, size: 0x8, addend: 0x0, symName: __ZNK8nlohmann6detail9iter_implIKNS_10basic_jsonINSt3__13mapENS3_6vectorENS3_12basic_stringIcNS3_11char_traitsIcEENS3_9allocatorIcEEEEbxydS9_NS_14adl_serializerENS5_IhNS9_IhEEEEEEE3keyEv.cold.1, symObjAddr: 0xB3A4, symBinAddr: 0x158308, symSize: 0x28 }
  - { offset: 0x18BC54, size: 0x8, addend: 0x0, symName: __ZNK8nlohmann6detail9iter_implIKNS_10basic_jsonINSt3__13mapENS3_6vectorENS3_12basic_stringIcNS3_11char_traitsIcEENS3_9allocatorIcEEEEbxydS9_NS_14adl_serializerENS5_IhNS9_IhEEEEEEEdeEv.cold.1, symObjAddr: 0xB3CC, symBinAddr: 0x158330, symSize: 0x28 }
  - { offset: 0x18BC6C, size: 0x8, addend: 0x0, symName: __ZNK8nlohmann6detail9iter_implIKNS_10basic_jsonINSt3__13mapENS3_6vectorENS3_12basic_stringIcNS3_11char_traitsIcEENS3_9allocatorIcEEEEbxydS9_NS_14adl_serializerENS5_IhNS9_IhEEEEEEEdeEv.cold.3, symObjAddr: 0xB41C, symBinAddr: 0x158380, symSize: 0x28 }
  - { offset: 0x18BC84, size: 0x8, addend: 0x0, symName: __ZNK8nlohmann6detail9iter_implIKNS_10basic_jsonINSt3__13mapENS3_6vectorENS3_12basic_stringIcNS3_11char_traitsIcEENS3_9allocatorIcEEEEbxydS9_NS_14adl_serializerENS5_IhNS9_IhEEEEEEEdeEv.cold.2, symObjAddr: 0xB3F4, symBinAddr: 0x158358, symSize: 0x28 }
  - { offset: 0x18BCF0, size: 0x8, addend: 0x0, symName: __GLOBAL__sub_I_bundle_serializer.cc, symObjAddr: 0xC064, symBinAddr: 0x252C8, symSize: 0xAC }
  - { offset: 0x19056C, size: 0x8, addend: 0x0, symName: __ZN8firebase9firestore4util17internal_statusor12PlacementNewINS1_6StatusEJS4_EEEvPvDpOT0_, symObjAddr: 0x704, symBinAddr: 0x25A68, symSize: 0x28 }
  - { offset: 0x1915B4, size: 0x8, addend: 0x0, symName: __ZN8firebase9firestore4util15ByteStreamApple9ReadUntilEcm, symObjAddr: 0x0, symBinAddr: 0x25374, symSize: 0x1F4 }
  - { offset: 0x191E5A, size: 0x8, addend: 0x0, symName: __ZN8firebase9firestore4util15ByteStreamApple12ReadToBufferEm, symObjAddr: 0x1F4, symBinAddr: 0x25568, symSize: 0x104 }
  - { offset: 0x192453, size: 0x8, addend: 0x0, symName: __ZN8firebase9firestore4util15ByteStreamApple13ConsumeBufferEv, symObjAddr: 0x3F0, symBinAddr: 0x25764, symSize: 0xCC }
  - { offset: 0x1928F9, size: 0x8, addend: 0x0, symName: __ZN8firebase9firestore4util15ByteStreamApple11ErrorResultEv, symObjAddr: 0x2F8, symBinAddr: 0x2566C, symSize: 0xF8 }
  - { offset: 0x19312B, size: 0x8, addend: 0x0, symName: __ZN8firebase9firestore4util17internal_statusor12StatusOrDataINSt3__112basic_stringIcNS4_11char_traitsIcEENS4_9allocatorIcEEEEEC2EONS1_6StatusE, symObjAddr: 0x8B8, symBinAddr: 0x25A90, symSize: 0x60 }
  - { offset: 0x1931E8, size: 0x8, addend: 0x0, symName: __ZN8firebase9firestore4util17internal_statusor12StatusOrDataINSt3__112basic_stringIcNS4_11char_traitsIcEENS4_9allocatorIcEEEEEC2EONS1_6StatusE, symObjAddr: 0x8B8, symBinAddr: 0x25A90, symSize: 0x60 }
  - { offset: 0x1934CA, size: 0x8, addend: 0x0, symName: __ZNK8firebase9firestore4util15ByteStreamApple3eofEv, symObjAddr: 0x4BC, symBinAddr: 0x25830, symSize: 0x3C }
  - { offset: 0x19351A, size: 0x8, addend: 0x0, symName: __ZNK8firebase9firestore4util15ByteStreamApple3eofEv, symObjAddr: 0x4BC, symBinAddr: 0x25830, symSize: 0x3C }
  - { offset: 0x193557, size: 0x8, addend: 0x0, symName: __ZN8firebase9firestore4util15ByteStreamApple4ReadEm, symObjAddr: 0x4F8, symBinAddr: 0x2586C, symSize: 0x174 }
  - { offset: 0x193D6F, size: 0x8, addend: 0x0, symName: __ZN8firebase9firestore4util15ByteStreamAppleD1Ev, symObjAddr: 0x66C, symBinAddr: 0x259E0, symSize: 0x44 }
  - { offset: 0x193ECE, size: 0x8, addend: 0x0, symName: __ZN8firebase9firestore4util15ByteStreamAppleD0Ev, symObjAddr: 0x6B0, symBinAddr: 0x25A24, symSize: 0x44 }
  - { offset: 0x19A513, size: 0x8, addend: 0x0, symName: __ZN8firebase9firestore4util13ByteStreamCpp9ReadUntilEcm, symObjAddr: 0x0, symBinAddr: 0x25AF0, symSize: 0xB0 }
  - { offset: 0x19A9B7, size: 0x8, addend: 0x0, symName: __ZN8firebase9firestore4util13ByteStreamCpp12ToReadResultERKNSt3__112basic_stringIcNS3_11char_traitsIcEENS3_9allocatorIcEEEE, symObjAddr: 0xB0, symBinAddr: 0x25BA0, symSize: 0x1C0 }
  - { offset: 0x19BEB2, size: 0x8, addend: 0x0, symName: __ZN8firebase9firestore4util13ByteStreamCpp4ReadEm, symObjAddr: 0x270, symBinAddr: 0x25D60, symSize: 0xA0 }
  - { offset: 0x19C281, size: 0x8, addend: 0x0, symName: __ZN8firebase9firestore4util13ByteStreamCppD1Ev, symObjAddr: 0x310, symBinAddr: 0x25E00, symSize: 0x40 }
  - { offset: 0x19C364, size: 0x8, addend: 0x0, symName: __ZN8firebase9firestore4util13ByteStreamCppD0Ev, symObjAddr: 0x350, symBinAddr: 0x25E40, symSize: 0x40 }
  - { offset: 0x19E50C, size: 0x8, addend: 0x0, symName: __ZN8firebase9firestore6nanopb4swapERNS1_10ByteStringES3_, symObjAddr: 0x388, symBinAddr: 0x261F8, symSize: 0x14 }
  - { offset: 0x19E543, size: 0x8, addend: 0x0, symName: __ZN8firebase9firestore6nanopb4swapERNS1_10ByteStringES3_, symObjAddr: 0x388, symBinAddr: 0x261F8, symSize: 0x14 }
  - { offset: 0x19E581, size: 0x8, addend: 0x0, symName: __ZN8firebase9firestore6nanopblsERNSt3__113basic_ostreamIcNS2_11char_traitsIcEEEERKNS1_10ByteStringE, symObjAddr: 0x47C, symBinAddr: 0x262EC, symSize: 0x8C }
  - { offset: 0x1A24B7, size: 0x8, addend: 0x0, symName: __ZNK8firebase9firestore6nanopb10ByteString4dataEv, symObjAddr: 0x1DC, symBinAddr: 0x2605C, symSize: 0x1C }
  - { offset: 0x1A24DB, size: 0x8, addend: 0x0, symName: __ZZNK8firebase9firestore6nanopb10ByteString4dataEvE6kEmpty, symObjAddr: 0xA44, symBinAddr: 0x1602FD, symSize: 0x0 }
  - { offset: 0x1A2658, size: 0x8, addend: 0x0, symName: __ZN8firebase9firestore6nanopb10ByteStringC2EPK16pb_bytes_array_s, symObjAddr: 0x0, symBinAddr: 0x25E80, symSize: 0x3C }
  - { offset: 0x1A26BB, size: 0x8, addend: 0x0, symName: __ZN8firebase9firestore6nanopb10ByteStringC1EPK16pb_bytes_array_s, symObjAddr: 0x3C, symBinAddr: 0x25EBC, symSize: 0x3C }
  - { offset: 0x1A2728, size: 0x8, addend: 0x0, symName: __ZN8firebase9firestore6nanopb10ByteStringC2EPKvm, symObjAddr: 0x78, symBinAddr: 0x25EF8, symSize: 0x30 }
  - { offset: 0x1A27A9, size: 0x8, addend: 0x0, symName: __ZN8firebase9firestore6nanopb10ByteStringC1EPKvm, symObjAddr: 0xA8, symBinAddr: 0x25F28, symSize: 0x30 }
  - { offset: 0x1A2827, size: 0x8, addend: 0x0, symName: __ZN8firebase9firestore6nanopb10ByteStringC2EN4absl12lts_2024011611string_viewE, symObjAddr: 0xD8, symBinAddr: 0x25F58, symSize: 0x30 }
  - { offset: 0x1A28DD, size: 0x8, addend: 0x0, symName: __ZN8firebase9firestore6nanopb10ByteStringC1EN4absl12lts_2024011611string_viewE, symObjAddr: 0x108, symBinAddr: 0x25F88, symSize: 0x30 }
  - { offset: 0x1A2990, size: 0x8, addend: 0x0, symName: __ZN8firebase9firestore6nanopb10ByteStringC2ESt16initializer_listIhE, symObjAddr: 0x138, symBinAddr: 0x25FB8, symSize: 0x30 }
  - { offset: 0x1A2A15, size: 0x8, addend: 0x0, symName: __ZN8firebase9firestore6nanopb10ByteStringC1ESt16initializer_listIhE, symObjAddr: 0x168, symBinAddr: 0x25FE8, symSize: 0x30 }
  - { offset: 0x1A2AF8, size: 0x8, addend: 0x0, symName: __ZN8firebase9firestore6nanopb10ByteStringC2ERKS2_, symObjAddr: 0x198, symBinAddr: 0x26018, symSize: 0x44 }
  - { offset: 0x1A2B9E, size: 0x8, addend: 0x0, symName: __ZN8firebase9firestore6nanopb10ByteStringC1ERKS2_, symObjAddr: 0x1F8, symBinAddr: 0x26078, symSize: 0x44 }
  - { offset: 0x1A2C72, size: 0x8, addend: 0x0, symName: __ZN8firebase9firestore6nanopb10ByteStringC2EOS2_, symObjAddr: 0x23C, symBinAddr: 0x260BC, symSize: 0x14 }
  - { offset: 0x1A2CBF, size: 0x8, addend: 0x0, symName: __ZN8firebase9firestore6nanopb10ByteStringC1EOS2_, symObjAddr: 0x250, symBinAddr: 0x260D0, symSize: 0x14 }
  - { offset: 0x1A2CF8, size: 0x8, addend: 0x0, symName: __ZN8firebase9firestore6nanopb10ByteStringC1EOS2_, symObjAddr: 0x250, symBinAddr: 0x260D0, symSize: 0x14 }
  - { offset: 0x1A2D19, size: 0x8, addend: 0x0, symName: __ZN8firebase9firestore6nanopb10ByteStringD2Ev, symObjAddr: 0x264, symBinAddr: 0x260E4, symSize: 0x28 }
  - { offset: 0x1A2D70, size: 0x8, addend: 0x0, symName: __ZN8firebase9firestore6nanopb10ByteStringD1Ev, symObjAddr: 0x29C, symBinAddr: 0x2610C, symSize: 0x28 }
  - { offset: 0x1A2DC4, size: 0x8, addend: 0x0, symName: __ZN8firebase9firestore6nanopb10ByteStringaSERKS2_, symObjAddr: 0x2C4, symBinAddr: 0x26134, symSize: 0x68 }
  - { offset: 0x1A2E44, size: 0x8, addend: 0x0, symName: __ZN8firebase9firestore6nanopb10ByteStringaSEOS2_, symObjAddr: 0x32C, symBinAddr: 0x2619C, symSize: 0x44 }
  - { offset: 0x1A2EDE, size: 0x8, addend: 0x0, symName: __ZN8firebase9firestore6nanopb10ByteString4TakeEP16pb_bytes_array_s, symObjAddr: 0x370, symBinAddr: 0x261E0, symSize: 0x8 }
  - { offset: 0x1A2F04, size: 0x8, addend: 0x0, symName: __ZN8firebase9firestore6nanopb10ByteString4TakeEP16pb_bytes_array_s, symObjAddr: 0x370, symBinAddr: 0x261E0, symSize: 0x8 }
  - { offset: 0x1A2F2C, size: 0x8, addend: 0x0, symName: __ZN8firebase9firestore6nanopb10ByteString4TakeEP16pb_bytes_array_s, symObjAddr: 0x370, symBinAddr: 0x261E0, symSize: 0x8 }
  - { offset: 0x1A2F53, size: 0x8, addend: 0x0, symName: __ZN8firebase9firestore6nanopb10ByteString7releaseEv, symObjAddr: 0x378, symBinAddr: 0x261E8, symSize: 0x10 }
  - { offset: 0x1A2FA7, size: 0x8, addend: 0x0, symName: __ZNK8firebase9firestore6nanopb10ByteString9CompareToERKS2_, symObjAddr: 0x39C, symBinAddr: 0x2620C, symSize: 0x58 }
  - { offset: 0x1A306A, size: 0x8, addend: 0x0, symName: __ZNK8firebase9firestore6nanopb10ByteString4HashEv, symObjAddr: 0x3F4, symBinAddr: 0x26264, symSize: 0x64 }
  - { offset: 0x1A3094, size: 0x8, addend: 0x0, symName: __ZNK8firebase9firestore6nanopb10ByteString4HashEv, symObjAddr: 0x3F4, symBinAddr: 0x26264, symSize: 0x64 }
  - { offset: 0x1A30AF, size: 0x8, addend: 0x0, symName: __ZNK8firebase9firestore6nanopb10ByteString4HashEv, symObjAddr: 0x3F4, symBinAddr: 0x26264, symSize: 0x64 }
  - { offset: 0x1A3220, size: 0x8, addend: 0x0, symName: __ZNK8firebase9firestore6nanopb10ByteString8ToStringEv, symObjAddr: 0x458, symBinAddr: 0x262C8, symSize: 0x24 }
  - { offset: 0x1A34C5, size: 0x8, addend: 0x0, symName: __ZNK8firebase9firestore6nanopb10ByteString11ToHexStringEv, symObjAddr: 0x508, symBinAddr: 0x26378, symSize: 0xE0 }
  - { offset: 0x1AF528, size: 0x8, addend: 0x0, symName: __ZN8firebase9firestore4util20ThrowInvalidArgumentIJNSt3__112basic_stringIcNS3_11char_traitsIcEENS3_9allocatorIcEEEEmEEEvPKcDpRKT_, symObjAddr: 0x910, symBinAddr: 0x26D68, symSize: 0x50 }
  - { offset: 0x1AF8D8, size: 0x8, addend: 0x0, symName: __ZN8firebase9firestore4util12StringFormatIJNSt3__112basic_stringIcNS3_11char_traitsIcEENS3_9allocatorIcEEEEmEEES9_PKcDpRKT_, symObjAddr: 0x960, symBinAddr: 0x26DB8, symSize: 0x98 }
  - { offset: 0x1B1807, size: 0x8, addend: 0x0, symName: __ZN8firebase9firestore3apieqERKNS1_19CollectionReferenceES4_, symObjAddr: 0x1DC, symBinAddr: 0x26634, symSize: 0x24 }
  - { offset: 0x1B1846, size: 0x8, addend: 0x0, symName: __ZN8firebase9firestore3apieqERKNS1_19CollectionReferenceES4_, symObjAddr: 0x1DC, symBinAddr: 0x26634, symSize: 0x24 }
  - { offset: 0x1B1868, size: 0x8, addend: 0x0, symName: __ZN8firebase9firestore3apieqERKNS1_19CollectionReferenceES4_, symObjAddr: 0x1DC, symBinAddr: 0x26634, symSize: 0x24 }
  - { offset: 0x1B257D, size: 0x8, addend: 0x0, symName: __ZN8firebase9firestore3api19CollectionReferenceC2ENS0_5model12ResourcePathENSt3__110shared_ptrINS1_9FirestoreEEE, symObjAddr: 0x0, symBinAddr: 0x26458, symSize: 0x1D8 }
  - { offset: 0x1B2FD8, size: 0x8, addend: 0x0, symName: __ZN8firebase9firestore4core5QueryC2ENS0_5model12ResourcePathENSt3__110shared_ptrIKNS5_12basic_stringIcNS5_11char_traitsIcEENS5_9allocatorIcEEEEEE, symObjAddr: 0xA3C, symBinAddr: 0x26E50, symSize: 0x22C }
  - { offset: 0x1B4445, size: 0x8, addend: 0x0, symName: __ZN8firebase9firestore3api19CollectionReferenceC1ENS0_5model12ResourcePathENSt3__110shared_ptrINS1_9FirestoreEEE, symObjAddr: 0x1D8, symBinAddr: 0x26630, symSize: 0x4 }
  - { offset: 0x1B448E, size: 0x8, addend: 0x0, symName: __ZN8firebase9firestore3api19CollectionReferenceC1ENS0_5model12ResourcePathENSt3__110shared_ptrINS1_9FirestoreEEE, symObjAddr: 0x1D8, symBinAddr: 0x26630, symSize: 0x4 }
  - { offset: 0x1B468E, size: 0x8, addend: 0x0, symName: __ZNK8firebase9firestore3api19CollectionReference4HashEv, symObjAddr: 0x200, symBinAddr: 0x26658, symSize: 0x68 }
  - { offset: 0x1B48A7, size: 0x8, addend: 0x0, symName: __ZNK8firebase9firestore3api19CollectionReference13collection_idEv, symObjAddr: 0x268, symBinAddr: 0x266C0, symSize: 0x8 }
  - { offset: 0x1B48D1, size: 0x8, addend: 0x0, symName: __ZNK8firebase9firestore3api19CollectionReference13collection_idEv, symObjAddr: 0x268, symBinAddr: 0x266C0, symSize: 0x8 }
  - { offset: 0x1B48F7, size: 0x8, addend: 0x0, symName: __ZNK8firebase9firestore5model4impl8BasePathINS1_12ResourcePathEE12last_segmentEv, symObjAddr: 0x270, symBinAddr: 0x266C8, symSize: 0x8C }
  - { offset: 0x1B4E5E, size: 0x8, addend: 0x0, symName: __ZNK8firebase9firestore3api19CollectionReference6parentEv, symObjAddr: 0x2FC, symBinAddr: 0x26754, symSize: 0xC4 }
  - { offset: 0x1B53BE, size: 0x8, addend: 0x0, symName: __ZNK8firebase9firestore5model4impl8BasePathINS1_12ResourcePathEE7PopLastEv, symObjAddr: 0x3C0, symBinAddr: 0x26818, symSize: 0xB4 }
  - { offset: 0x1B5A3D, size: 0x8, addend: 0x0, symName: __ZNK8firebase9firestore3api19CollectionReference4pathEv, symObjAddr: 0x474, symBinAddr: 0x268CC, symSize: 0x8 }
  - { offset: 0x1B5A67, size: 0x8, addend: 0x0, symName: __ZNK8firebase9firestore3api19CollectionReference4pathEv, symObjAddr: 0x474, symBinAddr: 0x268CC, symSize: 0x8 }
  - { offset: 0x1B5A80, size: 0x8, addend: 0x0, symName: __ZNK8firebase9firestore3api19CollectionReference8DocumentERKNSt3__112basic_stringIcNS3_11char_traitsIcEENS3_9allocatorIcEEEE, symObjAddr: 0x47C, symBinAddr: 0x268D4, symSize: 0x140 }
  - { offset: 0x1B6321, size: 0x8, addend: 0x0, symName: __ZNK8firebase9firestore5model4impl8BasePathINS1_12ResourcePathEE6AppendERKS4_, symObjAddr: 0x5BC, symBinAddr: 0x26A14, symSize: 0xB4 }
  - { offset: 0x1B6975, size: 0x8, addend: 0x0, symName: __ZNSt3__16vectorINS_12basic_stringIcNS_11char_traitsIcEENS_9allocatorIcEEEENS4_IS6_EEE18__insert_with_sizeB8ne200100INS_11__wrap_iterIPKS6_EESD_EENSA_IPS6_EESD_T_T0_l, symObjAddr: 0x1788, symBinAddr: 0x2707C, symSize: 0x248 }
  - { offset: 0x1B70FA, size: 0x8, addend: 0x0, symName: __ZNK8firebase9firestore3api19CollectionReference11AddDocumentEONS0_4core13ParsedSetDataENSt3__18functionIFvNS0_4util6StatusEEEE, symObjAddr: 0x670, symBinAddr: 0x26AC8, symSize: 0xF4 }
  - { offset: 0x1B73BC, size: 0x8, addend: 0x0, symName: __ZNK8firebase9firestore3api19CollectionReference8DocumentEv, symObjAddr: 0x764, symBinAddr: 0x26BBC, symSize: 0x108 }
  - { offset: 0x1B7AFD, size: 0x8, addend: 0x0, symName: __ZNSt3__110__function12__value_funcIFvN8firebase9firestore4util6StatusEEEC2B8ne200100EOS7_, symObjAddr: 0x1BD0, symBinAddr: 0x2743C, symSize: 0x64 }
  - { offset: 0x1B7BB6, size: 0x8, addend: 0x0, symName: __ZNK8firebase9firestore5model4impl8BasePathINS1_12ResourcePathEE6AppendEONSt3__112basic_stringIcNS6_11char_traitsIcEENS6_9allocatorIcEEEE, symObjAddr: 0x86C, symBinAddr: 0x26CC4, symSize: 0xA4 }
  - { offset: 0x1B8375, size: 0x8, addend: 0x0, symName: __ZN8firebase9firestore4core5QueryC2ENS0_5model12ResourcePathENSt3__110shared_ptrIKNS5_12basic_stringIcNS5_11char_traitsIcEENS5_9allocatorIcEEEEEE, symObjAddr: 0xA3C, symBinAddr: 0x26E50, symSize: 0x22C }
  - { offset: 0x1B9FB4, size: 0x8, addend: 0x0, symName: __ZNSt3__16vectorINS_12basic_stringIcNS_11char_traitsIcEENS_9allocatorIcEEEENS4_IS6_EEE12__move_rangeEPS6_S9_S9_, symObjAddr: 0x19D0, symBinAddr: 0x272C4, symSize: 0x6C }
  - { offset: 0x1BA1E9, size: 0x8, addend: 0x0, symName: __ZNSt3__114__split_bufferINS_12basic_stringIcNS_11char_traitsIcEENS_9allocatorIcEEEERNS4_IS6_EEE28__construct_at_end_with_sizeINS_11__wrap_iterIPKS6_EEEEvT_m, symObjAddr: 0x1A3C, symBinAddr: 0x27330, symSize: 0x90 }
  - { offset: 0x1BA53D, size: 0x8, addend: 0x0, symName: __ZNKSt3__120__move_backward_implINS_17_ClassicAlgPolicyEEclB8ne200100IPNS_12basic_stringIcNS_11char_traitsIcEENS_9allocatorIcEEEESA_SA_EENS_4pairIT_T1_EESC_T0_SD_, symObjAddr: 0x1ACC, symBinAddr: 0x273C0, symSize: 0x7C }
  - { offset: 0x1BC7EC, size: 0x8, addend: 0x0, symName: __ZNK8firebase9firestore33_google_firestore_v1_DocumentMask8ToStringEi, symObjAddr: 0x0, symBinAddr: 0x274A0, symSize: 0x214 }
  - { offset: 0x1BC810, size: 0x8, addend: 0x0, symName: __ZN8firebase9firestore39google_firestore_v1_DocumentMask_fieldsE, symObjAddr: 0x1980, symBinAddr: 0x160308, symSize: 0x0 }
  - { offset: 0x1BC82A, size: 0x8, addend: 0x0, symName: __ZN8firebase9firestore39google_firestore_v1_Precondition_fieldsE, symObjAddr: 0x1A00, symBinAddr: 0x205DF8, symSize: 0x0 }
  - { offset: 0x1BC844, size: 0x8, addend: 0x0, symName: __ZN8firebase9firestore45google_firestore_v1_TransactionOptions_fieldsE, symObjAddr: 0x1AA0, symBinAddr: 0x205E98, symSize: 0x0 }
  - { offset: 0x1BC85E, size: 0x8, addend: 0x0, symName: __ZN8firebase9firestore55google_firestore_v1_TransactionOptions_ReadWrite_fieldsE, symObjAddr: 0x19C0, symBinAddr: 0x160348, symSize: 0x0 }
  - { offset: 0x1BC878, size: 0x8, addend: 0x0, symName: __ZN8firebase9firestore54google_firestore_v1_TransactionOptions_ReadOnly_fieldsE, symObjAddr: 0x1A60, symBinAddr: 0x205E58, symSize: 0x0 }
  - { offset: 0x1BDA7A, size: 0x8, addend: 0x0, symName: __ZN8firebase9firestore6nanopb17PrintMessageFieldINS0_48_google_firestore_v1_TransactionOptions_ReadOnlyEEENSt3__112basic_stringIcNS4_11char_traitsIcEENS4_9allocatorIcEEEEN4absl12lts_2024011611string_viewERKT_ib, symObjAddr: 0xD00, symBinAddr: 0x27B34, symSize: 0x27C }
  - { offset: 0x1BE786, size: 0x8, addend: 0x0, symName: __ZN8firebase9firestore6nanopb17PrintMessageFieldINS0_49_google_firestore_v1_TransactionOptions_ReadWriteEEENSt3__112basic_stringIcNS4_11char_traitsIcEENS4_9allocatorIcEEEEN4absl12lts_2024011611string_viewERKT_ib, symObjAddr: 0xF7C, symBinAddr: 0x27DB0, symSize: 0x27C }
  - { offset: 0x1C1FF2, size: 0x8, addend: 0x0, symName: __ZNK8firebase9firestore33_google_firestore_v1_DocumentMask8ToStringEi, symObjAddr: 0x0, symBinAddr: 0x274A0, symSize: 0x214 }
  - { offset: 0x1C315C, size: 0x8, addend: 0x0, symName: __ZNK8firebase9firestore33_google_firestore_v1_Precondition8ToStringEi, symObjAddr: 0x470, symBinAddr: 0x276B4, symSize: 0x240 }
  - { offset: 0x1C3E2C, size: 0x8, addend: 0x0, symName: __ZNK8firebase9firestore39_google_firestore_v1_TransactionOptions8ToStringEi, symObjAddr: 0xAC0, symBinAddr: 0x278F4, symSize: 0x240 }
  - { offset: 0x1C4AE4, size: 0x8, addend: 0x0, symName: __ZNK8firebase9firestore48_google_firestore_v1_TransactionOptions_ReadOnly8ToStringEi, symObjAddr: 0x13D4, symBinAddr: 0x28208, symSize: 0x200 }
  - { offset: 0x1C5717, size: 0x8, addend: 0x0, symName: __ZNK8firebase9firestore49_google_firestore_v1_TransactionOptions_ReadWrite8ToStringEi, symObjAddr: 0x11F8, symBinAddr: 0x2802C, symSize: 0x1DC }
  - { offset: 0x1C82D1, size: 0x8, addend: 0x0, symName: __ZNK8firebase9firestore4util10ComparatorIN4absl12lts_2024011611string_viewEE7CompareES5_S5_, symObjAddr: 0x0, symBinAddr: 0x28408, symSize: 0x38 }
  - { offset: 0x1C83EF, size: 0x8, addend: 0x0, symName: __ZN8firebase9firestore4util18CompareMixedNumberEdx, symObjAddr: 0x138, symBinAddr: 0x28540, symSize: 0x74 }
  - { offset: 0x1C84AD, size: 0x8, addend: 0x0, symName: __ZN8firebase9firestore4util10DoubleBitsEd, symObjAddr: 0x1AC, symBinAddr: 0x285B4, symSize: 0x18 }
  - { offset: 0x1C84FB, size: 0x8, addend: 0x0, symName: __ZN8firebase9firestore4util19DoubleBitwiseEqualsEdd, symObjAddr: 0x1C4, symBinAddr: 0x285CC, symSize: 0x2C }
  - { offset: 0x1C8539, size: 0x8, addend: 0x0, symName: __ZN8firebase9firestore4util19DoubleBitwiseEqualsEdd, symObjAddr: 0x1C4, symBinAddr: 0x285CC, symSize: 0x2C }
  - { offset: 0x1C859A, size: 0x8, addend: 0x0, symName: __ZN8firebase9firestore4util17DoubleBitwiseHashEd, symObjAddr: 0x1F0, symBinAddr: 0x285F8, symSize: 0x1C }
  - { offset: 0x1C85D9, size: 0x8, addend: 0x0, symName: __ZN8firebase9firestore4util17DoubleBitwiseHashEd, symObjAddr: 0x1F0, symBinAddr: 0x285F8, symSize: 0x1C }
  - { offset: 0x1CA9CF, size: 0x8, addend: 0x0, symName: __ZNK8firebase9firestore4util10ComparatorIN4absl12lts_2024011611string_viewEE7CompareES5_S5_, symObjAddr: 0x0, symBinAddr: 0x28408, symSize: 0x38 }
  - { offset: 0x1CAA4D, size: 0x8, addend: 0x0, symName: __ZNK4absl12lts_2024011611string_view7compareES1_, symObjAddr: 0x38, symBinAddr: 0x28440, symSize: 0x54 }
  - { offset: 0x1CACC1, size: 0x8, addend: 0x0, symName: __ZNK8firebase9firestore4util10ComparatorINSt3__112basic_stringIcNS3_11char_traitsIcEENS3_9allocatorIcEEEEE7CompareERKS9_SC_, symObjAddr: 0x8C, symBinAddr: 0x28494, symSize: 0x7C }
  - { offset: 0x1CAE90, size: 0x8, addend: 0x0, symName: __ZNK8firebase9firestore4util10ComparatorIdE7CompareEdd, symObjAddr: 0x108, symBinAddr: 0x28510, symSize: 0x30 }
  - { offset: 0x1CCD0D, size: 0x8, addend: 0x0, symName: __ZN8firebase9firestore4core15CompositeFilter6CreateEONSt3__16vectorINS1_6FilterENS3_9allocatorIS5_EEEENS2_8OperatorE, symObjAddr: 0x0, symBinAddr: 0x28614, symSize: 0x178 }
  - { offset: 0x1CCE51, size: 0x8, addend: 0x0, symName: __ZN8firebase9firestore4util12StringFormatIJPKcNSt3__112basic_stringIcNS5_11char_traitsIcEENS5_9allocatorIcEEEEEEESB_S4_DpRKT_, symObjAddr: 0x6FC, symBinAddr: 0x28D10, symSize: 0xB0 }
  - { offset: 0x1D373C, size: 0x8, addend: 0x0, symName: __ZNSt3__115allocate_sharedB8ne200100IKN8firebase9firestore4core15CompositeFilter3RepENS_9allocatorIS5_EEJS5_ELi0EEENS_10shared_ptrIT_EERKT0_DpOT1_, symObjAddr: 0xE38, symBinAddr: 0x29150, symSize: 0x58 }
  - { offset: 0x1D500D, size: 0x8, addend: 0x0, symName: __ZNSt3__117__call_once_proxyB8ne200100INS_5tupleIJOZN8firebase9firestore4util18ThreadSafeMemoizerINS_6vectorINS3_4core11FieldFilterENS_9allocatorIS8_EEEEE7memoizeENS_8functionIFSB_vEEEEUlvE_EEEEEvPv, symObjAddr: 0x14E4, symBinAddr: 0x29688, symSize: 0x4 }
  - { offset: 0x1D5045, size: 0x8, addend: 0x0, symName: __ZNSt3__117__call_once_proxyB8ne200100INS_5tupleIJOZN8firebase9firestore4util18ThreadSafeMemoizerINS_6vectorINS3_4core11FieldFilterENS_9allocatorIS8_EEEEE7memoizeENS_8functionIFSB_vEEEEUlvE_EEEEEvPv, symObjAddr: 0x14E4, symBinAddr: 0x29688, symSize: 0x4 }
  - { offset: 0x1D5062, size: 0x8, addend: 0x0, symName: __ZNSt3__117__call_once_proxyB8ne200100INS_5tupleIJOZN8firebase9firestore4util18ThreadSafeMemoizerINS_6vectorINS3_4core11FieldFilterENS_9allocatorIS8_EEEEE7memoizeENS_8functionIFSB_vEEEEUlvE_EEEEEvPv, symObjAddr: 0x14E4, symBinAddr: 0x29688, symSize: 0x4 }
  - { offset: 0x1D6DC7, size: 0x8, addend: 0x0, symName: __ZN8firebase9firestore4util18ThreadSafeMemoizerINSt3__16vectorINS0_4core11FieldFilterENS3_9allocatorIS6_EEEEE7memoizeENS3_8functionIFS9_vEEE, symObjAddr: 0xA38, symBinAddr: 0x2904C, symSize: 0x5C }
  - { offset: 0x1D7024, size: 0x8, addend: 0x0, symName: __ZNK8firebase9firestore4core15CompositeFilter3Rep19GetFlattenedFiltersEv, symObjAddr: 0x964, symBinAddr: 0x28F78, symSize: 0xD4 }
  - { offset: 0x1D771F, size: 0x8, addend: 0x0, symName: __ZN8firebase9firestore4core15CompositeFilter6CreateEONSt3__16vectorINS1_6FilterENS3_9allocatorIS5_EEEENS2_8OperatorE, symObjAddr: 0x0, symBinAddr: 0x28614, symSize: 0x178 }
  - { offset: 0x1D7D0E, size: 0x8, addend: 0x0, symName: __ZN8firebase9firestore4core15CompositeFilter3RepD1Ev, symObjAddr: 0x1F0, symBinAddr: 0x28804, symSize: 0x5C }
  - { offset: 0x1D7E29, size: 0x8, addend: 0x0, symName: __ZN8firebase9firestore4core15CompositeFilter3RepC1EONSt3__16vectorINS1_6FilterENS4_9allocatorIS6_EEEENS2_8OperatorE, symObjAddr: 0x178, symBinAddr: 0x2878C, symSize: 0x54 }
  - { offset: 0x1D7ED0, size: 0x8, addend: 0x0, symName: __ZN8firebase9firestore4core15CompositeFilterC1EONSt3__110shared_ptrIKNS1_6Filter3RepEEE, symObjAddr: 0x1CC, symBinAddr: 0x287E0, symSize: 0x24 }
  - { offset: 0x1D7EF9, size: 0x8, addend: 0x0, symName: __ZN8firebase9firestore4core15CompositeFilterC1EONSt3__110shared_ptrIKNS1_6Filter3RepEEE, symObjAddr: 0x1CC, symBinAddr: 0x287E0, symSize: 0x24 }
  - { offset: 0x1D7F1B, size: 0x8, addend: 0x0, symName: __ZN8firebase9firestore4core15CompositeFilterC1EONSt3__110shared_ptrIKNS1_6Filter3RepEEE, symObjAddr: 0x1CC, symBinAddr: 0x287E0, symSize: 0x24 }
  - { offset: 0x1D7F3D, size: 0x8, addend: 0x0, symName: __ZN8firebase9firestore4core15CompositeFilterC1EONSt3__110shared_ptrIKNS1_6Filter3RepEEE, symObjAddr: 0x1CC, symBinAddr: 0x287E0, symSize: 0x24 }
  - { offset: 0x1D7F5F, size: 0x8, addend: 0x0, symName: __ZN8firebase9firestore4core15CompositeFilterC1EONSt3__110shared_ptrIKNS1_6Filter3RepEEE, symObjAddr: 0x1CC, symBinAddr: 0x287E0, symSize: 0x24 }
  - { offset: 0x1D8031, size: 0x8, addend: 0x0, symName: __ZN8firebase9firestore4core15CompositeFilterC2EONSt3__110shared_ptrIKNS1_6Filter3RepEEE, symObjAddr: 0x24C, symBinAddr: 0x28860, symSize: 0x24 }
  - { offset: 0x1D805A, size: 0x8, addend: 0x0, symName: __ZN8firebase9firestore4core15CompositeFilterC2EONSt3__110shared_ptrIKNS1_6Filter3RepEEE, symObjAddr: 0x24C, symBinAddr: 0x28860, symSize: 0x24 }
  - { offset: 0x1D807C, size: 0x8, addend: 0x0, symName: __ZN8firebase9firestore4core15CompositeFilterC2EONSt3__110shared_ptrIKNS1_6Filter3RepEEE, symObjAddr: 0x24C, symBinAddr: 0x28860, symSize: 0x24 }
  - { offset: 0x1D809E, size: 0x8, addend: 0x0, symName: __ZN8firebase9firestore4core15CompositeFilterC2EONSt3__110shared_ptrIKNS1_6Filter3RepEEE, symObjAddr: 0x24C, symBinAddr: 0x28860, symSize: 0x24 }
  - { offset: 0x1D811B, size: 0x8, addend: 0x0, symName: __ZN8firebase9firestore4core15CompositeFilter3RepC2EONSt3__16vectorINS1_6FilterENS4_9allocatorIS6_EEEENS2_8OperatorE, symObjAddr: 0x270, symBinAddr: 0x28884, symSize: 0x54 }
  - { offset: 0x1D82EB, size: 0x8, addend: 0x0, symName: __ZN8firebase9firestore4core15CompositeFilterC2ERKNS1_6FilterE, symObjAddr: 0x2C4, symBinAddr: 0x288D8, symSize: 0xB8 }
  - { offset: 0x1D864D, size: 0x8, addend: 0x0, symName: __ZN8firebase9firestore4core15CompositeFilterC1ERKNS1_6FilterE, symObjAddr: 0x37C, symBinAddr: 0x28990, symSize: 0x4 }
  - { offset: 0x1D8687, size: 0x8, addend: 0x0, symName: __ZN8firebase9firestore4core15CompositeFilterC1ERKNS1_6FilterE, symObjAddr: 0x37C, symBinAddr: 0x28990, symSize: 0x4 }
  - { offset: 0x1D86A1, size: 0x8, addend: 0x0, symName: __ZNK8firebase9firestore4core15CompositeFilter3Rep13IsConjunctionEv, symObjAddr: 0x380, symBinAddr: 0x28994, symSize: 0x10 }
  - { offset: 0x1D86C2, size: 0x8, addend: 0x0, symName: __ZNK8firebase9firestore4core15CompositeFilter3Rep13IsDisjunctionEv, symObjAddr: 0x390, symBinAddr: 0x289A4, symSize: 0x10 }
  - { offset: 0x1D8717, size: 0x8, addend: 0x0, symName: __ZNK8firebase9firestore4core15CompositeFilter3Rep6IsFlatEv, symObjAddr: 0x3A0, symBinAddr: 0x289B4, symSize: 0x50 }
  - { offset: 0x1D88CA, size: 0x8, addend: 0x0, symName: __ZNK8firebase9firestore4core15CompositeFilter3Rep7MatchesERKNS0_5model8DocumentE, symObjAddr: 0x3F0, symBinAddr: 0x28A04, symSize: 0xA4 }
  - { offset: 0x1D8C13, size: 0x8, addend: 0x0, symName: __ZNK8firebase9firestore4core15CompositeFilter3Rep11CanonicalIdEv, symObjAddr: 0x494, symBinAddr: 0x28AA8, symSize: 0x268 }
  - { offset: 0x1D9D24, size: 0x8, addend: 0x0, symName: __ZNK8firebase9firestore4core15CompositeFilter3Rep6EqualsERKNS1_6Filter3RepE, symObjAddr: 0x7AC, symBinAddr: 0x28DC0, symSize: 0x9C }
  - { offset: 0x1D9FBE, size: 0x8, addend: 0x0, symName: __ZN8firebase9firestore4core15CompositeFilter16WithAddedFiltersERKNSt3__16vectorINS1_6FilterENS3_9allocatorIS5_EEEE, symObjAddr: 0x848, symBinAddr: 0x28E5C, symSize: 0xB0 }
  - { offset: 0x1DA5CE, size: 0x8, addend: 0x0, symName: __ZNSt3__16vectorIN8firebase9firestore4core6FilterENS_9allocatorIS4_EEE18__insert_with_sizeB8ne200100INS_11__wrap_iterIPKS4_EESC_EENS9_IPS4_EESC_T_T0_l, symObjAddr: 0xFE4, symBinAddr: 0x292FC, symSize: 0x20C }
  - { offset: 0x1DAF84, size: 0x8, addend: 0x0, symName: __ZNK8firebase9firestore4core15CompositeFilter3Rep23FindFirstMatchingFilterERKNSt3__18functionIFbRKNS1_11FieldFilterEEEE, symObjAddr: 0x8F8, symBinAddr: 0x28F0C, symSize: 0x6C }
  - { offset: 0x1DB09B, size: 0x8, addend: 0x0, symName: __ZNK8firebase9firestore4core15CompositeFilter3Rep19GetFlattenedFiltersEv, symObjAddr: 0x964, symBinAddr: 0x28F78, symSize: 0xD4 }
  - { offset: 0x1DB4F2, size: 0x8, addend: 0x0, symName: __ZN8firebase9firestore4core15CompositeFilter3RepD0Ev, symObjAddr: 0xA94, symBinAddr: 0x290A8, symSize: 0x60 }
  - { offset: 0x1DB632, size: 0x8, addend: 0x0, symName: __ZNK8firebase9firestore4core15CompositeFilter3Rep4typeEv, symObjAddr: 0xAF4, symBinAddr: 0x29108, symSize: 0x8 }
  - { offset: 0x1DB657, size: 0x8, addend: 0x0, symName: __ZNK8firebase9firestore4core15CompositeFilter3Rep18IsACompositeFilterEv, symObjAddr: 0xB04, symBinAddr: 0x29110, symSize: 0x8 }
  - { offset: 0x1DB67C, size: 0x8, addend: 0x0, symName: __ZNK8firebase9firestore4core15CompositeFilter3Rep8ToStringEv, symObjAddr: 0xB14, symBinAddr: 0x29118, symSize: 0xC }
  - { offset: 0x1DB6CE, size: 0x8, addend: 0x0, symName: __ZNK8firebase9firestore4core15CompositeFilter3Rep7IsEmptyEv, symObjAddr: 0xB20, symBinAddr: 0x29124, symSize: 0x10 }
  - { offset: 0x1DB6F6, size: 0x8, addend: 0x0, symName: __ZNK8firebase9firestore4core15CompositeFilter3Rep7IsEmptyEv, symObjAddr: 0xB20, symBinAddr: 0x29124, symSize: 0x10 }
  - { offset: 0x1DB711, size: 0x8, addend: 0x0, symName: __ZNK8firebase9firestore4core15CompositeFilter3Rep10GetFiltersEv, symObjAddr: 0xB30, symBinAddr: 0x29134, symSize: 0x1C }
  - { offset: 0x1DB739, size: 0x8, addend: 0x0, symName: __ZNK8firebase9firestore4core15CompositeFilter3Rep10GetFiltersEv, symObjAddr: 0xB30, symBinAddr: 0x29134, symSize: 0x1C }
  - { offset: 0x1DB75D, size: 0x8, addend: 0x0, symName: __ZNK8firebase9firestore4core15CompositeFilter3Rep10GetFiltersEv, symObjAddr: 0xB30, symBinAddr: 0x29134, symSize: 0x1C }
  - { offset: 0x1DBE06, size: 0x8, addend: 0x0, symName: __ZNSt3__120__shared_ptr_emplaceIKN8firebase9firestore4core15CompositeFilter3RepENS_9allocatorIS5_EEEC2B8ne200100IJS5_ES8_Li0EEES8_DpOT_, symObjAddr: 0xE90, symBinAddr: 0x291A8, symSize: 0x60 }
  - { offset: 0x1DBFA6, size: 0x8, addend: 0x0, symName: __ZNSt3__19allocatorIN8firebase9firestore4core15CompositeFilter3RepEE9constructB8ne200100IS5_JS5_EEEvPT_DpOT0_, symObjAddr: 0xF38, symBinAddr: 0x29250, symSize: 0xAC }
  - { offset: 0x1DC1E9, size: 0x8, addend: 0x0, symName: __ZNSt3__120__shared_ptr_emplaceIKN8firebase9firestore4core15CompositeFilter3RepENS_9allocatorIS5_EEED1Ev, symObjAddr: 0xEF0, symBinAddr: 0x29208, symSize: 0x14 }
  - { offset: 0x1DC20B, size: 0x8, addend: 0x0, symName: __ZNSt3__120__shared_ptr_emplaceIKN8firebase9firestore4core15CompositeFilter3RepENS_9allocatorIS5_EEED1Ev, symObjAddr: 0xEF0, symBinAddr: 0x29208, symSize: 0x14 }
  - { offset: 0x1DC240, size: 0x8, addend: 0x0, symName: __ZNSt3__120__shared_ptr_emplaceIKN8firebase9firestore4core15CompositeFilter3RepENS_9allocatorIS5_EEED0Ev, symObjAddr: 0xF04, symBinAddr: 0x2921C, symSize: 0x24 }
  - { offset: 0x1DC329, size: 0x8, addend: 0x0, symName: __ZNSt3__120__shared_ptr_emplaceIKN8firebase9firestore4core15CompositeFilter3RepENS_9allocatorIS5_EEE16__on_zero_sharedEv, symObjAddr: 0xF28, symBinAddr: 0x29240, symSize: 0xC }
  - { offset: 0x1DC351, size: 0x8, addend: 0x0, symName: __ZNSt3__120__shared_ptr_emplaceIKN8firebase9firestore4core15CompositeFilter3RepENS_9allocatorIS5_EEE16__on_zero_sharedEv, symObjAddr: 0xF28, symBinAddr: 0x29240, symSize: 0xC }
  - { offset: 0x1DC36E, size: 0x8, addend: 0x0, symName: __ZNSt3__120__shared_ptr_emplaceIKN8firebase9firestore4core15CompositeFilter3RepENS_9allocatorIS5_EEE16__on_zero_sharedEv, symObjAddr: 0xF28, symBinAddr: 0x29240, symSize: 0xC }
  - { offset: 0x1DC38B, size: 0x8, addend: 0x0, symName: __ZNSt3__120__shared_ptr_emplaceIKN8firebase9firestore4core15CompositeFilter3RepENS_9allocatorIS5_EEE16__on_zero_sharedEv, symObjAddr: 0xF28, symBinAddr: 0x29240, symSize: 0xC }
  - { offset: 0x1DC3B5, size: 0x8, addend: 0x0, symName: __ZNSt3__120__shared_ptr_emplaceIKN8firebase9firestore4core15CompositeFilter3RepENS_9allocatorIS5_EEE21__on_zero_shared_weakEv, symObjAddr: 0xF34, symBinAddr: 0x2924C, symSize: 0x4 }
  - { offset: 0x1DC3E6, size: 0x8, addend: 0x0, symName: __ZNSt3__120__shared_ptr_emplaceIKN8firebase9firestore4core15CompositeFilter3RepENS_9allocatorIS5_EEE21__on_zero_shared_weakEv, symObjAddr: 0xF34, symBinAddr: 0x2924C, symSize: 0x4 }
  - { offset: 0x1DC408, size: 0x8, addend: 0x0, symName: __ZNSt3__120__shared_ptr_emplaceIKN8firebase9firestore4core15CompositeFilter3RepENS_9allocatorIS5_EEE21__on_zero_shared_weakEv, symObjAddr: 0xF34, symBinAddr: 0x2924C, symSize: 0x4 }
  - { offset: 0x1DC42B, size: 0x8, addend: 0x0, symName: __ZNSt3__120__shared_ptr_emplaceIKN8firebase9firestore4core15CompositeFilter3RepENS_9allocatorIS5_EEE21__on_zero_shared_weakEv, symObjAddr: 0xF34, symBinAddr: 0x2924C, symSize: 0x4 }
  - { offset: 0x1DC460, size: 0x8, addend: 0x0, symName: __ZNSt3__120__shared_ptr_emplaceIKN8firebase9firestore4core15CompositeFilter3RepENS_9allocatorIS5_EEE21__on_zero_shared_weakEv, symObjAddr: 0xF34, symBinAddr: 0x2924C, symSize: 0x4 }
  - { offset: 0x1DC8C1, size: 0x8, addend: 0x0, symName: __ZNSt3__16vectorIN8firebase9firestore4core6FilterENS_9allocatorIS4_EEE12__move_rangeEPS4_S8_S8_, symObjAddr: 0x11F0, symBinAddr: 0x29508, symSize: 0x80 }
  - { offset: 0x1DCC64, size: 0x8, addend: 0x0, symName: __ZNSt3__16vectorIN8firebase9firestore4core6FilterENS_9allocatorIS4_EEE26__swap_out_circular_bufferERNS_14__split_bufferIS4_RS6_EEPS4_, symObjAddr: 0x1270, symBinAddr: 0x29588, symSize: 0x100 }
  - { offset: 0x1DD5B8, size: 0x8, addend: 0x0, symName: __ZNSt3__117__call_once_paramINS_5tupleIJOZN8firebase9firestore4util18ThreadSafeMemoizerINS_6vectorINS3_4core11FieldFilterENS_9allocatorIS8_EEEEE7memoizeENS_8functionIFSB_vEEEEUlvE_EEEE9__executeB8ne200100IJEEEvNS_15__tuple_indicesIJXspT_EEEE, symObjAddr: 0x14E8, symBinAddr: 0x2968C, symSize: 0x78 }
  - { offset: 0x1DD727, size: 0x8, addend: 0x0, symName: __ZNSt3__16vectorIN8firebase9firestore4core11FieldFilterENS_9allocatorIS4_EEE13__vdeallocateEv, symObjAddr: 0x1560, symBinAddr: 0x29704, symSize: 0x5C }
  - { offset: 0x1DD826, size: 0x8, addend: 0x0, symName: __ZNSt3__16vectorIN8firebase9firestore4core11FieldFilterENS_9allocatorIS4_EEE13__vdeallocateEv, symObjAddr: 0x1560, symBinAddr: 0x29704, symSize: 0x5C }
  - { offset: 0x1DDC60, size: 0x8, addend: 0x0, symName: '__ZNSt3__110__function6__funcIZNK8firebase9firestore4core15CompositeFilter3Rep19GetFlattenedFiltersEvE3$_0NS_9allocatorIS7_EEFNS_6vectorINS4_11FieldFilterENS8_ISB_EEEEvEED1Ev', symObjAddr: 0x162C, symBinAddr: 0x29760, symSize: 0x4 }
  - { offset: 0x1DDC8B, size: 0x8, addend: 0x0, symName: '__ZNSt3__110__function6__funcIZNK8firebase9firestore4core15CompositeFilter3Rep19GetFlattenedFiltersEvE3$_0NS_9allocatorIS7_EEFNS_6vectorINS4_11FieldFilterENS8_ISB_EEEEvEED0Ev', symObjAddr: 0x1630, symBinAddr: 0x29764, symSize: 0x4 }
  - { offset: 0x1DDD99, size: 0x8, addend: 0x0, symName: '__ZNKSt3__110__function6__funcIZNK8firebase9firestore4core15CompositeFilter3Rep19GetFlattenedFiltersEvE3$_0NS_9allocatorIS7_EEFNS_6vectorINS4_11FieldFilterENS8_ISB_EEEEvEE7__cloneEv', symObjAddr: 0x1634, symBinAddr: 0x29768, symSize: 0x34 }
  - { offset: 0x1DDF92, size: 0x8, addend: 0x0, symName: '__ZNKSt3__110__function6__funcIZNK8firebase9firestore4core15CompositeFilter3Rep19GetFlattenedFiltersEvE3$_0NS_9allocatorIS7_EEFNS_6vectorINS4_11FieldFilterENS8_ISB_EEEEvEE7__cloneEPNS0_6__baseISE_EE', symObjAddr: 0x1668, symBinAddr: 0x2979C, symSize: 0x14 }
  - { offset: 0x1DDFC7, size: 0x8, addend: 0x0, symName: '__ZNKSt3__110__function6__funcIZNK8firebase9firestore4core15CompositeFilter3Rep19GetFlattenedFiltersEvE3$_0NS_9allocatorIS7_EEFNS_6vectorINS4_11FieldFilterENS8_ISB_EEEEvEE7__cloneEPNS0_6__baseISE_EE', symObjAddr: 0x1668, symBinAddr: 0x2979C, symSize: 0x14 }
  - { offset: 0x1DDFF5, size: 0x8, addend: 0x0, symName: '__ZNKSt3__110__function6__funcIZNK8firebase9firestore4core15CompositeFilter3Rep19GetFlattenedFiltersEvE3$_0NS_9allocatorIS7_EEFNS_6vectorINS4_11FieldFilterENS8_ISB_EEEEvEE7__cloneEPNS0_6__baseISE_EE', symObjAddr: 0x1668, symBinAddr: 0x2979C, symSize: 0x14 }
  - { offset: 0x1DE023, size: 0x8, addend: 0x0, symName: '__ZNKSt3__110__function6__funcIZNK8firebase9firestore4core15CompositeFilter3Rep19GetFlattenedFiltersEvE3$_0NS_9allocatorIS7_EEFNS_6vectorINS4_11FieldFilterENS8_ISB_EEEEvEE7__cloneEPNS0_6__baseISE_EE', symObjAddr: 0x1668, symBinAddr: 0x2979C, symSize: 0x14 }
  - { offset: 0x1DE038, size: 0x8, addend: 0x0, symName: '__ZNKSt3__110__function6__funcIZNK8firebase9firestore4core15CompositeFilter3Rep19GetFlattenedFiltersEvE3$_0NS_9allocatorIS7_EEFNS_6vectorINS4_11FieldFilterENS8_ISB_EEEEvEE7__cloneEPNS0_6__baseISE_EE', symObjAddr: 0x1668, symBinAddr: 0x2979C, symSize: 0x14 }
  - { offset: 0x1DE04C, size: 0x8, addend: 0x0, symName: '__ZNSt3__110__function6__funcIZNK8firebase9firestore4core15CompositeFilter3Rep19GetFlattenedFiltersEvE3$_0NS_9allocatorIS7_EEFNS_6vectorINS4_11FieldFilterENS8_ISB_EEEEvEE7destroyEv', symObjAddr: 0x167C, symBinAddr: 0x297B0, symSize: 0x4 }
  - { offset: 0x1DE09C, size: 0x8, addend: 0x0, symName: '__ZNSt3__110__function6__funcIZNK8firebase9firestore4core15CompositeFilter3Rep19GetFlattenedFiltersEvE3$_0NS_9allocatorIS7_EEFNS_6vectorINS4_11FieldFilterENS8_ISB_EEEEvEE18destroy_deallocateEv', symObjAddr: 0x1680, symBinAddr: 0x297B4, symSize: 0x4 }
  - { offset: 0x1DE0CE, size: 0x8, addend: 0x0, symName: '__ZNSt3__110__function6__funcIZNK8firebase9firestore4core15CompositeFilter3Rep19GetFlattenedFiltersEvE3$_0NS_9allocatorIS7_EEFNS_6vectorINS4_11FieldFilterENS8_ISB_EEEEvEE18destroy_deallocateEv', symObjAddr: 0x1680, symBinAddr: 0x297B4, symSize: 0x4 }
  - { offset: 0x1DE0F1, size: 0x8, addend: 0x0, symName: '__ZNSt3__110__function6__funcIZNK8firebase9firestore4core15CompositeFilter3Rep19GetFlattenedFiltersEvE3$_0NS_9allocatorIS7_EEFNS_6vectorINS4_11FieldFilterENS8_ISB_EEEEvEE18destroy_deallocateEv', symObjAddr: 0x1680, symBinAddr: 0x297B4, symSize: 0x4 }
  - { offset: 0x1DE125, size: 0x8, addend: 0x0, symName: '__ZNSt3__110__function6__funcIZNK8firebase9firestore4core15CompositeFilter3Rep19GetFlattenedFiltersEvE3$_0NS_9allocatorIS7_EEFNS_6vectorINS4_11FieldFilterENS8_ISB_EEEEvEE18destroy_deallocateEv', symObjAddr: 0x1680, symBinAddr: 0x297B4, symSize: 0x4 }
  - { offset: 0x1DE35B, size: 0x8, addend: 0x0, symName: '__ZNSt3__110__function6__funcIZNK8firebase9firestore4core15CompositeFilter3Rep19GetFlattenedFiltersEvE3$_0NS_9allocatorIS7_EEFNS_6vectorINS4_11FieldFilterENS8_ISB_EEEEvEEclEv', symObjAddr: 0x1684, symBinAddr: 0x297B8, symSize: 0xB4 }
  - { offset: 0x1DE6F1, size: 0x8, addend: 0x0, symName: __ZNSt3__16vectorIN8firebase9firestore4core11FieldFilterENS_9allocatorIS4_EEE12emplace_backIJRKS4_EEEvDpOT_, symObjAddr: 0x1780, symBinAddr: 0x298B4, symSize: 0x128 }
  - { offset: 0x1DEC02, size: 0x8, addend: 0x0, symName: '__ZNKSt3__110__function6__funcIZNK8firebase9firestore4core15CompositeFilter3Rep19GetFlattenedFiltersEvE3$_0NS_9allocatorIS7_EEFNS_6vectorINS4_11FieldFilterENS8_ISB_EEEEvEE6targetERKSt9type_info', symObjAddr: 0x1738, symBinAddr: 0x2986C, symSize: 0x3C }
  - { offset: 0x1DECB0, size: 0x8, addend: 0x0, symName: '__ZNKSt3__110__function6__funcIZNK8firebase9firestore4core15CompositeFilter3Rep19GetFlattenedFiltersEvE3$_0NS_9allocatorIS7_EEFNS_6vectorINS4_11FieldFilterENS8_ISB_EEEEvEE11target_typeEv', symObjAddr: 0x1774, symBinAddr: 0x298A8, symSize: 0xC }
  - { offset: 0x1E11C7, size: 0x8, addend: 0x0, symName: __ZN8firebase9firestore6remote19ConnectivityMonitor16SetInitialStatusENS2_13NetworkStatusE, symObjAddr: 0x0, symBinAddr: 0x299DC, symSize: 0x94 }
  - { offset: 0x1E6081, size: 0x8, addend: 0x0, symName: __ZN8firebase9firestore6remote19ConnectivityMonitor16SetInitialStatusENS2_13NetworkStatusE, symObjAddr: 0x0, symBinAddr: 0x299DC, symSize: 0x94 }
  - { offset: 0x1E626B, size: 0x8, addend: 0x0, symName: __ZN8firebase9firestore6remote19ConnectivityMonitor20MaybeInvokeCallbacksENS2_13NetworkStatusE, symObjAddr: 0x94, symBinAddr: 0x29A70, symSize: 0x1C }
  - { offset: 0x1E62A0, size: 0x8, addend: 0x0, symName: __ZN8firebase9firestore6remote19ConnectivityMonitor20MaybeInvokeCallbacksENS2_13NetworkStatusE, symObjAddr: 0x94, symBinAddr: 0x29A70, symSize: 0x1C }
  - { offset: 0x1E62BD, size: 0x8, addend: 0x0, symName: __ZN8firebase9firestore6remote19ConnectivityMonitor20MaybeInvokeCallbacksENS2_13NetworkStatusE, symObjAddr: 0x94, symBinAddr: 0x29A70, symSize: 0x1C }
  - { offset: 0x1E62E7, size: 0x8, addend: 0x0, symName: __ZN8firebase9firestore6remote19ConnectivityMonitor15InvokeCallbacksENS2_13NetworkStatusE, symObjAddr: 0xB0, symBinAddr: 0x29A8C, symSize: 0x80 }
  - { offset: 0x1EDB8F, size: 0x8, addend: 0x0, symName: __ZN8firebase9firestore6remote12_GLOBAL__N_129OnReachabilityChangedCallbackEPK23__SCNetworkReachabilityjPv, symObjAddr: 0x384, symBinAddr: 0x29E90, symSize: 0x80 }
  - { offset: 0x1EE11D, size: 0x8, addend: 0x0, symName: __ZN8firebase9firestore6remote24ConnectivityMonitorApple21OnReachabilityChangedEj, symObjAddr: 0x618, symBinAddr: 0x2A124, symSize: 0xD8 }
  - { offset: 0x1EE474, size: 0x8, addend: 0x0, symName: __ZN8firebase9firestore6remote24ConnectivityMonitorApple19OnEnteredForegroundEv, symObjAddr: 0x40C, symBinAddr: 0x29F18, symSize: 0xF4 }
  - { offset: 0x1EE876, size: 0x8, addend: 0x0, symName: __ZN8firebase9firestore6remote19ConnectivityMonitor6CreateERKNSt3__110shared_ptrINS0_4util10AsyncQueueEEE, symObjAddr: 0x0, symBinAddr: 0x29B0C, symSize: 0x54 }
  - { offset: 0x1EE922, size: 0x8, addend: 0x0, symName: __ZN8firebase9firestore6remote24ConnectivityMonitorAppleC2ERKNSt3__110shared_ptrINS0_4util10AsyncQueueEEE, symObjAddr: 0x54, symBinAddr: 0x29B60, symSize: 0x330 }
  - { offset: 0x1EF385, size: 0x8, addend: 0x0, symName: __ZN8firebase9firestore6remote19ConnectivityMonitorD2Ev, symObjAddr: 0x500, symBinAddr: 0x2A00C, symSize: 0x54 }
  - { offset: 0x1EF46F, size: 0x8, addend: 0x0, symName: ____ZN8firebase9firestore6remote24ConnectivityMonitorAppleC2ERKNSt3__110shared_ptrINS0_4util10AsyncQueueEEE_block_invoke, symObjAddr: 0x404, symBinAddr: 0x29F10, symSize: 0x8 }
  - { offset: 0x1EF837, size: 0x8, addend: 0x0, symName: __ZNSt3__16vectorINS_8functionIFvN8firebase9firestore6remote19ConnectivityMonitor13NetworkStatusEEEENS_9allocatorIS8_EEE16__destroy_vectorclB8ne200100Ev, symObjAddr: 0x90C, symBinAddr: 0x2A3BC, symSize: 0x94 }
  - { offset: 0x1EFA5D, size: 0x8, addend: 0x0, symName: __ZN8firebase9firestore6remote24ConnectivityMonitorAppleD1Ev, symObjAddr: 0x554, symBinAddr: 0x2A060, symSize: 0x4 }
  - { offset: 0x1EFA80, size: 0x8, addend: 0x0, symName: __ZN8firebase9firestore6remote24ConnectivityMonitorAppleD1Ev, symObjAddr: 0x554, symBinAddr: 0x2A060, symSize: 0x4 }
  - { offset: 0x1EFA93, size: 0x8, addend: 0x0, symName: __ZN8firebase9firestore6remote24ConnectivityMonitorAppleD2Ev, symObjAddr: 0x9F8, symBinAddr: 0x2A450, symSize: 0xEC }
  - { offset: 0x1EFD8A, size: 0x8, addend: 0x0, symName: __ZN8firebase9firestore6remote24ConnectivityMonitorAppleD0Ev, symObjAddr: 0x558, symBinAddr: 0x2A064, symSize: 0x14 }
  - { offset: 0x1EFDFC, size: 0x8, addend: 0x0, symName: __ZN8firebase9firestore6remote19ConnectivityMonitorD1Ev, symObjAddr: 0x56C, symBinAddr: 0x2A078, symSize: 0x54 }
  - { offset: 0x1EFF1B, size: 0x8, addend: 0x0, symName: __ZN8firebase9firestore6remote19ConnectivityMonitorD0Ev, symObjAddr: 0x5C0, symBinAddr: 0x2A0CC, symSize: 0x58 }
  - { offset: 0x1F02A3, size: 0x8, addend: 0x0, symName: __ZNSt3__110__function6__funcIZN8firebase9firestore6remote24ConnectivityMonitorApple21OnReachabilityChangedEjEUlvE_NS_9allocatorIS6_EEFvvEED1Ev, symObjAddr: 0x6F0, symBinAddr: 0x2A1FC, symSize: 0x4 }
  - { offset: 0x1F02CE, size: 0x8, addend: 0x0, symName: __ZNSt3__110__function6__funcIZN8firebase9firestore6remote24ConnectivityMonitorApple21OnReachabilityChangedEjEUlvE_NS_9allocatorIS6_EEFvvEED0Ev, symObjAddr: 0x6F4, symBinAddr: 0x2A200, symSize: 0x4 }
  - { offset: 0x1F03DC, size: 0x8, addend: 0x0, symName: __ZNKSt3__110__function6__funcIZN8firebase9firestore6remote24ConnectivityMonitorApple21OnReachabilityChangedEjEUlvE_NS_9allocatorIS6_EEFvvEE7__cloneEv, symObjAddr: 0x6F8, symBinAddr: 0x2A204, symSize: 0x3C }
  - { offset: 0x1F0623, size: 0x8, addend: 0x0, symName: __ZNKSt3__110__function6__funcIZN8firebase9firestore6remote24ConnectivityMonitorApple21OnReachabilityChangedEjEUlvE_NS_9allocatorIS6_EEFvvEE7__cloneEPNS0_6__baseIS9_EE, symObjAddr: 0x734, symBinAddr: 0x2A240, symSize: 0x1C }
  - { offset: 0x1F0658, size: 0x8, addend: 0x0, symName: __ZNKSt3__110__function6__funcIZN8firebase9firestore6remote24ConnectivityMonitorApple21OnReachabilityChangedEjEUlvE_NS_9allocatorIS6_EEFvvEE7__cloneEPNS0_6__baseIS9_EE, symObjAddr: 0x734, symBinAddr: 0x2A240, symSize: 0x1C }
  - { offset: 0x1F0686, size: 0x8, addend: 0x0, symName: __ZNKSt3__110__function6__funcIZN8firebase9firestore6remote24ConnectivityMonitorApple21OnReachabilityChangedEjEUlvE_NS_9allocatorIS6_EEFvvEE7__cloneEPNS0_6__baseIS9_EE, symObjAddr: 0x734, symBinAddr: 0x2A240, symSize: 0x1C }
  - { offset: 0x1F0750, size: 0x8, addend: 0x0, symName: __ZNSt3__110__function6__funcIZN8firebase9firestore6remote24ConnectivityMonitorApple21OnReachabilityChangedEjEUlvE_NS_9allocatorIS6_EEFvvEE7destroyEv, symObjAddr: 0x750, symBinAddr: 0x2A25C, symSize: 0x4 }
  - { offset: 0x1F07A2, size: 0x8, addend: 0x0, symName: __ZNSt3__110__function6__funcIZN8firebase9firestore6remote24ConnectivityMonitorApple21OnReachabilityChangedEjEUlvE_NS_9allocatorIS6_EEFvvEE18destroy_deallocateEv, symObjAddr: 0x754, symBinAddr: 0x2A260, symSize: 0x4 }
  - { offset: 0x1F07D4, size: 0x8, addend: 0x0, symName: __ZNSt3__110__function6__funcIZN8firebase9firestore6remote24ConnectivityMonitorApple21OnReachabilityChangedEjEUlvE_NS_9allocatorIS6_EEFvvEE18destroy_deallocateEv, symObjAddr: 0x754, symBinAddr: 0x2A260, symSize: 0x4 }
  - { offset: 0x1F07F7, size: 0x8, addend: 0x0, symName: __ZNSt3__110__function6__funcIZN8firebase9firestore6remote24ConnectivityMonitorApple21OnReachabilityChangedEjEUlvE_NS_9allocatorIS6_EEFvvEE18destroy_deallocateEv, symObjAddr: 0x754, symBinAddr: 0x2A260, symSize: 0x4 }
  - { offset: 0x1F082B, size: 0x8, addend: 0x0, symName: __ZNSt3__110__function6__funcIZN8firebase9firestore6remote24ConnectivityMonitorApple21OnReachabilityChangedEjEUlvE_NS_9allocatorIS6_EEFvvEE18destroy_deallocateEv, symObjAddr: 0x754, symBinAddr: 0x2A260, symSize: 0x4 }
  - { offset: 0x1F08A1, size: 0x8, addend: 0x0, symName: __ZNSt3__110__function6__funcIZN8firebase9firestore6remote24ConnectivityMonitorApple21OnReachabilityChangedEjEUlvE_NS_9allocatorIS6_EEFvvEEclEv, symObjAddr: 0x758, symBinAddr: 0x2A264, symSize: 0x28 }
  - { offset: 0x1F097C, size: 0x8, addend: 0x0, symName: __ZNKSt3__110__function6__funcIZN8firebase9firestore6remote24ConnectivityMonitorApple21OnReachabilityChangedEjEUlvE_NS_9allocatorIS6_EEFvvEE6targetERKSt9type_info, symObjAddr: 0x780, symBinAddr: 0x2A28C, symSize: 0x3C }
  - { offset: 0x1F0A2A, size: 0x8, addend: 0x0, symName: __ZNKSt3__110__function6__funcIZN8firebase9firestore6remote24ConnectivityMonitorApple21OnReachabilityChangedEjEUlvE_NS_9allocatorIS6_EEFvvEE11target_typeEv, symObjAddr: 0x7BC, symBinAddr: 0x2A2C8, symSize: 0xC }
  - { offset: 0x1F0A95, size: 0x8, addend: 0x0, symName: __ZNSt3__110__function6__funcIZN8firebase9firestore6remote24ConnectivityMonitorApple19OnEnteredForegroundEvEUlvE_NS_9allocatorIS6_EEFvvEED1Ev, symObjAddr: 0x814, symBinAddr: 0x2A2D4, symSize: 0x4 }
  - { offset: 0x1F0AC0, size: 0x8, addend: 0x0, symName: __ZNSt3__110__function6__funcIZN8firebase9firestore6remote24ConnectivityMonitorApple19OnEnteredForegroundEvEUlvE_NS_9allocatorIS6_EEFvvEED0Ev, symObjAddr: 0x818, symBinAddr: 0x2A2D8, symSize: 0x4 }
  - { offset: 0x1F0BCE, size: 0x8, addend: 0x0, symName: __ZNKSt3__110__function6__funcIZN8firebase9firestore6remote24ConnectivityMonitorApple19OnEnteredForegroundEvEUlvE_NS_9allocatorIS6_EEFvvEE7__cloneEv, symObjAddr: 0x81C, symBinAddr: 0x2A2DC, symSize: 0x3C }
  - { offset: 0x1F0E15, size: 0x8, addend: 0x0, symName: __ZNKSt3__110__function6__funcIZN8firebase9firestore6remote24ConnectivityMonitorApple19OnEnteredForegroundEvEUlvE_NS_9allocatorIS6_EEFvvEE7__cloneEPNS0_6__baseIS9_EE, symObjAddr: 0x858, symBinAddr: 0x2A318, symSize: 0x1C }
  - { offset: 0x1F0E4A, size: 0x8, addend: 0x0, symName: __ZNKSt3__110__function6__funcIZN8firebase9firestore6remote24ConnectivityMonitorApple19OnEnteredForegroundEvEUlvE_NS_9allocatorIS6_EEFvvEE7__cloneEPNS0_6__baseIS9_EE, symObjAddr: 0x858, symBinAddr: 0x2A318, symSize: 0x1C }
  - { offset: 0x1F0E78, size: 0x8, addend: 0x0, symName: __ZNKSt3__110__function6__funcIZN8firebase9firestore6remote24ConnectivityMonitorApple19OnEnteredForegroundEvEUlvE_NS_9allocatorIS6_EEFvvEE7__cloneEPNS0_6__baseIS9_EE, symObjAddr: 0x858, symBinAddr: 0x2A318, symSize: 0x1C }
  - { offset: 0x1F0F42, size: 0x8, addend: 0x0, symName: __ZNSt3__110__function6__funcIZN8firebase9firestore6remote24ConnectivityMonitorApple19OnEnteredForegroundEvEUlvE_NS_9allocatorIS6_EEFvvEE7destroyEv, symObjAddr: 0x874, symBinAddr: 0x2A334, symSize: 0x4 }
  - { offset: 0x1F0F94, size: 0x8, addend: 0x0, symName: __ZNSt3__110__function6__funcIZN8firebase9firestore6remote24ConnectivityMonitorApple19OnEnteredForegroundEvEUlvE_NS_9allocatorIS6_EEFvvEE18destroy_deallocateEv, symObjAddr: 0x878, symBinAddr: 0x2A338, symSize: 0x4 }
  - { offset: 0x1F0FC6, size: 0x8, addend: 0x0, symName: __ZNSt3__110__function6__funcIZN8firebase9firestore6remote24ConnectivityMonitorApple19OnEnteredForegroundEvEUlvE_NS_9allocatorIS6_EEFvvEE18destroy_deallocateEv, symObjAddr: 0x878, symBinAddr: 0x2A338, symSize: 0x4 }
  - { offset: 0x1F0FE9, size: 0x8, addend: 0x0, symName: __ZNSt3__110__function6__funcIZN8firebase9firestore6remote24ConnectivityMonitorApple19OnEnteredForegroundEvEUlvE_NS_9allocatorIS6_EEFvvEE18destroy_deallocateEv, symObjAddr: 0x878, symBinAddr: 0x2A338, symSize: 0x4 }
  - { offset: 0x1F101D, size: 0x8, addend: 0x0, symName: __ZNSt3__110__function6__funcIZN8firebase9firestore6remote24ConnectivityMonitorApple19OnEnteredForegroundEvEUlvE_NS_9allocatorIS6_EEFvvEE18destroy_deallocateEv, symObjAddr: 0x878, symBinAddr: 0x2A338, symSize: 0x4 }
  - { offset: 0x1F1058, size: 0x8, addend: 0x0, symName: __ZNSt3__110__function6__funcIZN8firebase9firestore6remote24ConnectivityMonitorApple19OnEnteredForegroundEvEUlvE_NS_9allocatorIS6_EEFvvEEclEv, symObjAddr: 0x87C, symBinAddr: 0x2A33C, symSize: 0x8 }
  - { offset: 0x1F10B4, size: 0x8, addend: 0x0, symName: __ZNSt3__128__invoke_void_return_wrapperIvLb1EE6__callB8ne200100IJRZN8firebase9firestore6remote24ConnectivityMonitorApple19OnEnteredForegroundEvEUlvE_EEEvDpOT_, symObjAddr: 0x8CC, symBinAddr: 0x2A38C, symSize: 0x30 }
  - { offset: 0x1F113D, size: 0x8, addend: 0x0, symName: __ZNKSt3__110__function6__funcIZN8firebase9firestore6remote24ConnectivityMonitorApple19OnEnteredForegroundEvEUlvE_NS_9allocatorIS6_EEFvvEE6targetERKSt9type_info, symObjAddr: 0x884, symBinAddr: 0x2A344, symSize: 0x3C }
  - { offset: 0x1F1187, size: 0x8, addend: 0x0, symName: __ZNKSt3__110__function6__funcIZN8firebase9firestore6remote24ConnectivityMonitorApple19OnEnteredForegroundEvEUlvE_NS_9allocatorIS6_EEFvvEE11target_typeEv, symObjAddr: 0x8C0, symBinAddr: 0x2A380, symSize: 0xC }
  - { offset: 0x1F3289, size: 0x8, addend: 0x0, symName: __ZN8firebase9firestore3api12MakeGeoPointEP11FIRGeoPoint, symObjAddr: 0x0, symBinAddr: 0x2A53C, symSize: 0x70 }
  - { offset: 0x1F33A2, size: 0x8, addend: 0x0, symName: __ZN8firebase9firestore3api12MakeGeoPointEP11FIRGeoPoint, symObjAddr: 0x0, symBinAddr: 0x2A53C, symSize: 0x70 }
  - { offset: 0x1F33CF, size: 0x8, addend: 0x0, symName: __ZN8firebase9firestore3api15MakeFIRGeoPointERKNS0_8GeoPointE, symObjAddr: 0x70, symBinAddr: 0x2A5AC, symSize: 0x30 }
  - { offset: 0x1F3418, size: 0x8, addend: 0x0, symName: __ZN8firebase9firestore3api13MakeTimestampEP12FIRTimestamp, symObjAddr: 0xA0, symBinAddr: 0x2A5DC, symSize: 0x68 }
  - { offset: 0x1F3445, size: 0x8, addend: 0x0, symName: __ZN8firebase9firestore3api13MakeTimestampEP6NSDate, symObjAddr: 0x108, symBinAddr: 0x2A644, symSize: 0x6C }
  - { offset: 0x1F348E, size: 0x8, addend: 0x0, symName: __ZN8firebase9firestore3api16MakeFIRTimestampERKNS_9TimestampE, symObjAddr: 0x174, symBinAddr: 0x2A6B0, symSize: 0x34 }
  - { offset: 0x1F3AA3, size: 0x8, addend: 0x0, symName: __ZN8firebase9firestore3api24MakeFIRDocumentReferenceERKNS0_5model11DocumentKeyENSt3__110shared_ptrINS1_9FirestoreEEE, symObjAddr: 0x1A8, symBinAddr: 0x2A6E4, symSize: 0x100 }
  - { offset: 0x1F3E35, size: 0x8, addend: 0x0, symName: __ZN8firebase9firestore3api16MakeListenSourceERK15FIRListenSource, symObjAddr: 0x2A8, symBinAddr: 0x2A7E4, symSize: 0x10 }
  - { offset: 0x1F94AF, size: 0x8, addend: 0x0, symName: __ZN8firebase9firestore5model10DatabaseId8kDefaultE, symObjAddr: 0x1708, symBinAddr: 0x2061F0, symSize: 0x0 }
  - { offset: 0x1F98FE, size: 0x8, addend: 0x0, symName: __ZN8firebase9firestore5modellsERNSt3__113basic_ostreamIcNS2_11char_traitsIcEEEERKNS1_10DatabaseIdE, symObjAddr: 0x65C, symBinAddr: 0x2AD80, symSize: 0x88 }
  - { offset: 0x1F9D2C, size: 0x8, addend: 0x0, symName: __ZN8firebase9firestore4util12StringFormatIJmEEENSt3__112basic_stringIcNS3_11char_traitsIcEENS3_9allocatorIcEEEEPKcDpRKT_, symObjAddr: 0x9D0, symBinAddr: 0x2AEF8, symSize: 0x7C }
  - { offset: 0x1FFAD6, size: 0x8, addend: 0x0, symName: __ZN8firebase9firestore5model10DatabaseIdC2ENSt3__112basic_stringIcNS3_11char_traitsIcEENS3_9allocatorIcEEEES9_, symObjAddr: 0x0, symBinAddr: 0x2A7F4, symSize: 0xE8 }
  - { offset: 0x20010A, size: 0x8, addend: 0x0, symName: __ZN8firebase9firestore5model10DatabaseIdC1ENSt3__112basic_stringIcNS3_11char_traitsIcEENS3_9allocatorIcEEEES9_, symObjAddr: 0x14C, symBinAddr: 0x2A8DC, symSize: 0x4 }
  - { offset: 0x20013D, size: 0x8, addend: 0x0, symName: __ZN8firebase9firestore5model10DatabaseIdC1ENSt3__112basic_stringIcNS3_11char_traitsIcEENS3_9allocatorIcEEEES9_, symObjAddr: 0x14C, symBinAddr: 0x2A8DC, symSize: 0x4 }
  - { offset: 0x200523, size: 0x8, addend: 0x0, symName: __ZN8firebase9firestore5model10DatabaseId8FromNameERKNSt3__112basic_stringIcNS3_11char_traitsIcEENS3_9allocatorIcEEEE, symObjAddr: 0x150, symBinAddr: 0x2A8E0, symSize: 0x2EC }
  - { offset: 0x201204, size: 0x8, addend: 0x0, symName: __ZNK8firebase9firestore5model4impl8BasePathINS1_12ResourcePathEEixEm, symObjAddr: 0x43C, symBinAddr: 0x2ABCC, symSize: 0xA4 }
  - { offset: 0x2016CA, size: 0x8, addend: 0x0, symName: __ZNK8firebase9firestore5model10DatabaseId9CompareToERKS2_, symObjAddr: 0x54C, symBinAddr: 0x2AC70, symSize: 0x54 }
  - { offset: 0x20184F, size: 0x8, addend: 0x0, symName: __ZNK8firebase9firestore5model10DatabaseId8ToStringEv, symObjAddr: 0x5A0, symBinAddr: 0x2ACC4, symSize: 0xBC }
  - { offset: 0x201A42, size: 0x8, addend: 0x0, symName: __ZNK8firebase9firestore5model10DatabaseId4HashEv, symObjAddr: 0x6E4, symBinAddr: 0x2AE08, symSize: 0x48 }
  - { offset: 0x201F76, size: 0x8, addend: 0x0, symName: __ZNSt3__120__shared_ptr_emplaceIN8firebase9firestore5model10DatabaseId3RepENS_9allocatorIS5_EEED1Ev, symObjAddr: 0x928, symBinAddr: 0x2AE50, symSize: 0x14 }
  - { offset: 0x201F98, size: 0x8, addend: 0x0, symName: __ZNSt3__120__shared_ptr_emplaceIN8firebase9firestore5model10DatabaseId3RepENS_9allocatorIS5_EEED1Ev, symObjAddr: 0x928, symBinAddr: 0x2AE50, symSize: 0x14 }
  - { offset: 0x201FCD, size: 0x8, addend: 0x0, symName: __ZNSt3__120__shared_ptr_emplaceIN8firebase9firestore5model10DatabaseId3RepENS_9allocatorIS5_EEED0Ev, symObjAddr: 0x93C, symBinAddr: 0x2AE64, symSize: 0x24 }
  - { offset: 0x202097, size: 0x8, addend: 0x0, symName: __ZNSt3__120__shared_ptr_emplaceIN8firebase9firestore5model10DatabaseId3RepENS_9allocatorIS5_EEE16__on_zero_sharedEv, symObjAddr: 0x960, symBinAddr: 0x2AE88, symSize: 0x28 }
  - { offset: 0x202127, size: 0x8, addend: 0x0, symName: __ZNSt3__19allocatorIN8firebase9firestore5model10DatabaseId3RepEE7destroyB8ne200100EPS5_, symObjAddr: 0x98C, symBinAddr: 0x2AEB4, symSize: 0x44 }
  - { offset: 0x2023C8, size: 0x8, addend: 0x0, symName: __ZNSt3__120__shared_ptr_emplaceIN8firebase9firestore5model10DatabaseId3RepENS_9allocatorIS5_EEE21__on_zero_shared_weakEv, symObjAddr: 0x988, symBinAddr: 0x2AEB0, symSize: 0x4 }
  - { offset: 0x2023F9, size: 0x8, addend: 0x0, symName: __ZNSt3__120__shared_ptr_emplaceIN8firebase9firestore5model10DatabaseId3RepENS_9allocatorIS5_EEE21__on_zero_shared_weakEv, symObjAddr: 0x988, symBinAddr: 0x2AEB0, symSize: 0x4 }
  - { offset: 0x20241B, size: 0x8, addend: 0x0, symName: __ZNSt3__120__shared_ptr_emplaceIN8firebase9firestore5model10DatabaseId3RepENS_9allocatorIS5_EEE21__on_zero_shared_weakEv, symObjAddr: 0x988, symBinAddr: 0x2AEB0, symSize: 0x4 }
  - { offset: 0x20243E, size: 0x8, addend: 0x0, symName: __ZNSt3__120__shared_ptr_emplaceIN8firebase9firestore5model10DatabaseId3RepENS_9allocatorIS5_EEE21__on_zero_shared_weakEv, symObjAddr: 0x988, symBinAddr: 0x2AEB0, symSize: 0x4 }
  - { offset: 0x202473, size: 0x8, addend: 0x0, symName: __ZNSt3__120__shared_ptr_emplaceIN8firebase9firestore5model10DatabaseId3RepENS_9allocatorIS5_EEE21__on_zero_shared_weakEv, symObjAddr: 0x988, symBinAddr: 0x2AEB0, symSize: 0x4 }
  - { offset: 0x20511F, size: 0x8, addend: 0x0, symName: __ZN8firebase9firestore4core12DatabaseInfoC2ENS0_5model10DatabaseIdENSt3__112basic_stringIcNS5_11char_traitsIcEENS5_9allocatorIcEEEESB_b, symObjAddr: 0x0, symBinAddr: 0x2AF74, symSize: 0x44 }
  - { offset: 0x207691, size: 0x8, addend: 0x0, symName: __ZN8firebase9firestore4core12DatabaseInfoC2ENS0_5model10DatabaseIdENSt3__112basic_stringIcNS5_11char_traitsIcEENS5_9allocatorIcEEEESB_b, symObjAddr: 0x0, symBinAddr: 0x2AF74, symSize: 0x44 }
  - { offset: 0x2076D1, size: 0x8, addend: 0x0, symName: __ZN8firebase9firestore4core12DatabaseInfoC2ENS0_5model10DatabaseIdENSt3__112basic_stringIcNS5_11char_traitsIcEENS5_9allocatorIcEEEESB_b, symObjAddr: 0x0, symBinAddr: 0x2AF74, symSize: 0x44 }
  - { offset: 0x2076F3, size: 0x8, addend: 0x0, symName: __ZN8firebase9firestore4core12DatabaseInfoC2ENS0_5model10DatabaseIdENSt3__112basic_stringIcNS5_11char_traitsIcEENS5_9allocatorIcEEEESB_b, symObjAddr: 0x0, symBinAddr: 0x2AF74, symSize: 0x44 }
  - { offset: 0x207715, size: 0x8, addend: 0x0, symName: __ZN8firebase9firestore4core12DatabaseInfoC2ENS0_5model10DatabaseIdENSt3__112basic_stringIcNS5_11char_traitsIcEENS5_9allocatorIcEEEESB_b, symObjAddr: 0x0, symBinAddr: 0x2AF74, symSize: 0x44 }
  - { offset: 0x207737, size: 0x8, addend: 0x0, symName: __ZN8firebase9firestore4core12DatabaseInfoC2ENS0_5model10DatabaseIdENSt3__112basic_stringIcNS5_11char_traitsIcEENS5_9allocatorIcEEEESB_b, symObjAddr: 0x0, symBinAddr: 0x2AF74, symSize: 0x44 }
  - { offset: 0x20783E, size: 0x8, addend: 0x0, symName: __ZN8firebase9firestore4core12DatabaseInfoC1ENS0_5model10DatabaseIdENSt3__112basic_stringIcNS5_11char_traitsIcEENS5_9allocatorIcEEEESB_b, symObjAddr: 0x44, symBinAddr: 0x2AFB8, symSize: 0x44 }
  - { offset: 0x2078A6, size: 0x8, addend: 0x0, symName: __ZN8firebase9firestore4core12DatabaseInfoC1ENS0_5model10DatabaseIdENSt3__112basic_stringIcNS5_11char_traitsIcEENS5_9allocatorIcEEEESB_b, symObjAddr: 0x44, symBinAddr: 0x2AFB8, symSize: 0x44 }
  - { offset: 0x2078D9, size: 0x8, addend: 0x0, symName: __ZN8firebase9firestore4core12DatabaseInfoC1ENS0_5model10DatabaseIdENSt3__112basic_stringIcNS5_11char_traitsIcEENS5_9allocatorIcEEEESB_b, symObjAddr: 0x44, symBinAddr: 0x2AFB8, symSize: 0x44 }
  - { offset: 0x2078FB, size: 0x8, addend: 0x0, symName: __ZN8firebase9firestore4core12DatabaseInfoC1ENS0_5model10DatabaseIdENSt3__112basic_stringIcNS5_11char_traitsIcEENS5_9allocatorIcEEEESB_b, symObjAddr: 0x44, symBinAddr: 0x2AFB8, symSize: 0x44 }
  - { offset: 0x20791D, size: 0x8, addend: 0x0, symName: __ZN8firebase9firestore4core12DatabaseInfoC1ENS0_5model10DatabaseIdENSt3__112basic_stringIcNS5_11char_traitsIcEENS5_9allocatorIcEEEESB_b, symObjAddr: 0x44, symBinAddr: 0x2AFB8, symSize: 0x44 }
  - { offset: 0x20793F, size: 0x8, addend: 0x0, symName: __ZN8firebase9firestore4core12DatabaseInfoC1ENS0_5model10DatabaseIdENSt3__112basic_stringIcNS5_11char_traitsIcEENS5_9allocatorIcEEEESB_b, symObjAddr: 0x44, symBinAddr: 0x2AFB8, symSize: 0x44 }
  - { offset: 0x209858, size: 0x8, addend: 0x0, symName: __ZN8firebase9firestore6remote12_GLOBAL__N_119LogGrpcCallFinishedEN4absl12lts_2024011611string_viewEPNS1_8GrpcCallERKNS0_4util6StatusE, symObjAddr: 0x57B4, symBinAddr: 0x2F49C, symSize: 0x1DC }
  - { offset: 0x20C8F9, size: 0x8, addend: 0x0, symName: __ZN8firebase9firestore6remote14MakeByteBufferINS0_34_google_firestore_v1_CommitRequestEEEN4grpc10ByteBufferERKNS0_6nanopb7MessageIT_EE, symObjAddr: 0x11A8, symBinAddr: 0x2C1A4, symSize: 0x94 }
  - { offset: 0x20CB71, size: 0x8, addend: 0x0, symName: __ZN8firebase9firestore6remote14MakeByteBufferINS0_45_google_firestore_v1_BatchGetDocumentsRequestEEEN4grpc10ByteBufferERKNS0_6nanopb7MessageIT_EE, symObjAddr: 0x1A3C, symBinAddr: 0x2C9D4, symSize: 0x94 }
  - { offset: 0x20CD93, size: 0x8, addend: 0x0, symName: __ZN8firebase9firestore6remote14MakeByteBufferINS0_47_google_firestore_v1_RunAggregationQueryRequestEEEN4grpc10ByteBufferERKNS0_6nanopb7MessageIT_EE, symObjAddr: 0x2010, symBinAddr: 0x2CFA8, symSize: 0x94 }
  - { offset: 0x20DB78, size: 0x8, addend: 0x0, symName: __ZN8firebase9firestore4util17internal_statusor12PlacementNewINS0_11credentials9AuthTokenEJRKS5_EEEvPvDpOT0_, symObjAddr: 0x8D1C, symBinAddr: 0x323D8, symSize: 0x94 }
  - { offset: 0x20F0A9, size: 0x8, addend: 0x0, symName: __ZN8firebase9firestore4util12StringFormatIJN4absl12lts_2024011611string_viewENS0_5ErrorENSt3__112basic_stringIcNS7_11char_traitsIcEENS7_9allocatorIcEEEEEEESD_PKcDpRKT_, symObjAddr: 0x5990, symBinAddr: 0x2F678, symSize: 0xAC }
  - { offset: 0x23BD6D, size: 0x8, addend: 0x0, symName: __ZNSt3__1L19piecewise_constructE, symObjAddr: 0xC8FC, symBinAddr: 0x1608C0, symSize: 0x0 }
  - { offset: 0x23F220, size: 0x8, addend: 0x0, symName: __ZNSt3__115allocate_sharedB8ne200100IN8firebase9firestore6remote11WatchStreamENS_9allocatorIS4_EEJRNS_10shared_ptrINS2_4util10AsyncQueueEEERNS7_INS2_11credentials19CredentialsProviderINSC_9AuthTokenENSC_4UserEEEEERNS7_INSD_INS_12basic_stringIcNS_11char_traitsIcEENS5_IcEEEESN_EEEERKNS3_10SerializerEPNS3_14GrpcConnectionERPNS3_19WatchStreamCallbackEELi0EEENS7_IT_EERKT0_DpOT1_, symObjAddr: 0x4660, symBinAddr: 0x2E6E8, symSize: 0x98 }
  - { offset: 0x23F5EE, size: 0x8, addend: 0x0, symName: __ZNSt3__115allocate_sharedB8ne200100IN8firebase9firestore6remote11WriteStreamENS_9allocatorIS4_EEJRNS_10shared_ptrINS2_4util10AsyncQueueEEERNS7_INS2_11credentials19CredentialsProviderINSC_9AuthTokenENSC_4UserEEEEERNS7_INSD_INS_12basic_stringIcNS_11char_traitsIcEENS5_IcEEEESN_EEEERKNS3_10SerializerEPNS3_14GrpcConnectionERPNS3_19WriteStreamCallbackEELi0EEENS7_IT_EERKT0_DpOT1_, symObjAddr: 0x49D4, symBinAddr: 0x2E9AC, symSize: 0x98 }
  - { offset: 0x24099D, size: 0x8, addend: 0x0, symName: __ZNSt3__115allocate_sharedB8ne200100IN8firebase9firestore6remote9Datastore15CallCredentialsENS_9allocatorIS5_EEJELi0EEENS_10shared_ptrIT_EERKT0_DpOT1_, symObjAddr: 0x7FFC, symBinAddr: 0x31774, symSize: 0x48 }
  - { offset: 0x241211, size: 0x8, addend: 0x0, symName: __ZNSt3__114__split_bufferINS_10unique_ptrIN8firebase9firestore6remote8GrpcCallENS_14default_deleteIS5_EEEERNS_9allocatorIS8_EEED2Ev, symObjAddr: 0x54C4, symBinAddr: 0x2F1AC, symSize: 0x5C }
  - { offset: 0x243DEF, size: 0x8, addend: 0x0, symName: __ZNSt3__112__destroy_atB8ne200100INS_4pairINS_12basic_stringIcNS_11char_traitsIcEENS_9allocatorIcEEEES7_EELi0EEEvPT_, symObjAddr: 0x3EB0, symBinAddr: 0x2E148, symSize: 0x44 }
  - { offset: 0x246955, size: 0x8, addend: 0x0, symName: __ZNSt3__135__uninitialized_allocator_copy_implB8ne200100INS_9allocatorIN8firebase9firestore5model14AggregateFieldEEEPS5_S7_S7_EET2_RT_T0_T1_S8_, symObjAddr: 0x6A38, symBinAddr: 0x30364, symSize: 0xA8 }
  - { offset: 0x246B34, size: 0x8, addend: 0x0, symName: __ZNSt3__119__allocate_at_leastB8ne200100INS_9allocatorIN8firebase9firestore5model14AggregateFieldEEEEENS_19__allocation_resultINS_16allocator_traitsIT_E7pointerEEERS9_m, symObjAddr: 0x69F0, symBinAddr: 0x3031C, symSize: 0x48 }
  - { offset: 0x246BE3, size: 0x8, addend: 0x0, symName: __ZNSt3__135__uninitialized_allocator_copy_implB8ne200100INS_9allocatorIN8firebase9firestore5model14AggregateFieldEEEPS5_S7_S7_EET2_RT_T0_T1_S8_, symObjAddr: 0x6A38, symBinAddr: 0x30364, symSize: 0xA8 }
  - { offset: 0x247280, size: 0x8, addend: 0x0, symName: __ZNSt3__120__throw_bad_weak_ptrB8ne200100Ev, symObjAddr: 0x7F70, symBinAddr: 0x31740, symSize: 0x34 }
  - { offset: 0x24D94A, size: 0x8, addend: 0x0, symName: __ZN4absl12lts_2024011618container_internal10DeallocateILm8ENSt3__19allocatorIcEEEEvPT0_Pvm, symObjAddr: 0x4000, symBinAddr: 0x2E298, symSize: 0x18 }
  - { offset: 0x24DA24, size: 0x8, addend: 0x0, symName: __ZN4absl12lts_2024011618container_internal12raw_hash_setINS1_17FlatHashMapPolicyINSt3__112basic_stringIcNS4_11char_traitsIcEENS4_9allocatorIcEEEESA_EENS1_10StringHashENS1_8StringEqENS8_INS4_4pairIKSA_SA_EEEEED2Ev, symObjAddr: 0x4018, symBinAddr: 0x2E2B0, symSize: 0xBC }
  - { offset: 0x24DADC, size: 0x8, addend: 0x0, symName: __ZNK4absl12lts_2024011618container_internal12CommonFields10alloc_sizeEmm, symObjAddr: 0x40EC, symBinAddr: 0x2E36C, symSize: 0x48 }
  - { offset: 0x24E230, size: 0x8, addend: 0x0, symName: __ZN4absl12lts_2024011618container_internal8AllocateILm8ENSt3__19allocatorIcEEEEPvPT0_m, symObjAddr: 0x3E54, symBinAddr: 0x2E0EC, symSize: 0x30 }
  - { offset: 0x24E314, size: 0x8, addend: 0x0, symName: __ZNK4absl12lts_2024011618container_internal12CommonFields19backing_array_startEv, symObjAddr: 0x3E84, symBinAddr: 0x2E11C, symSize: 0x2C }
  - { offset: 0x24E420, size: 0x8, addend: 0x0, symName: __ZN4absl12lts_2024011618container_internaleqERKNS1_12raw_hash_setINS1_17FlatHashMapPolicyINSt3__112basic_stringIcNS4_11char_traitsIcEENS4_9allocatorIcEEEESA_EENS1_10StringHashENS1_8StringEqENS8_INS4_4pairIKSA_SA_EEEEE8iteratorESL_, symObjAddr: 0x7B00, symBinAddr: 0x312D0, symSize: 0xC0 }
  - { offset: 0x24E582, size: 0x8, addend: 0x0, symName: __ZNK4absl12lts_2024011618container_internal12raw_hash_setINS1_17FlatHashMapPolicyINSt3__112basic_stringIcNS4_11char_traitsIcEENS4_9allocatorIcEEEESA_EENS1_10StringHashENS1_8StringEqENS8_INS4_4pairIKSA_SA_EEEEE8iteratordeEv, symObjAddr: 0x7BC0, symBinAddr: 0x31390, symSize: 0x44 }
  - { offset: 0x25C72A, size: 0x8, addend: 0x0, symName: __ZN8firebase9firestore6remote9Datastore29GetAllowlistedHeadersAsStringERKNSt3__18multimapIN4grpc10string_refES6_NS3_4lessIS6_EENS3_9allocatorINS3_4pairIKS6_S6_EEEEEE, symObjAddr: 0x2564, symBinAddr: 0x2D3C0, symSize: 0x320 }
  - { offset: 0x25C74E, size: 0x8, addend: 0x0, symName: __ZZN8firebase9firestore6remote9Datastore29GetAllowlistedHeadersAsStringERKNSt3__18multimapIN4grpc10string_refES6_NS3_4lessIS6_EENS3_9allocatorINS3_4pairIKS6_S6_EEEEEEE9allowlist, symObjAddr: 0x2A61B0, symBinAddr: 0x219188, symSize: 0x0 }
  - { offset: 0x25D805, size: 0x8, addend: 0x0, symName: __ZN4absl12lts_2024011618container_internal19HashSetResizeHelper23GrowSizeIntoSingleGroupINS1_18hash_policy_traitsINS1_17FlatHashMapPolicyINSt3__112basic_stringIcNS6_11char_traitsIcEENS6_9allocatorIcEEEESC_EEvEENSA_INS6_4pairIKSC_SC_EEEEEEvRNS1_12CommonFieldsERT0_PNT_9slot_typeE, symObjAddr: 0x3D1C, symBinAddr: 0x2DFB4, symSize: 0xCC }
  - { offset: 0x25DA56, size: 0x8, addend: 0x0, symName: __ZN4absl12lts_2024011618container_internal19HashSetResizeHelper13DeallocateOldILm8ENSt3__19allocatorIcEEEEvT0_mPv, symObjAddr: 0x3DE8, symBinAddr: 0x2E080, symSize: 0x6C }
  - { offset: 0x25DAD6, size: 0x8, addend: 0x0, symName: __ZN8firebase9firestore6remote9Datastore5StartEv, symObjAddr: 0x34C, symBinAddr: 0x2B348, symSize: 0xD8 }
  - { offset: 0x25DDAE, size: 0x8, addend: 0x0, symName: __ZN8firebase9firestore6remote9Datastore8ShutdownEv, symObjAddr: 0x424, symBinAddr: 0x2B420, symSize: 0xF0 }
  - { offset: 0x25E4B4, size: 0x8, addend: 0x0, symName: __ZN8firebase9firestore6remote9Datastore15CommitMutationsERKNSt3__16vectorINS0_5model8MutationENS3_9allocatorIS6_EEEEONS3_8functionIFvRKNS0_4util6StatusEEEE, symObjAddr: 0x6B8, symBinAddr: 0x2B6B4, symSize: 0x1B8 }
  - { offset: 0x25ED8D, size: 0x8, addend: 0x0, symName: __ZN8firebase9firestore6remote9Datastore30CommitMutationsWithCredentialsERKNS0_11credentials9AuthTokenERKNSt3__112basic_stringIcNS7_11char_traitsIcEENS7_9allocatorIcEEEERKNS7_6vectorINS0_5model8MutationENSB_ISI_EEEEONS7_8functionIFvRKNS0_4util6StatusEEEE, symObjAddr: 0xF38, symBinAddr: 0x2BF34, symSize: 0x270 }
  - { offset: 0x25F8C3, size: 0x8, addend: 0x0, symName: __ZN8firebase9firestore6remote9Datastore15LookupDocumentsERKNSt3__16vectorINS0_5model11DocumentKeyENS3_9allocatorIS6_EEEEONS3_8functionIFvRKNS0_4util8StatusOrINS4_INS5_8DocumentENS7_ISF_EEEEEEEEE, symObjAddr: 0x1338, symBinAddr: 0x2C334, symSize: 0x1B8 }
  - { offset: 0x26019C, size: 0x8, addend: 0x0, symName: __ZN8firebase9firestore6remote9Datastore30LookupDocumentsWithCredentialsERKNS0_11credentials9AuthTokenERKNSt3__112basic_stringIcNS7_11char_traitsIcEENS7_9allocatorIcEEEERKNS7_6vectorINS0_5model11DocumentKeyENSB_ISI_EEEEONS7_8functionIFvRKNS0_4util8StatusOrINSG_INSH_8DocumentENSB_ISQ_EEEEEEEEE, symObjAddr: 0x1554, symBinAddr: 0x2C4EC, symSize: 0x4E8 }
  - { offset: 0x2617D5, size: 0x8, addend: 0x0, symName: __ZN8firebase9firestore6remote9Datastore17RunAggregateQueryERKNS0_4core5QueryERKNSt3__16vectorINS0_5model14AggregateFieldENS7_9allocatorISA_EEEEONS7_8functionIFvRKNS0_4util8StatusOrINS9_11ObjectValueEEEEEE, symObjAddr: 0x1AD0, symBinAddr: 0x2CA68, symSize: 0x224 }
  - { offset: 0x26219F, size: 0x8, addend: 0x0, symName: __ZN8firebase9firestore6remote9Datastore32RunAggregateQueryWithCredentialsERKNS0_11credentials9AuthTokenERKNSt3__112basic_stringIcNS7_11char_traitsIcEENS7_9allocatorIcEEEERKNS0_4core5QueryERKNS7_6vectorINS0_5model14AggregateFieldENSB_ISM_EEEEONS7_8functionIFvRKNS0_4util8StatusOrINSL_11ObjectValueEEEEEE, symObjAddr: 0x1D60, symBinAddr: 0x2CCF8, symSize: 0x2B0 }
  - { offset: 0x262F75, size: 0x8, addend: 0x0, symName: __ZN8firebase9firestore6remote9Datastore24ResumeRpcWithCredentialsERKNSt3__18functionIFvRKNS0_4util8StatusOrINS0_11credentials9AuthTokenEEERKNS3_12basic_stringIcNS3_11char_traitsIcEENS3_9allocatorIcEEEEEEE, symObjAddr: 0x870, symBinAddr: 0x2B86C, symSize: 0x664 }
  - { offset: 0x264D2D, size: 0x8, addend: 0x0, symName: '__ZZN8firebase9firestore6remote9Datastore24ResumeRpcWithCredentialsERKNSt3__18functionIFvRKNS0_4util8StatusOrINS0_11credentials9AuthTokenEEERKNS3_12basic_stringIcNS3_11char_traitsIcEENS3_9allocatorIcEEEEEEEENK3$_0clERKN4absl12lts_202401168optionalIS9_EERKNSR_ISH_EE', symObjAddr: 0x87A0, symBinAddr: 0x31E5C, symSize: 0x3B8 }
  - { offset: 0x2664A9, size: 0x8, addend: 0x0, symName: __ZN8firebase9firestore6remote9DatastoreC2ERKNS0_4core12DatabaseInfoERKNSt3__110shared_ptrINS0_4util10AsyncQueueEEENS8_INS0_11credentials19CredentialsProviderINSE_9AuthTokenENSE_4UserEEEEENS8_INSF_INS7_12basic_stringIcNS7_11char_traitsIcEENS7_9allocatorIcEEEESP_EEEEPNS1_19ConnectivityMonitorEPNS1_24FirebaseMetadataProviderE, symObjAddr: 0x0, symBinAddr: 0x2AFFC, symSize: 0x2B8 }
  - { offset: 0x266F07, size: 0x8, addend: 0x0, symName: __ZN4grpc15CompletionQueueC2ERK32grpc_completion_queue_attributes, symObjAddr: 0x289C, symBinAddr: 0x2D6F8, symSize: 0xC4 }
  - { offset: 0x267447, size: 0x8, addend: 0x0, symName: __ZNSt3__16vectorINS_10unique_ptrIN8firebase9firestore6remote8GrpcCallENS_14default_deleteIS5_EEEENS_9allocatorIS8_EEE16__destroy_vectorclB8ne200100Ev, symObjAddr: 0x4460, symBinAddr: 0x2E534, symSize: 0x7C }
  - { offset: 0x267635, size: 0x8, addend: 0x0, symName: __ZN8firebase9firestore6remote14GrpcConnectionD1Ev, symObjAddr: 0x2B8, symBinAddr: 0x2B2B4, symSize: 0x4C }
  - { offset: 0x267830, size: 0x8, addend: 0x0, symName: __ZN8firebase9firestore4core12DatabaseInfoD1Ev, symObjAddr: 0x304, symBinAddr: 0x2B300, symSize: 0x40 }
  - { offset: 0x267AE7, size: 0x8, addend: 0x0, symName: __ZN4grpc15CompletionQueueD2Ev, symObjAddr: 0x2C9C, symBinAddr: 0x2D8B0, symSize: 0x50 }
  - { offset: 0x267E1C, size: 0x8, addend: 0x0, symName: __ZNSt3__110unique_ptrIN4grpc20TemplatedGenericStubINS1_10ByteBufferES3_EENS_14default_deleteIS4_EEE5resetB8ne200100EPS4_, symObjAddr: 0x2BC4, symBinAddr: 0x2D888, symSize: 0x28 }
  - { offset: 0x267F57, size: 0x8, addend: 0x0, symName: __ZN4grpc15CompletionQueueD1Ev, symObjAddr: 0x344, symBinAddr: 0x2B340, symSize: 0x4 }
  - { offset: 0x267F7A, size: 0x8, addend: 0x0, symName: __ZN4grpc15CompletionQueueD1Ev, symObjAddr: 0x344, symBinAddr: 0x2B340, symSize: 0x4 }
  - { offset: 0x267F8D, size: 0x8, addend: 0x0, symName: __ZN8firebase9firestore6remote9DatastoreC1ERKNS0_4core12DatabaseInfoERKNSt3__110shared_ptrINS0_4util10AsyncQueueEEENS8_INS0_11credentials19CredentialsProviderINSE_9AuthTokenENSE_4UserEEEEENS8_INSF_INS7_12basic_stringIcNS7_11char_traitsIcEENS7_9allocatorIcEEEESP_EEEEPNS1_19ConnectivityMonitorEPNS1_24FirebaseMetadataProviderE, symObjAddr: 0x348, symBinAddr: 0x2B344, symSize: 0x4 }
  - { offset: 0x26800A, size: 0x8, addend: 0x0, symName: __ZN8firebase9firestore6remote9DatastoreC1ERKNS0_4core12DatabaseInfoERKNSt3__110shared_ptrINS0_4util10AsyncQueueEEENS8_INS0_11credentials19CredentialsProviderINSE_9AuthTokenENSE_4UserEEEEENS8_INSF_INS7_12basic_stringIcNS7_11char_traitsIcEENS7_9allocatorIcEEEESP_EEEEPNS1_19ConnectivityMonitorEPNS1_24FirebaseMetadataProviderE, symObjAddr: 0x348, symBinAddr: 0x2B344, symSize: 0x4 }
  - { offset: 0x26847B, size: 0x8, addend: 0x0, symName: __ZN8firebase9firestore6remote9Datastore13PollGrpcQueueEv, symObjAddr: 0x514, symBinAddr: 0x2B510, symSize: 0x11C }
  - { offset: 0x2686E4, size: 0x8, addend: 0x0, symName: __ZN8firebase9firestore6remote9Datastore17CreateWatchStreamEPNS1_19WatchStreamCallbackE, symObjAddr: 0x630, symBinAddr: 0x2B62C, symSize: 0x44 }
  - { offset: 0x268765, size: 0x8, addend: 0x0, symName: __ZN8firebase9firestore6remote9Datastore17CreateWriteStreamEPNS1_19WriteStreamCallbackE, symObjAddr: 0x674, symBinAddr: 0x2B670, symSize: 0x44 }
  - { offset: 0x268E78, size: 0x8, addend: 0x0, symName: __ZNSt3__16vectorIN8firebase9firestore5model8MutationENS_9allocatorIS4_EEE16__init_with_sizeB8ne200100IPS4_S9_EEvT_T0_m, symObjAddr: 0x4D48, symBinAddr: 0x2EC70, symSize: 0x98 }
  - { offset: 0x269239, size: 0x8, addend: 0x0, symName: __ZNSt3__110__function12__value_funcIFvRKN8firebase9firestore4util6StatusEEEC2B8ne200100EOS9_, symObjAddr: 0x524C, symBinAddr: 0x2EFC8, symSize: 0x64 }
  - { offset: 0x269392, size: 0x8, addend: 0x0, symName: '__ZZN8firebase9firestore6remote9Datastore15CommitMutationsERKNSt3__16vectorINS0_5model8MutationENS3_9allocatorIS6_EEEEONS3_8functionIFvRKNS0_4util6StatusEEEEEN3$_0D1Ev', symObjAddr: 0xED4, symBinAddr: 0x2BED0, symSize: 0x64 }
  - { offset: 0x26A1CE, size: 0x8, addend: 0x0, symName: __ZNSt3__110shared_ptrIN8firebase9firestore6remote9DatastoreEEC2B8ne200100IS4_Li0EEERKNS_8weak_ptrIT_EE, symObjAddr: 0x7F30, symBinAddr: 0x31700, symSize: 0x40 }
  - { offset: 0x26A20A, size: 0x8, addend: 0x0, symName: __ZNSt3__120__throw_bad_weak_ptrB8ne200100Ev, symObjAddr: 0x7F70, symBinAddr: 0x31740, symSize: 0x34 }
  - { offset: 0x26A381, size: 0x8, addend: 0x0, symName: '__ZZN8firebase9firestore6remote9Datastore24ResumeRpcWithCredentialsERKNSt3__18functionIFvRKNS0_4util8StatusOrINS0_11credentials9AuthTokenEEERKNS3_12basic_stringIcNS3_11char_traitsIcEENS3_9allocatorIcEEEEEEEEN3$_1D1Ev', symObjAddr: 0x20F8, symBinAddr: 0x2D090, symSize: 0x60 }
  - { offset: 0x26AAF9, size: 0x8, addend: 0x0, symName: __ZN8firebase9firestore6nanopb7MessageINS0_34_google_firestore_v1_CommitRequestEED2Ev, symObjAddr: 0x535C, symBinAddr: 0x2F08C, symSize: 0x40 }
  - { offset: 0x26AB52, size: 0x8, addend: 0x0, symName: __ZNSt3__16vectorINS_10unique_ptrIN8firebase9firestore6remote8GrpcCallENS_14default_deleteIS5_EEEENS_9allocatorIS8_EEE9push_backB8ne200100EOS8_, symObjAddr: 0x123C, symBinAddr: 0x2C238, symSize: 0xFC }
  - { offset: 0x26AF47, size: 0x8, addend: 0x0, symName: __ZN8firebase9firestore6remote9Datastore15LookupDocumentsERKNSt3__16vectorINS0_5model11DocumentKeyENS3_9allocatorIS6_EEEEONS3_8functionIFvRKNS0_4util8StatusOrINS4_INS5_8DocumentENS7_ISF_EEEEEEEEE, symObjAddr: 0x1338, symBinAddr: 0x2C334, symSize: 0x1B8 }
  - { offset: 0x26AF52, size: 0x8, addend: 0x0, symName: __ZN4grpc10ByteBufferD2Ev, symObjAddr: 0x2CEC, symBinAddr: 0x2D900, symSize: 0x30 }
  - { offset: 0x26B0EE, size: 0x8, addend: 0x0, symName: __ZNSt3__16vectorIN4grpc5SliceENS_9allocatorIS2_EEE16__destroy_vectorclB8ne200100Ev, symObjAddr: 0x539C, symBinAddr: 0x2F0CC, symSize: 0x70 }
  - { offset: 0x26B55C, size: 0x8, addend: 0x0, symName: __ZNSt3__114__split_bufferINS_10unique_ptrIN8firebase9firestore6remote8GrpcCallENS_14default_deleteIS5_EEEERNS_9allocatorIS8_EEED2Ev, symObjAddr: 0x54C4, symBinAddr: 0x2F1AC, symSize: 0x5C }
  - { offset: 0x26BD4D, size: 0x8, addend: 0x0, symName: __ZNSt3__16vectorIN8firebase9firestore5model11DocumentKeyENS_9allocatorIS4_EEE16__init_with_sizeB8ne200100IPS4_S9_EEvT_T0_m, symObjAddr: 0x5AE0, symBinAddr: 0x2F764, symSize: 0x98 }
  - { offset: 0x26C101, size: 0x8, addend: 0x0, symName: __ZNSt3__110__function12__value_funcIFvRKN8firebase9firestore4util8StatusOrINS_6vectorINS3_5model8DocumentENS_9allocatorIS8_EEEEEEEEC2B8ne200100EOSG_, symObjAddr: 0x6034, symBinAddr: 0x2FB0C, symSize: 0x64 }
  - { offset: 0x26CC0C, size: 0x8, addend: 0x0, symName: __ZN8firebase9firestore6nanopb7MessageINS0_45_google_firestore_v1_BatchGetDocumentsRequestEED2Ev, symObjAddr: 0x6370, symBinAddr: 0x2FCB0, symSize: 0x40 }
  - { offset: 0x26D2E8, size: 0x8, addend: 0x0, symName: __ZN8firebase9firestore4core5QueryC2ERKS2_, symObjAddr: 0x2D1C, symBinAddr: 0x2D930, symSize: 0x20C }
  - { offset: 0x26DDC3, size: 0x8, addend: 0x0, symName: __ZNSt3__16vectorIN8firebase9firestore5model14AggregateFieldENS_9allocatorIS4_EEE16__init_with_sizeB8ne200100IPS4_S9_EEvT_T0_m, symObjAddr: 0x690C, symBinAddr: 0x3024C, symSize: 0x84 }
  - { offset: 0x26E066, size: 0x8, addend: 0x0, symName: __ZNSt3__110__function12__value_funcIFvRKN8firebase9firestore4util8StatusOrINS3_5model11ObjectValueEEEEEC2B8ne200100EOSC_, symObjAddr: 0x70A0, symBinAddr: 0x308B0, symSize: 0x64 }
  - { offset: 0x26E4AA, size: 0x8, addend: 0x0, symName: '__ZZN8firebase9firestore6remote9Datastore17RunAggregateQueryERKNS0_4core5QueryERKNSt3__16vectorINS0_5model14AggregateFieldENS7_9allocatorISA_EEEEONS7_8functionIFvRKNS0_4util8StatusOrINS9_11ObjectValueEEEEEEEN3$_0D1Ev', symObjAddr: 0x1CF4, symBinAddr: 0x2CC8C, symSize: 0x6C }
  - { offset: 0x26EBFD, size: 0x8, addend: 0x0, symName: __ZN8firebase9firestore6nanopb7MessageINS0_47_google_firestore_v1_RunAggregationQueryRequestEED2Ev, symObjAddr: 0x7244, symBinAddr: 0x30A14, symSize: 0x40 }
  - { offset: 0x26EC57, size: 0x8, addend: 0x0, symName: __ZN4absl12lts_2024011618container_internal12raw_hash_setINS1_17FlatHashMapPolicyINSt3__112basic_stringIcNS4_11char_traitsIcEENS4_9allocatorIcEEEESA_EENS1_10StringHashENS1_8StringEqENS8_INS4_4pairIKSA_SA_EEEEEC2EOSI_, symObjAddr: 0x38A4, symBinAddr: 0x2DB3C, symSize: 0x20 }
  - { offset: 0x26EC90, size: 0x8, addend: 0x0, symName: __ZN4absl12lts_2024011618container_internal12raw_hash_setINS1_17FlatHashMapPolicyINSt3__112basic_stringIcNS4_11char_traitsIcEENS4_9allocatorIcEEEESA_EENS1_10StringHashENS1_8StringEqENS8_INS4_4pairIKSA_SA_EEEEEC2EOSI_, symObjAddr: 0x38A4, symBinAddr: 0x2DB3C, symSize: 0x20 }
  - { offset: 0x26ECC8, size: 0x8, addend: 0x0, symName: __ZN4absl12lts_2024011618container_internal12raw_hash_setINS1_17FlatHashMapPolicyINSt3__112basic_stringIcNS4_11char_traitsIcEENS4_9allocatorIcEEEESA_EENS1_10StringHashENS1_8StringEqENS8_INS4_4pairIKSA_SA_EEEEEC2EOSI_, symObjAddr: 0x38A4, symBinAddr: 0x2DB3C, symSize: 0x20 }
  - { offset: 0x26ECFF, size: 0x8, addend: 0x0, symName: __ZN4absl12lts_2024011618container_internal12raw_hash_setINS1_17FlatHashMapPolicyINSt3__112basic_stringIcNS4_11char_traitsIcEENS4_9allocatorIcEEEESA_EENS1_10StringHashENS1_8StringEqENS8_INS4_4pairIKSA_SA_EEEEEC2EOSI_, symObjAddr: 0x38A4, symBinAddr: 0x2DB3C, symSize: 0x20 }
  - { offset: 0x26ED36, size: 0x8, addend: 0x0, symName: __ZN4absl12lts_2024011618container_internal12raw_hash_setINS1_17FlatHashMapPolicyINSt3__112basic_stringIcNS4_11char_traitsIcEENS4_9allocatorIcEEEESA_EENS1_10StringHashENS1_8StringEqENS8_INS4_4pairIKSA_SA_EEEEEC2EOSI_, symObjAddr: 0x38A4, symBinAddr: 0x2DB3C, symSize: 0x20 }
  - { offset: 0x26ED5A, size: 0x8, addend: 0x0, symName: __ZN4absl12lts_2024011618container_internal12raw_hash_setINS1_17FlatHashMapPolicyINSt3__112basic_stringIcNS4_11char_traitsIcEENS4_9allocatorIcEEEESA_EENS1_10StringHashENS1_8StringEqENS8_INS4_4pairIKSA_SA_EEEEED2Ev, symObjAddr: 0x4018, symBinAddr: 0x2E2B0, symSize: 0xBC }
  - { offset: 0x26F00B, size: 0x8, addend: 0x0, symName: '__ZZN8firebase9firestore6remote9Datastore32RunAggregateQueryWithCredentialsERKNS0_11credentials9AuthTokenERKNSt3__112basic_stringIcNS7_11char_traitsIcEENS7_9allocatorIcEEEERKNS0_4core5QueryERKNS7_6vectorINS0_5model14AggregateFieldENSB_ISM_EEEEONS7_8functionIFvRKNS0_4util8StatusOrINSL_11ObjectValueEEEEEEEN3$_0D1Ev', symObjAddr: 0x20A4, symBinAddr: 0x2D03C, symSize: 0x54 }
  - { offset: 0x26F182, size: 0x8, addend: 0x0, symName: __ZN8firebase9firestore6remote9Datastore16HandleCallStatusERKNS0_4util6StatusE, symObjAddr: 0x2218, symBinAddr: 0x2D0F0, symSize: 0x54 }
  - { offset: 0x26F1AF, size: 0x8, addend: 0x0, symName: __ZN8firebase9firestore6remote9Datastore16HandleCallStatusERKNS0_4util6StatusE, symObjAddr: 0x2218, symBinAddr: 0x2D0F0, symSize: 0x54 }
  - { offset: 0x26F1CB, size: 0x8, addend: 0x0, symName: __ZN8firebase9firestore6remote9Datastore16HandleCallStatusERKNS0_4util6StatusE, symObjAddr: 0x2218, symBinAddr: 0x2D0F0, symSize: 0x54 }
  - { offset: 0x26F1E6, size: 0x8, addend: 0x0, symName: __ZN8firebase9firestore6remote9Datastore16HandleCallStatusERKNS0_4util6StatusE, symObjAddr: 0x2218, symBinAddr: 0x2D0F0, symSize: 0x54 }
  - { offset: 0x26F208, size: 0x8, addend: 0x0, symName: __ZN8firebase9firestore6remote9Datastore16HandleCallStatusERKNS0_4util6StatusE, symObjAddr: 0x2218, symBinAddr: 0x2D0F0, symSize: 0x54 }
  - { offset: 0x26F291, size: 0x8, addend: 0x0, symName: __ZN8firebase9firestore6remote9Datastore14RemoveGrpcCallEPNS1_8GrpcCallE, symObjAddr: 0x226C, symBinAddr: 0x2D144, symSize: 0x118 }
  - { offset: 0x26F9DB, size: 0x8, addend: 0x0, symName: __ZN8firebase9firestore6remote9Datastore14IsAbortedErrorERKNS0_4util6StatusE, symObjAddr: 0x2384, symBinAddr: 0x2D25C, symSize: 0x24 }
  - { offset: 0x26FA12, size: 0x8, addend: 0x0, symName: __ZN8firebase9firestore6remote9Datastore14IsAbortedErrorERKNS0_4util6StatusE, symObjAddr: 0x2384, symBinAddr: 0x2D25C, symSize: 0x24 }
  - { offset: 0x26FA2D, size: 0x8, addend: 0x0, symName: __ZN8firebase9firestore6remote9Datastore14IsAbortedErrorERKNS0_4util6StatusE, symObjAddr: 0x2384, symBinAddr: 0x2D25C, symSize: 0x24 }
  - { offset: 0x26FA4F, size: 0x8, addend: 0x0, symName: __ZN8firebase9firestore6remote9Datastore14IsAbortedErrorERKNS0_4util6StatusE, symObjAddr: 0x2384, symBinAddr: 0x2D25C, symSize: 0x24 }
  - { offset: 0x26FA6D, size: 0x8, addend: 0x0, symName: __ZN8firebase9firestore6remote9Datastore16IsPermanentErrorERKNS0_4util6StatusE, symObjAddr: 0x23A8, symBinAddr: 0x2D280, symSize: 0xFC }
  - { offset: 0x26FE30, size: 0x8, addend: 0x0, symName: __ZNSt3__16__treeINS_12__value_typeIN4grpc10string_refES3_EENS_19__map_value_compareIS3_S4_NS_4lessIS3_EELb1EEENS_9allocatorIS4_EEE7destroyEPNS_11__tree_nodeIS4_PvEE, symObjAddr: 0x5AA0, symBinAddr: 0x2F724, symSize: 0x40 }
  - { offset: 0x26FE52, size: 0x8, addend: 0x0, symName: __ZN8firebase9firestore6remote9Datastore21IsPermanentWriteErrorERKNS0_4util6StatusE, symObjAddr: 0x2520, symBinAddr: 0x2D37C, symSize: 0x44 }
  - { offset: 0x2702E0, size: 0x8, addend: 0x0, symName: __ZNSt3__112basic_stringIcNS_11char_traitsIcEENS_9allocatorIcEEEC2B8ne200100EPKcm, symObjAddr: 0x4134, symBinAddr: 0x2E3B4, symSize: 0x9C }
  - { offset: 0x270507, size: 0x8, addend: 0x0, symName: __ZN8firebase9firestore6remote9DatastoreD2Ev, symObjAddr: 0x41D0, symBinAddr: 0x2E450, symSize: 0xE4 }
  - { offset: 0x270511, size: 0x8, addend: 0x0, symName: __ZNKSt3__112__hash_tableINS_12basic_stringIcNS_11char_traitsIcEENS_9allocatorIcEEEENS_4hashIS6_EENS_8equal_toIS6_EENS4_IS6_EEE4findIS6_EENS_21__hash_const_iteratorIPNS_11__hash_nodeIS6_PvEEEERKT_, symObjAddr: 0xA2A4, symBinAddr: 0x331B8, symSize: 0xF8 }
  - { offset: 0x2706D9, size: 0x8, addend: 0x0, symName: __ZNSt3__113unordered_setINS_12basic_stringIcNS_11char_traitsIcEENS_9allocatorIcEEEENS_4hashIS6_EENS_8equal_toIS6_EENS4_IS6_EEEC2ESt16initializer_listIS6_E, symObjAddr: 0x96AC, symBinAddr: 0x32D04, symSize: 0x78 }
  - { offset: 0x270830, size: 0x8, addend: 0x0, symName: __ZNSt3__112__hash_tableINS_12basic_stringIcNS_11char_traitsIcEENS_9allocatorIcEEEENS_4hashIS6_EENS_8equal_toIS6_EENS4_IS6_EEEC2EOSC_, symObjAddr: 0xA234, symBinAddr: 0x33148, symSize: 0x70 }
  - { offset: 0x2708A8, size: 0x8, addend: 0x0, symName: __ZNSt3__112__hash_tableINS_12basic_stringIcNS_11char_traitsIcEENS_9allocatorIcEEEENS_4hashIS6_EENS_8equal_toIS6_EENS4_IS6_EEEC2EOSC_, symObjAddr: 0xA234, symBinAddr: 0x33148, symSize: 0x70 }
  - { offset: 0x27097D, size: 0x8, addend: 0x0, symName: __ZNSt3__112__hash_tableINS_12basic_stringIcNS_11char_traitsIcEENS_9allocatorIcEEEENS_4hashIS6_EENS_8equal_toIS6_EENS4_IS6_EEED2Ev, symObjAddr: 0xA1B8, symBinAddr: 0x330CC, symSize: 0x38 }
  - { offset: 0x270AD8, size: 0x8, addend: 0x0, symName: __ZN8firebase9firestore6remote9DatastoreD1Ev, symObjAddr: 0x2884, symBinAddr: 0x2D6E0, symSize: 0x4 }
  - { offset: 0x270AFB, size: 0x8, addend: 0x0, symName: __ZN8firebase9firestore6remote9DatastoreD1Ev, symObjAddr: 0x2884, symBinAddr: 0x2D6E0, symSize: 0x4 }
  - { offset: 0x270B0E, size: 0x8, addend: 0x0, symName: __ZN8firebase9firestore6remote9DatastoreD2Ev, symObjAddr: 0x41D0, symBinAddr: 0x2E450, symSize: 0xE4 }
  - { offset: 0x271297, size: 0x8, addend: 0x0, symName: __ZN8firebase9firestore6remote9DatastoreD0Ev, symObjAddr: 0x2888, symBinAddr: 0x2D6E4, symSize: 0x14 }
  - { offset: 0x2714DF, size: 0x8, addend: 0x0, symName: __ZNSt3__110__list_impIPKN4grpc6ServerENS_9allocatorIS4_EEE5clearEv, symObjAddr: 0x29E0, symBinAddr: 0x2D82C, symSize: 0x5C }
  - { offset: 0x271509, size: 0x8, addend: 0x0, symName: __ZNSt3__110__list_impIPKN4grpc6ServerENS_9allocatorIS4_EEE5clearEv, symObjAddr: 0x29E0, symBinAddr: 0x2D82C, symSize: 0x5C }
  - { offset: 0x27167F, size: 0x8, addend: 0x0, symName: __ZN4grpc8internal11GrpcLibraryD2Ev, symObjAddr: 0x2960, symBinAddr: 0x2D7BC, symSize: 0x44 }
  - { offset: 0x2716BF, size: 0x8, addend: 0x0, symName: __ZN4grpc15CompletionQueueD0Ev, symObjAddr: 0x29A4, symBinAddr: 0x2D800, symSize: 0x14 }
  - { offset: 0x271718, size: 0x8, addend: 0x0, symName: __ZN4grpc8internal11GrpcLibraryD1Ev, symObjAddr: 0x29B8, symBinAddr: 0x2D814, symSize: 0x4 }
  - { offset: 0x27173B, size: 0x8, addend: 0x0, symName: __ZN4grpc8internal11GrpcLibraryD1Ev, symObjAddr: 0x29B8, symBinAddr: 0x2D814, symSize: 0x4 }
  - { offset: 0x271767, size: 0x8, addend: 0x0, symName: __ZN4grpc8internal11GrpcLibraryD0Ev, symObjAddr: 0x29BC, symBinAddr: 0x2D818, symSize: 0x14 }
  - { offset: 0x2746CD, size: 0x8, addend: 0x0, symName: __ZN4absl12lts_2024011618container_internal12raw_hash_setINS1_17FlatHashMapPolicyINSt3__112basic_stringIcNS4_11char_traitsIcEENS4_9allocatorIcEEEESA_EENS1_10StringHashENS1_8StringEqENS8_INS4_4pairIKSA_SA_EEEEE6resizeEm, symObjAddr: 0x38C4, symBinAddr: 0x2DB5C, symSize: 0x2B4 }
  - { offset: 0x275241, size: 0x8, addend: 0x0, symName: __ZN4absl12lts_2024011618container_internal19HashSetResizeHelper15InitializeSlotsINSt3__19allocatorIcEELm48ELb0ELm8EEEbRNS1_12CommonFieldsEPvT_, symObjAddr: 0x3B78, symBinAddr: 0x2DE10, symSize: 0x1A4 }
  - { offset: 0x275253, size: 0x8, addend: 0x0, symName: __ZN4absl12lts_2024011618container_internal19HashSetResizeHelper15InitializeSlotsINSt3__19allocatorIcEELm48ELb0ELm8EEEbRNS1_12CommonFieldsEPvT_, symObjAddr: 0x3B78, symBinAddr: 0x2DE10, symSize: 0x1A4 }
  - { offset: 0x275603, size: 0x8, addend: 0x0, symName: __ZN4absl12lts_2024011618container_internal19HashSetResizeHelper23GrowSizeIntoSingleGroupINS1_18hash_policy_traitsINS1_17FlatHashMapPolicyINSt3__112basic_stringIcNS6_11char_traitsIcEENS6_9allocatorIcEEEESC_EEvEENSA_INS6_4pairIKSC_SC_EEEEEEvRNS1_12CommonFieldsERT0_PNT_9slot_typeE, symObjAddr: 0x3D1C, symBinAddr: 0x2DFB4, symSize: 0xCC }
  - { offset: 0x27563D, size: 0x8, addend: 0x0, symName: __ZN4absl12lts_2024011613hash_internal15MixingHashState18combine_contiguousES2_PKhm, symObjAddr: 0x3EF4, symBinAddr: 0x2E18C, symSize: 0x10C }
  - { offset: 0x275871, size: 0x8, addend: 0x0, symName: __ZNK4absl12lts_2024011618container_internal12CommonFields19backing_array_startEv, symObjAddr: 0x3E84, symBinAddr: 0x2E11C, symSize: 0x2C }
  - { offset: 0x275899, size: 0x8, addend: 0x0, symName: __ZNK4absl12lts_2024011618container_internal12CommonFields19backing_array_startEv, symObjAddr: 0x3E84, symBinAddr: 0x2E11C, symSize: 0x2C }
  - { offset: 0x2758D3, size: 0x8, addend: 0x0, symName: __ZNSt3__112__destroy_atB8ne200100INS_4pairINS_12basic_stringIcNS_11char_traitsIcEENS_9allocatorIcEEEES7_EELi0EEEvPT_, symObjAddr: 0x3EB0, symBinAddr: 0x2E148, symSize: 0x44 }
  - { offset: 0x2758DD, size: 0x8, addend: 0x0, symName: __ZN4absl12lts_2024011618container_internal19HashSetResizeHelper13DeallocateOldILm8ENSt3__19allocatorIcEEEEvT0_mPv, symObjAddr: 0x3DE8, symBinAddr: 0x2E080, symSize: 0x6C }
  - { offset: 0x2759C3, size: 0x8, addend: 0x0, symName: __ZN4absl12lts_2024011618container_internal8AllocateILm8ENSt3__19allocatorIcEEEEPvPT0_m, symObjAddr: 0x3E54, symBinAddr: 0x2E0EC, symSize: 0x30 }
  - { offset: 0x275A80, size: 0x8, addend: 0x0, symName: __ZN4absl12lts_2024011618container_internal19HashSetResizeHelper23GrowSizeIntoSingleGroupINS1_18hash_policy_traitsINS1_17FlatHashMapPolicyINSt3__112basic_stringIcNS6_11char_traitsIcEENS6_9allocatorIcEEEESC_EEvEENSA_INS6_4pairIKSC_SC_EEEEEEvRNS1_12CommonFieldsERT0_PNT_9slot_typeE.cold.2, symObjAddr: 0xA3C4, symBinAddr: 0x1583D0, symSize: 0x28 }
  - { offset: 0x275A98, size: 0x8, addend: 0x0, symName: __ZN4absl12lts_2024011618container_internal19HashSetResizeHelper23GrowSizeIntoSingleGroupINS1_18hash_policy_traitsINS1_17FlatHashMapPolicyINSt3__112basic_stringIcNS6_11char_traitsIcEENS6_9allocatorIcEEEESC_EEvEENSA_INS6_4pairIKSC_SC_EEEEEEvRNS1_12CommonFieldsERT0_PNT_9slot_typeE.cold.1, symObjAddr: 0xA39C, symBinAddr: 0x1583A8, symSize: 0x28 }
  - { offset: 0x275AB0, size: 0x8, addend: 0x0, symName: __ZN4absl12lts_2024011618container_internal19HashSetResizeHelper13DeallocateOldILm8ENSt3__19allocatorIcEEEEvT0_mPv.cold.1, symObjAddr: 0xA3EC, symBinAddr: 0x1583F8, symSize: 0x28 }
  - { offset: 0x275B65, size: 0x8, addend: 0x0, symName: __ZN4absl12lts_2024011618container_internal8AllocateILm8ENSt3__19allocatorIcEEEEPvPT0_m.cold.2, symObjAddr: 0xA43C, symBinAddr: 0x158448, symSize: 0x28 }
  - { offset: 0x275B7D, size: 0x8, addend: 0x0, symName: __ZN4absl12lts_2024011618container_internal8AllocateILm8ENSt3__19allocatorIcEEEEPvPT0_m.cold.1, symObjAddr: 0xA414, symBinAddr: 0x158420, symSize: 0x28 }
  - { offset: 0x275B95, size: 0x8, addend: 0x0, symName: __ZNK4absl12lts_2024011618container_internal12CommonFields19backing_array_startEv.cold.1, symObjAddr: 0xA464, symBinAddr: 0x158470, symSize: 0x28 }
  - { offset: 0x275E63, size: 0x8, addend: 0x0, symName: __ZN4absl12lts_2024011618container_internal10DeallocateILm8ENSt3__19allocatorIcEEEEvPT0_Pvm.cold.1, symObjAddr: 0xA48C, symBinAddr: 0x158498, symSize: 0x28 }
  - { offset: 0x275F7F, size: 0x8, addend: 0x0, symName: __ZNK4absl12lts_2024011618container_internal12CommonFields10alloc_sizeEmm, symObjAddr: 0x40EC, symBinAddr: 0x2E36C, symSize: 0x48 }
  - { offset: 0x275FC7, size: 0x8, addend: 0x0, symName: __ZNK4absl12lts_2024011618container_internal12CommonFields10alloc_sizeEmm, symObjAddr: 0x40EC, symBinAddr: 0x2E36C, symSize: 0x48 }
  - { offset: 0x276091, size: 0x8, addend: 0x0, symName: __ZNSt3__112basic_stringIcNS_11char_traitsIcEENS_9allocatorIcEEEC2B8ne200100EPKcm, symObjAddr: 0x4134, symBinAddr: 0x2E3B4, symSize: 0x9C }
  - { offset: 0x276202, size: 0x8, addend: 0x0, symName: '__ZNSt3__110__function6__funcIZN8firebase9firestore6remote9Datastore5StartEvE3$_0NS_9allocatorIS6_EEFvvEED1Ev', symObjAddr: 0x44DC, symBinAddr: 0x2E5B0, symSize: 0x4 }
  - { offset: 0x27622D, size: 0x8, addend: 0x0, symName: '__ZNSt3__110__function6__funcIZN8firebase9firestore6remote9Datastore5StartEvE3$_0NS_9allocatorIS6_EEFvvEED0Ev', symObjAddr: 0x44E0, symBinAddr: 0x2E5B4, symSize: 0x4 }
  - { offset: 0x27633B, size: 0x8, addend: 0x0, symName: '__ZNKSt3__110__function6__funcIZN8firebase9firestore6remote9Datastore5StartEvE3$_0NS_9allocatorIS6_EEFvvEE7__cloneEv', symObjAddr: 0x44E4, symBinAddr: 0x2E5B8, symSize: 0x34 }
  - { offset: 0x276536, size: 0x8, addend: 0x0, symName: '__ZNKSt3__110__function6__funcIZN8firebase9firestore6remote9Datastore5StartEvE3$_0NS_9allocatorIS6_EEFvvEE7__cloneEPNS0_6__baseIS9_EE', symObjAddr: 0x4518, symBinAddr: 0x2E5EC, symSize: 0x14 }
  - { offset: 0x27656B, size: 0x8, addend: 0x0, symName: '__ZNKSt3__110__function6__funcIZN8firebase9firestore6remote9Datastore5StartEvE3$_0NS_9allocatorIS6_EEFvvEE7__cloneEPNS0_6__baseIS9_EE', symObjAddr: 0x4518, symBinAddr: 0x2E5EC, symSize: 0x14 }
  - { offset: 0x276599, size: 0x8, addend: 0x0, symName: '__ZNKSt3__110__function6__funcIZN8firebase9firestore6remote9Datastore5StartEvE3$_0NS_9allocatorIS6_EEFvvEE7__cloneEPNS0_6__baseIS9_EE', symObjAddr: 0x4518, symBinAddr: 0x2E5EC, symSize: 0x14 }
  - { offset: 0x2765C7, size: 0x8, addend: 0x0, symName: '__ZNKSt3__110__function6__funcIZN8firebase9firestore6remote9Datastore5StartEvE3$_0NS_9allocatorIS6_EEFvvEE7__cloneEPNS0_6__baseIS9_EE', symObjAddr: 0x4518, symBinAddr: 0x2E5EC, symSize: 0x14 }
  - { offset: 0x2765DC, size: 0x8, addend: 0x0, symName: '__ZNKSt3__110__function6__funcIZN8firebase9firestore6remote9Datastore5StartEvE3$_0NS_9allocatorIS6_EEFvvEE7__cloneEPNS0_6__baseIS9_EE', symObjAddr: 0x4518, symBinAddr: 0x2E5EC, symSize: 0x14 }
  - { offset: 0x2765F0, size: 0x8, addend: 0x0, symName: '__ZNSt3__110__function6__funcIZN8firebase9firestore6remote9Datastore5StartEvE3$_0NS_9allocatorIS6_EEFvvEE7destroyEv', symObjAddr: 0x452C, symBinAddr: 0x2E600, symSize: 0x4 }
  - { offset: 0x276640, size: 0x8, addend: 0x0, symName: '__ZNSt3__110__function6__funcIZN8firebase9firestore6remote9Datastore5StartEvE3$_0NS_9allocatorIS6_EEFvvEE18destroy_deallocateEv', symObjAddr: 0x4530, symBinAddr: 0x2E604, symSize: 0x4 }
  - { offset: 0x276672, size: 0x8, addend: 0x0, symName: '__ZNSt3__110__function6__funcIZN8firebase9firestore6remote9Datastore5StartEvE3$_0NS_9allocatorIS6_EEFvvEE18destroy_deallocateEv', symObjAddr: 0x4530, symBinAddr: 0x2E604, symSize: 0x4 }
  - { offset: 0x276695, size: 0x8, addend: 0x0, symName: '__ZNSt3__110__function6__funcIZN8firebase9firestore6remote9Datastore5StartEvE3$_0NS_9allocatorIS6_EEFvvEE18destroy_deallocateEv', symObjAddr: 0x4530, symBinAddr: 0x2E604, symSize: 0x4 }
  - { offset: 0x2766CA, size: 0x8, addend: 0x0, symName: '__ZNSt3__110__function6__funcIZN8firebase9firestore6remote9Datastore5StartEvE3$_0NS_9allocatorIS6_EEFvvEE18destroy_deallocateEv', symObjAddr: 0x4530, symBinAddr: 0x2E604, symSize: 0x4 }
  - { offset: 0x276743, size: 0x8, addend: 0x0, symName: '__ZNSt3__110__function6__funcIZN8firebase9firestore6remote9Datastore5StartEvE3$_0NS_9allocatorIS6_EEFvvEEclEv', symObjAddr: 0x4534, symBinAddr: 0x2E608, symSize: 0x8 }
  - { offset: 0x2767E5, size: 0x8, addend: 0x0, symName: '__ZNKSt3__110__function6__funcIZN8firebase9firestore6remote9Datastore5StartEvE3$_0NS_9allocatorIS6_EEFvvEE6targetERKSt9type_info', symObjAddr: 0x453C, symBinAddr: 0x2E610, symSize: 0x3C }
  - { offset: 0x276893, size: 0x8, addend: 0x0, symName: '__ZNKSt3__110__function6__funcIZN8firebase9firestore6remote9Datastore5StartEvE3$_0NS_9allocatorIS6_EEFvvEE11target_typeEv', symObjAddr: 0x4578, symBinAddr: 0x2E64C, symSize: 0xC }
  - { offset: 0x2768FA, size: 0x8, addend: 0x0, symName: '__ZNSt3__110__function6__funcIZN8firebase9firestore6remote9Datastore8ShutdownEvE3$_0NS_9allocatorIS6_EEFvvEED1Ev', symObjAddr: 0x45D0, symBinAddr: 0x2E658, symSize: 0x4 }
  - { offset: 0x276925, size: 0x8, addend: 0x0, symName: '__ZNSt3__110__function6__funcIZN8firebase9firestore6remote9Datastore8ShutdownEvE3$_0NS_9allocatorIS6_EEFvvEED0Ev', symObjAddr: 0x45D4, symBinAddr: 0x2E65C, symSize: 0x4 }
  - { offset: 0x2769D5, size: 0x8, addend: 0x0, symName: '__ZNKSt3__110__function6__funcIZN8firebase9firestore6remote9Datastore8ShutdownEvE3$_0NS_9allocatorIS6_EEFvvEE7__cloneEv', symObjAddr: 0x45D8, symBinAddr: 0x2E660, symSize: 0x24 }
  - { offset: 0x276B1F, size: 0x8, addend: 0x0, symName: '__ZNKSt3__110__function6__funcIZN8firebase9firestore6remote9Datastore8ShutdownEvE3$_0NS_9allocatorIS6_EEFvvEE7__cloneEPNS0_6__baseIS9_EE', symObjAddr: 0x45FC, symBinAddr: 0x2E684, symSize: 0x10 }
  - { offset: 0x276B52, size: 0x8, addend: 0x0, symName: '__ZNKSt3__110__function6__funcIZN8firebase9firestore6remote9Datastore8ShutdownEvE3$_0NS_9allocatorIS6_EEFvvEE7__cloneEPNS0_6__baseIS9_EE', symObjAddr: 0x45FC, symBinAddr: 0x2E684, symSize: 0x10 }
  - { offset: 0x276B6E, size: 0x8, addend: 0x0, symName: '__ZNKSt3__110__function6__funcIZN8firebase9firestore6remote9Datastore8ShutdownEvE3$_0NS_9allocatorIS6_EEFvvEE7__cloneEPNS0_6__baseIS9_EE', symObjAddr: 0x45FC, symBinAddr: 0x2E684, symSize: 0x10 }
  - { offset: 0x276B89, size: 0x8, addend: 0x0, symName: '__ZNSt3__110__function6__funcIZN8firebase9firestore6remote9Datastore8ShutdownEvE3$_0NS_9allocatorIS6_EEFvvEE7destroyEv', symObjAddr: 0x460C, symBinAddr: 0x2E694, symSize: 0x4 }
  - { offset: 0x276BD9, size: 0x8, addend: 0x0, symName: '__ZNSt3__110__function6__funcIZN8firebase9firestore6remote9Datastore8ShutdownEvE3$_0NS_9allocatorIS6_EEFvvEE18destroy_deallocateEv', symObjAddr: 0x4610, symBinAddr: 0x2E698, symSize: 0x4 }
  - { offset: 0x276C0B, size: 0x8, addend: 0x0, symName: '__ZNSt3__110__function6__funcIZN8firebase9firestore6remote9Datastore8ShutdownEvE3$_0NS_9allocatorIS6_EEFvvEE18destroy_deallocateEv', symObjAddr: 0x4610, symBinAddr: 0x2E698, symSize: 0x4 }
  - { offset: 0x276C2E, size: 0x8, addend: 0x0, symName: '__ZNSt3__110__function6__funcIZN8firebase9firestore6remote9Datastore8ShutdownEvE3$_0NS_9allocatorIS6_EEFvvEE18destroy_deallocateEv', symObjAddr: 0x4610, symBinAddr: 0x2E698, symSize: 0x4 }
  - { offset: 0x276C63, size: 0x8, addend: 0x0, symName: '__ZNSt3__110__function6__funcIZN8firebase9firestore6remote9Datastore8ShutdownEvE3$_0NS_9allocatorIS6_EEFvvEE18destroy_deallocateEv', symObjAddr: 0x4610, symBinAddr: 0x2E698, symSize: 0x4 }
  - { offset: 0x276C8B, size: 0x8, addend: 0x0, symName: '__ZNSt3__110__function6__funcIZN8firebase9firestore6remote9Datastore8ShutdownEvE3$_0NS_9allocatorIS6_EEFvvEEclEv', symObjAddr: 0x4614, symBinAddr: 0x2E69C, symSize: 0x4 }
  - { offset: 0x276CAC, size: 0x8, addend: 0x0, symName: '__ZNKSt3__110__function6__funcIZN8firebase9firestore6remote9Datastore8ShutdownEvE3$_0NS_9allocatorIS6_EEFvvEE6targetERKSt9type_info', symObjAddr: 0x4618, symBinAddr: 0x2E6A0, symSize: 0x3C }
  - { offset: 0x276CF6, size: 0x8, addend: 0x0, symName: '__ZNKSt3__110__function6__funcIZN8firebase9firestore6remote9Datastore8ShutdownEvE3$_0NS_9allocatorIS6_EEFvvEE11target_typeEv', symObjAddr: 0x4654, symBinAddr: 0x2E6DC, symSize: 0xC }
  - { offset: 0x276FAE, size: 0x8, addend: 0x0, symName: __ZNSt3__120__shared_ptr_emplaceIN8firebase9firestore6remote11WatchStreamENS_9allocatorIS4_EEEC2B8ne200100IJRNS_10shared_ptrINS2_4util10AsyncQueueEEERNS9_INS2_11credentials19CredentialsProviderINSE_9AuthTokenENSE_4UserEEEEERNS9_INSF_INS_12basic_stringIcNS_11char_traitsIcEENS5_IcEEEESP_EEEERKNS3_10SerializerEPNS3_14GrpcConnectionERPNS3_19WatchStreamCallbackEES6_Li0EEES6_DpOT_, symObjAddr: 0x46F8, symBinAddr: 0x2E780, symSize: 0x74 }
  - { offset: 0x27724D, size: 0x8, addend: 0x0, symName: __ZNSt3__19allocatorIN8firebase9firestore6remote11WatchStreamEE9constructB8ne200100IS4_JRNS_10shared_ptrINS2_4util10AsyncQueueEEERNS7_INS2_11credentials19CredentialsProviderINSC_9AuthTokenENSC_4UserEEEEERNS7_INSD_INS_12basic_stringIcNS_11char_traitsIcEENS0_IcEEEESN_EEEERKNS3_10SerializerEPNS3_14GrpcConnectionERPNS3_19WatchStreamCallbackEEEEvPT_DpOT0_, symObjAddr: 0x47B4, symBinAddr: 0x2E83C, symSize: 0x170 }
  - { offset: 0x2778F7, size: 0x8, addend: 0x0, symName: __ZNSt3__120__shared_ptr_emplaceIN8firebase9firestore6remote11WatchStreamENS_9allocatorIS4_EEED1Ev, symObjAddr: 0x476C, symBinAddr: 0x2E7F4, symSize: 0x14 }
  - { offset: 0x277919, size: 0x8, addend: 0x0, symName: __ZNSt3__120__shared_ptr_emplaceIN8firebase9firestore6remote11WatchStreamENS_9allocatorIS4_EEED1Ev, symObjAddr: 0x476C, symBinAddr: 0x2E7F4, symSize: 0x14 }
  - { offset: 0x27794E, size: 0x8, addend: 0x0, symName: __ZNSt3__120__shared_ptr_emplaceIN8firebase9firestore6remote11WatchStreamENS_9allocatorIS4_EEED0Ev, symObjAddr: 0x4780, symBinAddr: 0x2E808, symSize: 0x24 }
  - { offset: 0x277A37, size: 0x8, addend: 0x0, symName: __ZNSt3__120__shared_ptr_emplaceIN8firebase9firestore6remote11WatchStreamENS_9allocatorIS4_EEE16__on_zero_sharedEv, symObjAddr: 0x47A4, symBinAddr: 0x2E82C, symSize: 0xC }
  - { offset: 0x277A5F, size: 0x8, addend: 0x0, symName: __ZNSt3__120__shared_ptr_emplaceIN8firebase9firestore6remote11WatchStreamENS_9allocatorIS4_EEE16__on_zero_sharedEv, symObjAddr: 0x47A4, symBinAddr: 0x2E82C, symSize: 0xC }
  - { offset: 0x277A7C, size: 0x8, addend: 0x0, symName: __ZNSt3__120__shared_ptr_emplaceIN8firebase9firestore6remote11WatchStreamENS_9allocatorIS4_EEE16__on_zero_sharedEv, symObjAddr: 0x47A4, symBinAddr: 0x2E82C, symSize: 0xC }
  - { offset: 0x277A99, size: 0x8, addend: 0x0, symName: __ZNSt3__120__shared_ptr_emplaceIN8firebase9firestore6remote11WatchStreamENS_9allocatorIS4_EEE16__on_zero_sharedEv, symObjAddr: 0x47A4, symBinAddr: 0x2E82C, symSize: 0xC }
  - { offset: 0x277AC3, size: 0x8, addend: 0x0, symName: __ZNSt3__120__shared_ptr_emplaceIN8firebase9firestore6remote11WatchStreamENS_9allocatorIS4_EEE21__on_zero_shared_weakEv, symObjAddr: 0x47B0, symBinAddr: 0x2E838, symSize: 0x4 }
  - { offset: 0x277AF4, size: 0x8, addend: 0x0, symName: __ZNSt3__120__shared_ptr_emplaceIN8firebase9firestore6remote11WatchStreamENS_9allocatorIS4_EEE21__on_zero_shared_weakEv, symObjAddr: 0x47B0, symBinAddr: 0x2E838, symSize: 0x4 }
  - { offset: 0x277B16, size: 0x8, addend: 0x0, symName: __ZNSt3__120__shared_ptr_emplaceIN8firebase9firestore6remote11WatchStreamENS_9allocatorIS4_EEE21__on_zero_shared_weakEv, symObjAddr: 0x47B0, symBinAddr: 0x2E838, symSize: 0x4 }
  - { offset: 0x277B39, size: 0x8, addend: 0x0, symName: __ZNSt3__120__shared_ptr_emplaceIN8firebase9firestore6remote11WatchStreamENS_9allocatorIS4_EEE21__on_zero_shared_weakEv, symObjAddr: 0x47B0, symBinAddr: 0x2E838, symSize: 0x4 }
  - { offset: 0x277B70, size: 0x8, addend: 0x0, symName: __ZNSt3__120__shared_ptr_emplaceIN8firebase9firestore6remote11WatchStreamENS_9allocatorIS4_EEE21__on_zero_shared_weakEv, symObjAddr: 0x47B0, symBinAddr: 0x2E838, symSize: 0x4 }
  - { offset: 0x278155, size: 0x8, addend: 0x0, symName: __ZNSt3__120__shared_ptr_emplaceIN8firebase9firestore6remote11WriteStreamENS_9allocatorIS4_EEEC2B8ne200100IJRNS_10shared_ptrINS2_4util10AsyncQueueEEERNS9_INS2_11credentials19CredentialsProviderINSE_9AuthTokenENSE_4UserEEEEERNS9_INSF_INS_12basic_stringIcNS_11char_traitsIcEENS5_IcEEEESP_EEEERKNS3_10SerializerEPNS3_14GrpcConnectionERPNS3_19WriteStreamCallbackEES6_Li0EEES6_DpOT_, symObjAddr: 0x4A6C, symBinAddr: 0x2EA44, symSize: 0x74 }
  - { offset: 0x2783AC, size: 0x8, addend: 0x0, symName: __ZNSt3__19allocatorIN8firebase9firestore6remote11WriteStreamEE9constructB8ne200100IS4_JRNS_10shared_ptrINS2_4util10AsyncQueueEEERNS7_INS2_11credentials19CredentialsProviderINSC_9AuthTokenENSC_4UserEEEEERNS7_INSD_INS_12basic_stringIcNS_11char_traitsIcEENS0_IcEEEESN_EEEERKNS3_10SerializerEPNS3_14GrpcConnectionERPNS3_19WriteStreamCallbackEEEEvPT_DpOT0_, symObjAddr: 0x4B28, symBinAddr: 0x2EB00, symSize: 0x170 }
  - { offset: 0x278A56, size: 0x8, addend: 0x0, symName: __ZNSt3__120__shared_ptr_emplaceIN8firebase9firestore6remote11WriteStreamENS_9allocatorIS4_EEED1Ev, symObjAddr: 0x4AE0, symBinAddr: 0x2EAB8, symSize: 0x14 }
  - { offset: 0x278A78, size: 0x8, addend: 0x0, symName: __ZNSt3__120__shared_ptr_emplaceIN8firebase9firestore6remote11WriteStreamENS_9allocatorIS4_EEED1Ev, symObjAddr: 0x4AE0, symBinAddr: 0x2EAB8, symSize: 0x14 }
  - { offset: 0x278AAD, size: 0x8, addend: 0x0, symName: __ZNSt3__120__shared_ptr_emplaceIN8firebase9firestore6remote11WriteStreamENS_9allocatorIS4_EEED0Ev, symObjAddr: 0x4AF4, symBinAddr: 0x2EACC, symSize: 0x24 }
  - { offset: 0x278B96, size: 0x8, addend: 0x0, symName: __ZNSt3__120__shared_ptr_emplaceIN8firebase9firestore6remote11WriteStreamENS_9allocatorIS4_EEE16__on_zero_sharedEv, symObjAddr: 0x4B18, symBinAddr: 0x2EAF0, symSize: 0xC }
  - { offset: 0x278BBE, size: 0x8, addend: 0x0, symName: __ZNSt3__120__shared_ptr_emplaceIN8firebase9firestore6remote11WriteStreamENS_9allocatorIS4_EEE16__on_zero_sharedEv, symObjAddr: 0x4B18, symBinAddr: 0x2EAF0, symSize: 0xC }
  - { offset: 0x278BDB, size: 0x8, addend: 0x0, symName: __ZNSt3__120__shared_ptr_emplaceIN8firebase9firestore6remote11WriteStreamENS_9allocatorIS4_EEE16__on_zero_sharedEv, symObjAddr: 0x4B18, symBinAddr: 0x2EAF0, symSize: 0xC }
  - { offset: 0x278BF8, size: 0x8, addend: 0x0, symName: __ZNSt3__120__shared_ptr_emplaceIN8firebase9firestore6remote11WriteStreamENS_9allocatorIS4_EEE16__on_zero_sharedEv, symObjAddr: 0x4B18, symBinAddr: 0x2EAF0, symSize: 0xC }
  - { offset: 0x278C22, size: 0x8, addend: 0x0, symName: __ZNSt3__120__shared_ptr_emplaceIN8firebase9firestore6remote11WriteStreamENS_9allocatorIS4_EEE21__on_zero_shared_weakEv, symObjAddr: 0x4B24, symBinAddr: 0x2EAFC, symSize: 0x4 }
  - { offset: 0x278C53, size: 0x8, addend: 0x0, symName: __ZNSt3__120__shared_ptr_emplaceIN8firebase9firestore6remote11WriteStreamENS_9allocatorIS4_EEE21__on_zero_shared_weakEv, symObjAddr: 0x4B24, symBinAddr: 0x2EAFC, symSize: 0x4 }
  - { offset: 0x278C75, size: 0x8, addend: 0x0, symName: __ZNSt3__120__shared_ptr_emplaceIN8firebase9firestore6remote11WriteStreamENS_9allocatorIS4_EEE21__on_zero_shared_weakEv, symObjAddr: 0x4B24, symBinAddr: 0x2EAFC, symSize: 0x4 }
  - { offset: 0x278C98, size: 0x8, addend: 0x0, symName: __ZNSt3__120__shared_ptr_emplaceIN8firebase9firestore6remote11WriteStreamENS_9allocatorIS4_EEE21__on_zero_shared_weakEv, symObjAddr: 0x4B24, symBinAddr: 0x2EAFC, symSize: 0x4 }
  - { offset: 0x278CCF, size: 0x8, addend: 0x0, symName: __ZNSt3__120__shared_ptr_emplaceIN8firebase9firestore6remote11WriteStreamENS_9allocatorIS4_EEE21__on_zero_shared_weakEv, symObjAddr: 0x4B24, symBinAddr: 0x2EAFC, symSize: 0x4 }
  - { offset: 0x279291, size: 0x8, addend: 0x0, symName: '__ZNSt3__110__function6__funcIZN8firebase9firestore6remote9Datastore15CommitMutationsERKNS_6vectorINS3_5model8MutationENS_9allocatorIS8_EEEEONS_8functionIFvRKNS3_4util6StatusEEEEE3$_0NS9_ISM_EEFvRKNSF_8StatusOrINS3_11credentials9AuthTokenEEERKNS_12basic_stringIcNS_11char_traitsIcEENS9_IcEEEEEED1Ev', symObjAddr: 0x4F8C, symBinAddr: 0x2ED08, symSize: 0x70 }
  - { offset: 0x279484, size: 0x8, addend: 0x0, symName: '__ZNSt3__110__function6__funcIZN8firebase9firestore6remote9Datastore15CommitMutationsERKNS_6vectorINS3_5model8MutationENS_9allocatorIS8_EEEEONS_8functionIFvRKNS3_4util6StatusEEEEE3$_0NS9_ISM_EEFvRKNSF_8StatusOrINS3_11credentials9AuthTokenEEERKNS_12basic_stringIcNS_11char_traitsIcEENS9_IcEEEEEED0Ev', symObjAddr: 0x4FFC, symBinAddr: 0x2ED78, symSize: 0x74 }
  - { offset: 0x27980D, size: 0x8, addend: 0x0, symName: '__ZNKSt3__110__function6__funcIZN8firebase9firestore6remote9Datastore15CommitMutationsERKNS_6vectorINS3_5model8MutationENS_9allocatorIS8_EEEEONS_8functionIFvRKNS3_4util6StatusEEEEE3$_0NS9_ISM_EEFvRKNSF_8StatusOrINS3_11credentials9AuthTokenEEERKNS_12basic_stringIcNS_11char_traitsIcEENS9_IcEEEEEE7__cloneEv', symObjAddr: 0x5070, symBinAddr: 0x2EDEC, symSize: 0xA0 }
  - { offset: 0x279C8F, size: 0x8, addend: 0x0, symName: '__ZNKSt3__110__function6__funcIZN8firebase9firestore6remote9Datastore15CommitMutationsERKNS_6vectorINS3_5model8MutationENS_9allocatorIS8_EEEEONS_8functionIFvRKNS3_4util6StatusEEEEE3$_0NS9_ISM_EEFvRKNSF_8StatusOrINS3_11credentials9AuthTokenEEERKNS_12basic_stringIcNS_11char_traitsIcEENS9_IcEEEEEE7__cloneEPNS0_6__baseIS11_EE', symObjAddr: 0x5110, symBinAddr: 0x2EE8C, symSize: 0x84 }
  - { offset: 0x279F1D, size: 0x8, addend: 0x0, symName: '__ZNSt3__110__function6__funcIZN8firebase9firestore6remote9Datastore15CommitMutationsERKNS_6vectorINS3_5model8MutationENS_9allocatorIS8_EEEEONS_8functionIFvRKNS3_4util6StatusEEEEE3$_0NS9_ISM_EEFvRKNSF_8StatusOrINS3_11credentials9AuthTokenEEERKNS_12basic_stringIcNS_11char_traitsIcEENS9_IcEEEEEE7destroyEv', symObjAddr: 0x5194, symBinAddr: 0x2EF10, symSize: 0x8 }
  - { offset: 0x279F4F, size: 0x8, addend: 0x0, symName: '__ZNSt3__110__function12__alloc_funcIZN8firebase9firestore6remote9Datastore15CommitMutationsERKNS_6vectorINS3_5model8MutationENS_9allocatorIS8_EEEEONS_8functionIFvRKNS3_4util6StatusEEEEE3$_0NS9_ISM_EEFvRKNSF_8StatusOrINS3_11credentials9AuthTokenEEERKNS_12basic_stringIcNS_11char_traitsIcEENS9_IcEEEEEE7destroyB8ne200100Ev', symObjAddr: 0x52B0, symBinAddr: 0x2F02C, symSize: 0x60 }
  - { offset: 0x27A0CB, size: 0x8, addend: 0x0, symName: '__ZNSt3__110__function6__funcIZN8firebase9firestore6remote9Datastore15CommitMutationsERKNS_6vectorINS3_5model8MutationENS_9allocatorIS8_EEEEONS_8functionIFvRKNS3_4util6StatusEEEEE3$_0NS9_ISM_EEFvRKNSF_8StatusOrINS3_11credentials9AuthTokenEEERKNS_12basic_stringIcNS_11char_traitsIcEENS9_IcEEEEEE18destroy_deallocateEv', symObjAddr: 0x519C, symBinAddr: 0x2EF18, symSize: 0x28 }
  - { offset: 0x27A2A7, size: 0x8, addend: 0x0, symName: '__ZNSt3__110__function6__funcIZN8firebase9firestore6remote9Datastore15CommitMutationsERKNS_6vectorINS3_5model8MutationENS_9allocatorIS8_EEEEONS_8functionIFvRKNS3_4util6StatusEEEEE3$_0NS9_ISM_EEFvRKNSF_8StatusOrINS3_11credentials9AuthTokenEEERKNS_12basic_stringIcNS_11char_traitsIcEENS9_IcEEEEEEclEST_S10_', symObjAddr: 0x51C4, symBinAddr: 0x2EF40, symSize: 0x40 }
  - { offset: 0x27A2EF, size: 0x8, addend: 0x0, symName: '__ZNSt3__110__function6__funcIZN8firebase9firestore6remote9Datastore15CommitMutationsERKNS_6vectorINS3_5model8MutationENS_9allocatorIS8_EEEEONS_8functionIFvRKNS3_4util6StatusEEEEE3$_0NS9_ISM_EEFvRKNSF_8StatusOrINS3_11credentials9AuthTokenEEERKNS_12basic_stringIcNS_11char_traitsIcEENS9_IcEEEEEEclEST_S10_', symObjAddr: 0x51C4, symBinAddr: 0x2EF40, symSize: 0x40 }
  - { offset: 0x27A31F, size: 0x8, addend: 0x0, symName: '__ZNSt3__110__function6__funcIZN8firebase9firestore6remote9Datastore15CommitMutationsERKNS_6vectorINS3_5model8MutationENS_9allocatorIS8_EEEEONS_8functionIFvRKNS3_4util6StatusEEEEE3$_0NS9_ISM_EEFvRKNSF_8StatusOrINS3_11credentials9AuthTokenEEERKNS_12basic_stringIcNS_11char_traitsIcEENS9_IcEEEEEEclEST_S10_', symObjAddr: 0x51C4, symBinAddr: 0x2EF40, symSize: 0x40 }
  - { offset: 0x27A34F, size: 0x8, addend: 0x0, symName: '__ZNSt3__110__function6__funcIZN8firebase9firestore6remote9Datastore15CommitMutationsERKNS_6vectorINS3_5model8MutationENS_9allocatorIS8_EEEEONS_8functionIFvRKNS3_4util6StatusEEEEE3$_0NS9_ISM_EEFvRKNSF_8StatusOrINS3_11credentials9AuthTokenEEERKNS_12basic_stringIcNS_11char_traitsIcEENS9_IcEEEEEEclEST_S10_', symObjAddr: 0x51C4, symBinAddr: 0x2EF40, symSize: 0x40 }
  - { offset: 0x27A381, size: 0x8, addend: 0x0, symName: '__ZNSt3__110__function6__funcIZN8firebase9firestore6remote9Datastore15CommitMutationsERKNS_6vectorINS3_5model8MutationENS_9allocatorIS8_EEEEONS_8functionIFvRKNS3_4util6StatusEEEEE3$_0NS9_ISM_EEFvRKNSF_8StatusOrINS3_11credentials9AuthTokenEEERKNS_12basic_stringIcNS_11char_traitsIcEENS9_IcEEEEEEclEST_S10_', symObjAddr: 0x51C4, symBinAddr: 0x2EF40, symSize: 0x40 }
  - { offset: 0x27A3B2, size: 0x8, addend: 0x0, symName: '__ZNSt3__110__function6__funcIZN8firebase9firestore6remote9Datastore15CommitMutationsERKNS_6vectorINS3_5model8MutationENS_9allocatorIS8_EEEEONS_8functionIFvRKNS3_4util6StatusEEEEE3$_0NS9_ISM_EEFvRKNSF_8StatusOrINS3_11credentials9AuthTokenEEERKNS_12basic_stringIcNS_11char_traitsIcEENS9_IcEEEEEEclEST_S10_', symObjAddr: 0x51C4, symBinAddr: 0x2EF40, symSize: 0x40 }
  - { offset: 0x27A3E2, size: 0x8, addend: 0x0, symName: '__ZNSt3__110__function6__funcIZN8firebase9firestore6remote9Datastore15CommitMutationsERKNS_6vectorINS3_5model8MutationENS_9allocatorIS8_EEEEONS_8functionIFvRKNS3_4util6StatusEEEEE3$_0NS9_ISM_EEFvRKNSF_8StatusOrINS3_11credentials9AuthTokenEEERKNS_12basic_stringIcNS_11char_traitsIcEENS9_IcEEEEEEclEST_S10_', symObjAddr: 0x51C4, symBinAddr: 0x2EF40, symSize: 0x40 }
  - { offset: 0x27A3FD, size: 0x8, addend: 0x0, symName: '__ZNSt3__110__function6__funcIZN8firebase9firestore6remote9Datastore15CommitMutationsERKNS_6vectorINS3_5model8MutationENS_9allocatorIS8_EEEEONS_8functionIFvRKNS3_4util6StatusEEEEE3$_0NS9_ISM_EEFvRKNSF_8StatusOrINS3_11credentials9AuthTokenEEERKNS_12basic_stringIcNS_11char_traitsIcEENS9_IcEEEEEEclEST_S10_', symObjAddr: 0x51C4, symBinAddr: 0x2EF40, symSize: 0x40 }
  - { offset: 0x27A418, size: 0x8, addend: 0x0, symName: '__ZNSt3__110__function6__funcIZN8firebase9firestore6remote9Datastore15CommitMutationsERKNS_6vectorINS3_5model8MutationENS_9allocatorIS8_EEEEONS_8functionIFvRKNS3_4util6StatusEEEEE3$_0NS9_ISM_EEFvRKNSF_8StatusOrINS3_11credentials9AuthTokenEEERKNS_12basic_stringIcNS_11char_traitsIcEENS9_IcEEEEEEclEST_S10_', symObjAddr: 0x51C4, symBinAddr: 0x2EF40, symSize: 0x40 }
  - { offset: 0x27A43A, size: 0x8, addend: 0x0, symName: '__ZNSt3__110__function6__funcIZN8firebase9firestore6remote9Datastore15CommitMutationsERKNS_6vectorINS3_5model8MutationENS_9allocatorIS8_EEEEONS_8functionIFvRKNS3_4util6StatusEEEEE3$_0NS9_ISM_EEFvRKNSF_8StatusOrINS3_11credentials9AuthTokenEEERKNS_12basic_stringIcNS_11char_traitsIcEENS9_IcEEEEEEclEST_S10_', symObjAddr: 0x51C4, symBinAddr: 0x2EF40, symSize: 0x40 }
  - { offset: 0x27A4D4, size: 0x8, addend: 0x0, symName: '__ZNKSt3__110__function6__funcIZN8firebase9firestore6remote9Datastore15CommitMutationsERKNS_6vectorINS3_5model8MutationENS_9allocatorIS8_EEEEONS_8functionIFvRKNS3_4util6StatusEEEEE3$_0NS9_ISM_EEFvRKNSF_8StatusOrINS3_11credentials9AuthTokenEEERKNS_12basic_stringIcNS_11char_traitsIcEENS9_IcEEEEEE6targetERKSt9type_info', symObjAddr: 0x5204, symBinAddr: 0x2EF80, symSize: 0x3C }
  - { offset: 0x27A4DE, size: 0x8, addend: 0x0, symName: '__ZNKSt3__110__function6__funcIZN8firebase9firestore6remote9Datastore15CommitMutationsERKNS_6vectorINS3_5model8MutationENS_9allocatorIS8_EEEEONS_8functionIFvRKNS3_4util6StatusEEEEE3$_0NS9_ISM_EEFvRKNSF_8StatusOrINS3_11credentials9AuthTokenEEERKNS_12basic_stringIcNS_11char_traitsIcEENS9_IcEEEEEE6targetERKSt9type_info', symObjAddr: 0x5204, symBinAddr: 0x2EF80, symSize: 0x3C }
  - { offset: 0x27A528, size: 0x8, addend: 0x0, symName: '__ZNKSt3__110__function6__funcIZN8firebase9firestore6remote9Datastore15CommitMutationsERKNS_6vectorINS3_5model8MutationENS_9allocatorIS8_EEEEONS_8functionIFvRKNS3_4util6StatusEEEEE3$_0NS9_ISM_EEFvRKNSF_8StatusOrINS3_11credentials9AuthTokenEEERKNS_12basic_stringIcNS_11char_traitsIcEENS9_IcEEEEEE11target_typeEv', symObjAddr: 0x5240, symBinAddr: 0x2EFBC, symSize: 0xC }
  - { offset: 0x27A6C0, size: 0x8, addend: 0x0, symName: __ZN4grpc5SliceD2Ev, symObjAddr: 0x540C, symBinAddr: 0x2F13C, symSize: 0x70 }
  - { offset: 0x27A7DA, size: 0x8, addend: 0x0, symName: '__ZNSt3__110__function6__funcIZN8firebase9firestore6remote9Datastore30CommitMutationsWithCredentialsERKNS3_11credentials9AuthTokenERKNS_12basic_stringIcNS_11char_traitsIcEENS_9allocatorIcEEEERKNS_6vectorINS3_5model8MutationENSD_ISK_EEEEONS_8functionIFvRKNS3_4util6StatusEEEEE3$_0NSD_ISX_EEFvRKNSQ_8StatusOrIN4grpc10ByteBufferEEEEED1Ev', symObjAddr: 0x5520, symBinAddr: 0x2F208, symSize: 0x58 }
  - { offset: 0x27A935, size: 0x8, addend: 0x0, symName: '__ZNSt3__110__function6__funcIZN8firebase9firestore6remote9Datastore30CommitMutationsWithCredentialsERKNS3_11credentials9AuthTokenERKNS_12basic_stringIcNS_11char_traitsIcEENS_9allocatorIcEEEERKNS_6vectorINS3_5model8MutationENSD_ISK_EEEEONS_8functionIFvRKNS3_4util6StatusEEEEE3$_0NSD_ISX_EEFvRKNSQ_8StatusOrIN4grpc10ByteBufferEEEEED0Ev', symObjAddr: 0x5578, symBinAddr: 0x2F260, symSize: 0x58 }
  - { offset: 0x27ACA6, size: 0x8, addend: 0x0, symName: '__ZNKSt3__110__function6__funcIZN8firebase9firestore6remote9Datastore30CommitMutationsWithCredentialsERKNS3_11credentials9AuthTokenERKNS_12basic_stringIcNS_11char_traitsIcEENS_9allocatorIcEEEERKNS_6vectorINS3_5model8MutationENSD_ISK_EEEEONS_8functionIFvRKNS3_4util6StatusEEEEE3$_0NSD_ISX_EEFvRKNSQ_8StatusOrIN4grpc10ByteBufferEEEEE7__cloneEv', symObjAddr: 0x55D0, symBinAddr: 0x2F2B8, symSize: 0x60 }
  - { offset: 0x27B040, size: 0x8, addend: 0x0, symName: '__ZNKSt3__110__function6__funcIZN8firebase9firestore6remote9Datastore30CommitMutationsWithCredentialsERKNS3_11credentials9AuthTokenERKNS_12basic_stringIcNS_11char_traitsIcEENS_9allocatorIcEEEERKNS_6vectorINS3_5model8MutationENSD_ISK_EEEEONS_8functionIFvRKNS3_4util6StatusEEEEE3$_0NSD_ISX_EEFvRKNSQ_8StatusOrIN4grpc10ByteBufferEEEEE7__cloneEPNS0_6__baseIS15_EE', symObjAddr: 0x5630, symBinAddr: 0x2F318, symSize: 0x24 }
  - { offset: 0x27B1E8, size: 0x8, addend: 0x0, symName: '__ZNSt3__110__function6__funcIZN8firebase9firestore6remote9Datastore30CommitMutationsWithCredentialsERKNS3_11credentials9AuthTokenERKNS_12basic_stringIcNS_11char_traitsIcEENS_9allocatorIcEEEERKNS_6vectorINS3_5model8MutationENSD_ISK_EEEEONS_8functionIFvRKNS3_4util6StatusEEEEE3$_0NSD_ISX_EEFvRKNSQ_8StatusOrIN4grpc10ByteBufferEEEEE7destroyEv', symObjAddr: 0x5654, symBinAddr: 0x2F33C, symSize: 0x30 }
  - { offset: 0x27B210, size: 0x8, addend: 0x0, symName: '__ZNSt3__110__function6__funcIZN8firebase9firestore6remote9Datastore30CommitMutationsWithCredentialsERKNS3_11credentials9AuthTokenERKNS_12basic_stringIcNS_11char_traitsIcEENS_9allocatorIcEEEERKNS_6vectorINS3_5model8MutationENSD_ISK_EEEEONS_8functionIFvRKNS3_4util6StatusEEEEE3$_0NSD_ISX_EEFvRKNSQ_8StatusOrIN4grpc10ByteBufferEEEEE7destroyEv', symObjAddr: 0x5654, symBinAddr: 0x2F33C, symSize: 0x30 }
  - { offset: 0x27B22E, size: 0x8, addend: 0x0, symName: '__ZNSt3__110__function6__funcIZN8firebase9firestore6remote9Datastore30CommitMutationsWithCredentialsERKNS3_11credentials9AuthTokenERKNS_12basic_stringIcNS_11char_traitsIcEENS_9allocatorIcEEEERKNS_6vectorINS3_5model8MutationENSD_ISK_EEEEONS_8functionIFvRKNS3_4util6StatusEEEEE3$_0NSD_ISX_EEFvRKNSQ_8StatusOrIN4grpc10ByteBufferEEEEE7destroyEv', symObjAddr: 0x5654, symBinAddr: 0x2F33C, symSize: 0x30 }
  - { offset: 0x27B24B, size: 0x8, addend: 0x0, symName: '__ZNSt3__110__function6__funcIZN8firebase9firestore6remote9Datastore30CommitMutationsWithCredentialsERKNS3_11credentials9AuthTokenERKNS_12basic_stringIcNS_11char_traitsIcEENS_9allocatorIcEEEERKNS_6vectorINS3_5model8MutationENSD_ISK_EEEEONS_8functionIFvRKNS3_4util6StatusEEEEE3$_0NSD_ISX_EEFvRKNSQ_8StatusOrIN4grpc10ByteBufferEEEEE7destroyEv', symObjAddr: 0x5654, symBinAddr: 0x2F33C, symSize: 0x30 }
  - { offset: 0x27B2EF, size: 0x8, addend: 0x0, symName: '__ZNSt3__110__function6__funcIZN8firebase9firestore6remote9Datastore30CommitMutationsWithCredentialsERKNS3_11credentials9AuthTokenERKNS_12basic_stringIcNS_11char_traitsIcEENS_9allocatorIcEEEERKNS_6vectorINS3_5model8MutationENSD_ISK_EEEEONS_8functionIFvRKNS3_4util6StatusEEEEE3$_0NSD_ISX_EEFvRKNSQ_8StatusOrIN4grpc10ByteBufferEEEEE18destroy_deallocateEv', symObjAddr: 0x5684, symBinAddr: 0x2F36C, symSize: 0x4C }
  - { offset: 0x27B529, size: 0x8, addend: 0x0, symName: '__ZNSt3__110__function6__funcIZN8firebase9firestore6remote9Datastore30CommitMutationsWithCredentialsERKNS3_11credentials9AuthTokenERKNS_12basic_stringIcNS_11char_traitsIcEENS_9allocatorIcEEEERKNS_6vectorINS3_5model8MutationENSD_ISK_EEEEONS_8functionIFvRKNS3_4util6StatusEEEEE3$_0NSD_ISX_EEFvRKNSQ_8StatusOrIN4grpc10ByteBufferEEEEEclES14_', symObjAddr: 0x56D0, symBinAddr: 0x2F3B8, symSize: 0x9C }
  - { offset: 0x27B791, size: 0x8, addend: 0x0, symName: '__ZNKSt3__110__function6__funcIZN8firebase9firestore6remote9Datastore30CommitMutationsWithCredentialsERKNS3_11credentials9AuthTokenERKNS_12basic_stringIcNS_11char_traitsIcEENS_9allocatorIcEEEERKNS_6vectorINS3_5model8MutationENSD_ISK_EEEEONS_8functionIFvRKNS3_4util6StatusEEEEE3$_0NSD_ISX_EEFvRKNSQ_8StatusOrIN4grpc10ByteBufferEEEEE6targetERKSt9type_info', symObjAddr: 0x576C, symBinAddr: 0x2F454, symSize: 0x3C }
  - { offset: 0x27B79B, size: 0x8, addend: 0x0, symName: '__ZNKSt3__110__function6__funcIZN8firebase9firestore6remote9Datastore30CommitMutationsWithCredentialsERKNS3_11credentials9AuthTokenERKNS_12basic_stringIcNS_11char_traitsIcEENS_9allocatorIcEEEERKNS_6vectorINS3_5model8MutationENSD_ISK_EEEEONS_8functionIFvRKNS3_4util6StatusEEEEE3$_0NSD_ISX_EEFvRKNSQ_8StatusOrIN4grpc10ByteBufferEEEEE6targetERKSt9type_info', symObjAddr: 0x576C, symBinAddr: 0x2F454, symSize: 0x3C }
  - { offset: 0x27B7E5, size: 0x8, addend: 0x0, symName: '__ZNKSt3__110__function6__funcIZN8firebase9firestore6remote9Datastore30CommitMutationsWithCredentialsERKNS3_11credentials9AuthTokenERKNS_12basic_stringIcNS_11char_traitsIcEENS_9allocatorIcEEEERKNS_6vectorINS3_5model8MutationENSD_ISK_EEEEONS_8functionIFvRKNS3_4util6StatusEEEEE3$_0NSD_ISX_EEFvRKNSQ_8StatusOrIN4grpc10ByteBufferEEEEE11target_typeEv', symObjAddr: 0x57A8, symBinAddr: 0x2F490, symSize: 0xC }
  - { offset: 0x27BA42, size: 0x8, addend: 0x0, symName: __ZNSt3__16__treeINS_12__value_typeIN4grpc10string_refES3_EENS_19__map_value_compareIS3_S4_NS_4lessIS3_EELb1EEENS_9allocatorIS4_EEE7destroyEPNS_11__tree_nodeIS4_PvEE, symObjAddr: 0x5AA0, symBinAddr: 0x2F724, symSize: 0x40 }
  - { offset: 0x27C112, size: 0x8, addend: 0x0, symName: '__ZNSt3__110__function6__funcIZN8firebase9firestore6remote9Datastore15LookupDocumentsERKNS_6vectorINS3_5model11DocumentKeyENS_9allocatorIS8_EEEEONS_8functionIFvRKNS3_4util8StatusOrINS6_INS7_8DocumentENS9_ISH_EEEEEEEEEE3$_0NS9_ISQ_EEFvRKNSG_INS3_11credentials9AuthTokenEEERKNS_12basic_stringIcNS_11char_traitsIcEENS9_IcEEEEEED1Ev', symObjAddr: 0x5D24, symBinAddr: 0x2F7FC, symSize: 0x70 }
  - { offset: 0x27C305, size: 0x8, addend: 0x0, symName: '__ZNSt3__110__function6__funcIZN8firebase9firestore6remote9Datastore15LookupDocumentsERKNS_6vectorINS3_5model11DocumentKeyENS_9allocatorIS8_EEEEONS_8functionIFvRKNS3_4util8StatusOrINS6_INS7_8DocumentENS9_ISH_EEEEEEEEEE3$_0NS9_ISQ_EEFvRKNSG_INS3_11credentials9AuthTokenEEERKNS_12basic_stringIcNS_11char_traitsIcEENS9_IcEEEEEED0Ev', symObjAddr: 0x5D94, symBinAddr: 0x2F86C, symSize: 0x74 }
  - { offset: 0x27C68E, size: 0x8, addend: 0x0, symName: '__ZNKSt3__110__function6__funcIZN8firebase9firestore6remote9Datastore15LookupDocumentsERKNS_6vectorINS3_5model11DocumentKeyENS_9allocatorIS8_EEEEONS_8functionIFvRKNS3_4util8StatusOrINS6_INS7_8DocumentENS9_ISH_EEEEEEEEEE3$_0NS9_ISQ_EEFvRKNSG_INS3_11credentials9AuthTokenEEERKNS_12basic_stringIcNS_11char_traitsIcEENS9_IcEEEEEE7__cloneEv', symObjAddr: 0x5E08, symBinAddr: 0x2F8E0, symSize: 0xA0 }
  - { offset: 0x27CB10, size: 0x8, addend: 0x0, symName: '__ZNKSt3__110__function6__funcIZN8firebase9firestore6remote9Datastore15LookupDocumentsERKNS_6vectorINS3_5model11DocumentKeyENS_9allocatorIS8_EEEEONS_8functionIFvRKNS3_4util8StatusOrINS6_INS7_8DocumentENS9_ISH_EEEEEEEEEE3$_0NS9_ISQ_EEFvRKNSG_INS3_11credentials9AuthTokenEEERKNS_12basic_stringIcNS_11char_traitsIcEENS9_IcEEEEEE7__cloneEPNS0_6__baseIS14_EE', symObjAddr: 0x5EA8, symBinAddr: 0x2F980, symSize: 0x84 }
  - { offset: 0x27CD9E, size: 0x8, addend: 0x0, symName: '__ZNSt3__110__function6__funcIZN8firebase9firestore6remote9Datastore15LookupDocumentsERKNS_6vectorINS3_5model11DocumentKeyENS_9allocatorIS8_EEEEONS_8functionIFvRKNS3_4util8StatusOrINS6_INS7_8DocumentENS9_ISH_EEEEEEEEEE3$_0NS9_ISQ_EEFvRKNSG_INS3_11credentials9AuthTokenEEERKNS_12basic_stringIcNS_11char_traitsIcEENS9_IcEEEEEE7destroyEv', symObjAddr: 0x5F2C, symBinAddr: 0x2FA04, symSize: 0x8 }
  - { offset: 0x27CEB4, size: 0x8, addend: 0x0, symName: '__ZNSt3__110__function6__funcIZN8firebase9firestore6remote9Datastore15LookupDocumentsERKNS_6vectorINS3_5model11DocumentKeyENS_9allocatorIS8_EEEEONS_8functionIFvRKNS3_4util8StatusOrINS6_INS7_8DocumentENS9_ISH_EEEEEEEEEE3$_0NS9_ISQ_EEFvRKNSG_INS3_11credentials9AuthTokenEEERKNS_12basic_stringIcNS_11char_traitsIcEENS9_IcEEEEEE18destroy_deallocateEv', symObjAddr: 0x5F34, symBinAddr: 0x2FA0C, symSize: 0x28 }
  - { offset: 0x27D0EA, size: 0x8, addend: 0x0, symName: '__ZNSt3__110__function6__funcIZN8firebase9firestore6remote9Datastore15LookupDocumentsERKNS_6vectorINS3_5model11DocumentKeyENS_9allocatorIS8_EEEEONS_8functionIFvRKNS3_4util8StatusOrINS6_INS7_8DocumentENS9_ISH_EEEEEEEEEE3$_0NS9_ISQ_EEFvRKNSG_INS3_11credentials9AuthTokenEEERKNS_12basic_stringIcNS_11char_traitsIcEENS9_IcEEEEEEclESW_S13_', symObjAddr: 0x5F5C, symBinAddr: 0x2FA34, symSize: 0x90 }
  - { offset: 0x27D3C7, size: 0x8, addend: 0x0, symName: __ZN8firebase9firestore4util17internal_statusor12StatusOrDataINSt3__16vectorINS0_5model8DocumentENS4_9allocatorIS7_EEEEEC2ERKNS1_6StatusE, symObjAddr: 0x60F8, symBinAddr: 0x2FB70, symSize: 0x60 }
  - { offset: 0x27D5E8, size: 0x8, addend: 0x0, symName: __ZN8firebase9firestore4util17internal_statusor12StatusOrDataINSt3__16vectorINS0_5model8DocumentENS4_9allocatorIS7_EEEEED2Ev, symObjAddr: 0x6238, symBinAddr: 0x2FBD0, symSize: 0x48 }
  - { offset: 0x27D790, size: 0x8, addend: 0x0, symName: '__ZNKSt3__110__function6__funcIZN8firebase9firestore6remote9Datastore15LookupDocumentsERKNS_6vectorINS3_5model11DocumentKeyENS_9allocatorIS8_EEEEONS_8functionIFvRKNS3_4util8StatusOrINS6_INS7_8DocumentENS9_ISH_EEEEEEEEEE3$_0NS9_ISQ_EEFvRKNSG_INS3_11credentials9AuthTokenEEERKNS_12basic_stringIcNS_11char_traitsIcEENS9_IcEEEEEE6targetERKSt9type_info', symObjAddr: 0x5FEC, symBinAddr: 0x2FAC4, symSize: 0x3C }
  - { offset: 0x27D7DA, size: 0x8, addend: 0x0, symName: '__ZNKSt3__110__function6__funcIZN8firebase9firestore6remote9Datastore15LookupDocumentsERKNS_6vectorINS3_5model11DocumentKeyENS_9allocatorIS8_EEEEONS_8functionIFvRKNS3_4util8StatusOrINS6_INS7_8DocumentENS9_ISH_EEEEEEEEEE3$_0NS9_ISQ_EEFvRKNSG_INS3_11credentials9AuthTokenEEERKNS_12basic_stringIcNS_11char_traitsIcEENS9_IcEEEEEE11target_typeEv', symObjAddr: 0x6028, symBinAddr: 0x2FB00, symSize: 0xC }
  - { offset: 0x27DCAE, size: 0x8, addend: 0x0, symName: __ZNSt3__16vectorIN8firebase9firestore5model8DocumentENS_9allocatorIS4_EEE16__destroy_vectorclB8ne200100Ev, symObjAddr: 0x6280, symBinAddr: 0x2FC18, symSize: 0x40 }
  - { offset: 0x27DDF5, size: 0x8, addend: 0x0, symName: __ZNSt3__16vectorIN8firebase9firestore5model8DocumentENS_9allocatorIS4_EEE22__base_destruct_at_endB8ne200100EPS4_, symObjAddr: 0x62C0, symBinAddr: 0x2FC58, symSize: 0x58 }
  - { offset: 0x27E135, size: 0x8, addend: 0x0, symName: '__ZNSt3__110__function6__funcIZN8firebase9firestore6remote9Datastore30LookupDocumentsWithCredentialsERKNS3_11credentials9AuthTokenERKNS_12basic_stringIcNS_11char_traitsIcEENS_9allocatorIcEEEERKNS_6vectorINS3_5model11DocumentKeyENSD_ISK_EEEEONS_8functionIFvRKNS3_4util8StatusOrINSI_INSJ_8DocumentENSD_ISS_EEEEEEEEEE3$_0NSD_IS11_EEFvNSI_IN4grpc10ByteBufferENSD_IS14_EEEEEED1Ev', symObjAddr: 0x63B0, symBinAddr: 0x2FCF0, symSize: 0x58 }
  - { offset: 0x27E290, size: 0x8, addend: 0x0, symName: '__ZNSt3__110__function6__funcIZN8firebase9firestore6remote9Datastore30LookupDocumentsWithCredentialsERKNS3_11credentials9AuthTokenERKNS_12basic_stringIcNS_11char_traitsIcEENS_9allocatorIcEEEERKNS_6vectorINS3_5model11DocumentKeyENSD_ISK_EEEEONS_8functionIFvRKNS3_4util8StatusOrINSI_INSJ_8DocumentENSD_ISS_EEEEEEEEEE3$_0NSD_IS11_EEFvNSI_IN4grpc10ByteBufferENSD_IS14_EEEEEED0Ev', symObjAddr: 0x6408, symBinAddr: 0x2FD48, symSize: 0x58 }
  - { offset: 0x27E5C1, size: 0x8, addend: 0x0, symName: '__ZNKSt3__110__function6__funcIZN8firebase9firestore6remote9Datastore30LookupDocumentsWithCredentialsERKNS3_11credentials9AuthTokenERKNS_12basic_stringIcNS_11char_traitsIcEENS_9allocatorIcEEEERKNS_6vectorINS3_5model11DocumentKeyENSD_ISK_EEEEONS_8functionIFvRKNS3_4util8StatusOrINSI_INSJ_8DocumentENSD_ISS_EEEEEEEEEE3$_0NSD_IS11_EEFvNSI_IN4grpc10ByteBufferENSD_IS14_EEEEEE7__cloneEv', symObjAddr: 0x6460, symBinAddr: 0x2FDA0, symSize: 0x58 }
  - { offset: 0x27E93C, size: 0x8, addend: 0x0, symName: '__ZNKSt3__110__function6__funcIZN8firebase9firestore6remote9Datastore30LookupDocumentsWithCredentialsERKNS3_11credentials9AuthTokenERKNS_12basic_stringIcNS_11char_traitsIcEENS_9allocatorIcEEEERKNS_6vectorINS3_5model11DocumentKeyENSD_ISK_EEEEONS_8functionIFvRKNS3_4util8StatusOrINSI_INSJ_8DocumentENSD_ISS_EEEEEEEEEE3$_0NSD_IS11_EEFvNSI_IN4grpc10ByteBufferENSD_IS14_EEEEEE7__cloneEPNS0_6__baseIS17_EE', symObjAddr: 0x64B8, symBinAddr: 0x2FDF8, symSize: 0x20 }
  - { offset: 0x27EAC5, size: 0x8, addend: 0x0, symName: '__ZNSt3__110__function6__funcIZN8firebase9firestore6remote9Datastore30LookupDocumentsWithCredentialsERKNS3_11credentials9AuthTokenERKNS_12basic_stringIcNS_11char_traitsIcEENS_9allocatorIcEEEERKNS_6vectorINS3_5model11DocumentKeyENSD_ISK_EEEEONS_8functionIFvRKNS3_4util8StatusOrINSI_INSJ_8DocumentENSD_ISS_EEEEEEEEEE3$_0NSD_IS11_EEFvNSI_IN4grpc10ByteBufferENSD_IS14_EEEEEE7destroyEv', symObjAddr: 0x64D8, symBinAddr: 0x2FE18, symSize: 0x30 }
  - { offset: 0x27EAED, size: 0x8, addend: 0x0, symName: '__ZNSt3__110__function6__funcIZN8firebase9firestore6remote9Datastore30LookupDocumentsWithCredentialsERKNS3_11credentials9AuthTokenERKNS_12basic_stringIcNS_11char_traitsIcEENS_9allocatorIcEEEERKNS_6vectorINS3_5model11DocumentKeyENSD_ISK_EEEEONS_8functionIFvRKNS3_4util8StatusOrINSI_INSJ_8DocumentENSD_ISS_EEEEEEEEEE3$_0NSD_IS11_EEFvNSI_IN4grpc10ByteBufferENSD_IS14_EEEEEE7destroyEv', symObjAddr: 0x64D8, symBinAddr: 0x2FE18, symSize: 0x30 }
  - { offset: 0x27EB0B, size: 0x8, addend: 0x0, symName: '__ZNSt3__110__function6__funcIZN8firebase9firestore6remote9Datastore30LookupDocumentsWithCredentialsERKNS3_11credentials9AuthTokenERKNS_12basic_stringIcNS_11char_traitsIcEENS_9allocatorIcEEEERKNS_6vectorINS3_5model11DocumentKeyENSD_ISK_EEEEONS_8functionIFvRKNS3_4util8StatusOrINSI_INSJ_8DocumentENSD_ISS_EEEEEEEEEE3$_0NSD_IS11_EEFvNSI_IN4grpc10ByteBufferENSD_IS14_EEEEEE7destroyEv', symObjAddr: 0x64D8, symBinAddr: 0x2FE18, symSize: 0x30 }
  - { offset: 0x27EB28, size: 0x8, addend: 0x0, symName: '__ZNSt3__110__function6__funcIZN8firebase9firestore6remote9Datastore30LookupDocumentsWithCredentialsERKNS3_11credentials9AuthTokenERKNS_12basic_stringIcNS_11char_traitsIcEENS_9allocatorIcEEEERKNS_6vectorINS3_5model11DocumentKeyENSD_ISK_EEEEONS_8functionIFvRKNS3_4util8StatusOrINSI_INSJ_8DocumentENSD_ISS_EEEEEEEEEE3$_0NSD_IS11_EEFvNSI_IN4grpc10ByteBufferENSD_IS14_EEEEEE7destroyEv', symObjAddr: 0x64D8, symBinAddr: 0x2FE18, symSize: 0x30 }
  - { offset: 0x27EBCC, size: 0x8, addend: 0x0, symName: '__ZNSt3__110__function6__funcIZN8firebase9firestore6remote9Datastore30LookupDocumentsWithCredentialsERKNS3_11credentials9AuthTokenERKNS_12basic_stringIcNS_11char_traitsIcEENS_9allocatorIcEEEERKNS_6vectorINS3_5model11DocumentKeyENSD_ISK_EEEEONS_8functionIFvRKNS3_4util8StatusOrINSI_INSJ_8DocumentENSD_ISS_EEEEEEEEEE3$_0NSD_IS11_EEFvNSI_IN4grpc10ByteBufferENSD_IS14_EEEEEE18destroy_deallocateEv', symObjAddr: 0x6508, symBinAddr: 0x2FE48, symSize: 0x4C }
  - { offset: 0x27EDE2, size: 0x8, addend: 0x0, symName: '__ZNSt3__110__function6__funcIZN8firebase9firestore6remote9Datastore30LookupDocumentsWithCredentialsERKNS3_11credentials9AuthTokenERKNS_12basic_stringIcNS_11char_traitsIcEENS_9allocatorIcEEEERKNS_6vectorINS3_5model11DocumentKeyENSD_ISK_EEEEONS_8functionIFvRKNS3_4util8StatusOrINSI_INSJ_8DocumentENSD_ISS_EEEEEEEEEE3$_0NSD_IS11_EEFvNSI_IN4grpc10ByteBufferENSD_IS14_EEEEEEclEOS16_', symObjAddr: 0x6554, symBinAddr: 0x2FE94, symSize: 0x70 }
  - { offset: 0x27EFB3, size: 0x8, addend: 0x0, symName: '__ZNKSt3__110__function6__funcIZN8firebase9firestore6remote9Datastore30LookupDocumentsWithCredentialsERKNS3_11credentials9AuthTokenERKNS_12basic_stringIcNS_11char_traitsIcEENS_9allocatorIcEEEERKNS_6vectorINS3_5model11DocumentKeyENSD_ISK_EEEEONS_8functionIFvRKNS3_4util8StatusOrINSI_INSJ_8DocumentENSD_ISS_EEEEEEEEEE3$_0NSD_IS11_EEFvNSI_IN4grpc10ByteBufferENSD_IS14_EEEEEE6targetERKSt9type_info', symObjAddr: 0x65C4, symBinAddr: 0x2FF04, symSize: 0x3C }
  - { offset: 0x27EFFD, size: 0x8, addend: 0x0, symName: '__ZNKSt3__110__function6__funcIZN8firebase9firestore6remote9Datastore30LookupDocumentsWithCredentialsERKNS3_11credentials9AuthTokenERKNS_12basic_stringIcNS_11char_traitsIcEENS_9allocatorIcEEEERKNS_6vectorINS3_5model11DocumentKeyENSD_ISK_EEEEONS_8functionIFvRKNS3_4util8StatusOrINSI_INSJ_8DocumentENSD_ISS_EEEEEEEEEE3$_0NSD_IS11_EEFvNSI_IN4grpc10ByteBufferENSD_IS14_EEEEEE11target_typeEv', symObjAddr: 0x6600, symBinAddr: 0x2FF40, symSize: 0xC }
  - { offset: 0x27F071, size: 0x8, addend: 0x0, symName: '__ZNSt3__110__function6__funcIZN8firebase9firestore6remote9Datastore30LookupDocumentsWithCredentialsERKNS3_11credentials9AuthTokenERKNS_12basic_stringIcNS_11char_traitsIcEENS_9allocatorIcEEEERKNS_6vectorINS3_5model11DocumentKeyENSD_ISK_EEEEONS_8functionIFvRKNS3_4util8StatusOrINSI_INSJ_8DocumentENSD_ISS_EEEEEEEEEE3$_1NSD_IS11_EEFvRKNSQ_6StatusEbEED1Ev', symObjAddr: 0x660C, symBinAddr: 0x2FF4C, symSize: 0x58 }
  - { offset: 0x27F1CC, size: 0x8, addend: 0x0, symName: '__ZNSt3__110__function6__funcIZN8firebase9firestore6remote9Datastore30LookupDocumentsWithCredentialsERKNS3_11credentials9AuthTokenERKNS_12basic_stringIcNS_11char_traitsIcEENS_9allocatorIcEEEERKNS_6vectorINS3_5model11DocumentKeyENSD_ISK_EEEEONS_8functionIFvRKNS3_4util8StatusOrINSI_INSJ_8DocumentENSD_ISS_EEEEEEEEEE3$_1NSD_IS11_EEFvRKNSQ_6StatusEbEED0Ev', symObjAddr: 0x6664, symBinAddr: 0x2FFA4, symSize: 0x58 }
  - { offset: 0x27F4FD, size: 0x8, addend: 0x0, symName: '__ZNKSt3__110__function6__funcIZN8firebase9firestore6remote9Datastore30LookupDocumentsWithCredentialsERKNS3_11credentials9AuthTokenERKNS_12basic_stringIcNS_11char_traitsIcEENS_9allocatorIcEEEERKNS_6vectorINS3_5model11DocumentKeyENSD_ISK_EEEEONS_8functionIFvRKNS3_4util8StatusOrINSI_INSJ_8DocumentENSD_ISS_EEEEEEEEEE3$_1NSD_IS11_EEFvRKNSQ_6StatusEbEE7__cloneEv', symObjAddr: 0x66BC, symBinAddr: 0x2FFFC, symSize: 0x60 }
  - { offset: 0x27F878, size: 0x8, addend: 0x0, symName: '__ZNKSt3__110__function6__funcIZN8firebase9firestore6remote9Datastore30LookupDocumentsWithCredentialsERKNS3_11credentials9AuthTokenERKNS_12basic_stringIcNS_11char_traitsIcEENS_9allocatorIcEEEERKNS_6vectorINS3_5model11DocumentKeyENSD_ISK_EEEEONS_8functionIFvRKNS3_4util8StatusOrINSI_INSJ_8DocumentENSD_ISS_EEEEEEEEEE3$_1NSD_IS11_EEFvRKNSQ_6StatusEbEE7__cloneEPNS0_6__baseIS16_EE', symObjAddr: 0x671C, symBinAddr: 0x3005C, symSize: 0x44 }
  - { offset: 0x27FA04, size: 0x8, addend: 0x0, symName: '__ZNSt3__110__function6__funcIZN8firebase9firestore6remote9Datastore30LookupDocumentsWithCredentialsERKNS3_11credentials9AuthTokenERKNS_12basic_stringIcNS_11char_traitsIcEENS_9allocatorIcEEEERKNS_6vectorINS3_5model11DocumentKeyENSD_ISK_EEEEONS_8functionIFvRKNS3_4util8StatusOrINSI_INSJ_8DocumentENSD_ISS_EEEEEEEEEE3$_1NSD_IS11_EEFvRKNSQ_6StatusEbEE7destroyEv', symObjAddr: 0x6760, symBinAddr: 0x300A0, symSize: 0x30 }
  - { offset: 0x27FA2C, size: 0x8, addend: 0x0, symName: '__ZNSt3__110__function6__funcIZN8firebase9firestore6remote9Datastore30LookupDocumentsWithCredentialsERKNS3_11credentials9AuthTokenERKNS_12basic_stringIcNS_11char_traitsIcEENS_9allocatorIcEEEERKNS_6vectorINS3_5model11DocumentKeyENSD_ISK_EEEEONS_8functionIFvRKNS3_4util8StatusOrINSI_INSJ_8DocumentENSD_ISS_EEEEEEEEEE3$_1NSD_IS11_EEFvRKNSQ_6StatusEbEE7destroyEv', symObjAddr: 0x6760, symBinAddr: 0x300A0, symSize: 0x30 }
  - { offset: 0x27FA4A, size: 0x8, addend: 0x0, symName: '__ZNSt3__110__function6__funcIZN8firebase9firestore6remote9Datastore30LookupDocumentsWithCredentialsERKNS3_11credentials9AuthTokenERKNS_12basic_stringIcNS_11char_traitsIcEENS_9allocatorIcEEEERKNS_6vectorINS3_5model11DocumentKeyENSD_ISK_EEEEONS_8functionIFvRKNS3_4util8StatusOrINSI_INSJ_8DocumentENSD_ISS_EEEEEEEEEE3$_1NSD_IS11_EEFvRKNSQ_6StatusEbEE7destroyEv', symObjAddr: 0x6760, symBinAddr: 0x300A0, symSize: 0x30 }
  - { offset: 0x27FA67, size: 0x8, addend: 0x0, symName: '__ZNSt3__110__function6__funcIZN8firebase9firestore6remote9Datastore30LookupDocumentsWithCredentialsERKNS3_11credentials9AuthTokenERKNS_12basic_stringIcNS_11char_traitsIcEENS_9allocatorIcEEEERKNS_6vectorINS3_5model11DocumentKeyENSD_ISK_EEEEONS_8functionIFvRKNS3_4util8StatusOrINSI_INSJ_8DocumentENSD_ISS_EEEEEEEEEE3$_1NSD_IS11_EEFvRKNSQ_6StatusEbEE7destroyEv', symObjAddr: 0x6760, symBinAddr: 0x300A0, symSize: 0x30 }
  - { offset: 0x27FB0B, size: 0x8, addend: 0x0, symName: '__ZNSt3__110__function6__funcIZN8firebase9firestore6remote9Datastore30LookupDocumentsWithCredentialsERKNS3_11credentials9AuthTokenERKNS_12basic_stringIcNS_11char_traitsIcEENS_9allocatorIcEEEERKNS_6vectorINS3_5model11DocumentKeyENSD_ISK_EEEEONS_8functionIFvRKNS3_4util8StatusOrINSI_INSJ_8DocumentENSD_ISS_EEEEEEEEEE3$_1NSD_IS11_EEFvRKNSQ_6StatusEbEE18destroy_deallocateEv', symObjAddr: 0x6790, symBinAddr: 0x300D0, symSize: 0x4C }
  - { offset: 0x27FD49, size: 0x8, addend: 0x0, symName: '__ZNSt3__110__function6__funcIZN8firebase9firestore6remote9Datastore30LookupDocumentsWithCredentialsERKNS3_11credentials9AuthTokenERKNS_12basic_stringIcNS_11char_traitsIcEENS_9allocatorIcEEEERKNS_6vectorINS3_5model11DocumentKeyENSD_ISK_EEEEONS_8functionIFvRKNS3_4util8StatusOrINSI_INSJ_8DocumentENSD_ISS_EEEEEEEEEE3$_1NSD_IS11_EEFvRKNSQ_6StatusEbEEclES15_Ob', symObjAddr: 0x67DC, symBinAddr: 0x3011C, symSize: 0xE8 }
  - { offset: 0x280106, size: 0x8, addend: 0x0, symName: '__ZNKSt3__110__function6__funcIZN8firebase9firestore6remote9Datastore30LookupDocumentsWithCredentialsERKNS3_11credentials9AuthTokenERKNS_12basic_stringIcNS_11char_traitsIcEENS_9allocatorIcEEEERKNS_6vectorINS3_5model11DocumentKeyENSD_ISK_EEEEONS_8functionIFvRKNS3_4util8StatusOrINSI_INSJ_8DocumentENSD_ISS_EEEEEEEEEE3$_1NSD_IS11_EEFvRKNSQ_6StatusEbEE6targetERKSt9type_info', symObjAddr: 0x68C4, symBinAddr: 0x30204, symSize: 0x3C }
  - { offset: 0x280150, size: 0x8, addend: 0x0, symName: '__ZNKSt3__110__function6__funcIZN8firebase9firestore6remote9Datastore30LookupDocumentsWithCredentialsERKNS3_11credentials9AuthTokenERKNS_12basic_stringIcNS_11char_traitsIcEENS_9allocatorIcEEEERKNS_6vectorINS3_5model11DocumentKeyENSD_ISK_EEEEONS_8functionIFvRKNS3_4util8StatusOrINSI_INSJ_8DocumentENSD_ISS_EEEEEEEEEE3$_1NSD_IS11_EEFvRKNSQ_6StatusEbEE11target_typeEv', symObjAddr: 0x6900, symBinAddr: 0x30240, symSize: 0xC }
  - { offset: 0x280315, size: 0x8, addend: 0x0, symName: __ZNSt3__16vectorIN8firebase9firestore5model14AggregateFieldENS_9allocatorIS4_EEE11__vallocateB8ne200100Em, symObjAddr: 0x6990, symBinAddr: 0x302D0, symSize: 0x4C }
  - { offset: 0x28037F, size: 0x8, addend: 0x0, symName: __ZNSt3__119__allocate_at_leastB8ne200100INS_9allocatorIN8firebase9firestore5model14AggregateFieldEEEEENS_19__allocation_resultINS_16allocator_traitsIT_E7pointerEEERS9_m, symObjAddr: 0x69F0, symBinAddr: 0x3031C, symSize: 0x48 }
  - { offset: 0x280471, size: 0x8, addend: 0x0, symName: __ZNSt3__19allocatorIN8firebase9firestore5model14AggregateFieldEE9constructB8ne200100IS4_JRS4_EEEvPT_DpOT0_, symObjAddr: 0x6AE0, symBinAddr: 0x3040C, symSize: 0xA0 }
  - { offset: 0x2807C5, size: 0x8, addend: 0x0, symName: __ZNSt3__128__exception_guard_exceptionsINS_29_AllocatorDestroyRangeReverseINS_9allocatorIN8firebase9firestore5model14AggregateFieldEEEPS6_EEED2B8ne200100Ev, symObjAddr: 0x6B80, symBinAddr: 0x304AC, symSize: 0x34 }
  - { offset: 0x2808C2, size: 0x8, addend: 0x0, symName: __ZNKSt3__129_AllocatorDestroyRangeReverseINS_9allocatorIN8firebase9firestore5model14AggregateFieldEEEPS5_EclB8ne200100Ev, symObjAddr: 0x6BB4, symBinAddr: 0x304E0, symSize: 0x50 }
  - { offset: 0x280CE3, size: 0x8, addend: 0x0, symName: '__ZNSt3__110__function6__funcIZN8firebase9firestore6remote9Datastore17RunAggregateQueryERKNS3_4core5QueryERKNS_6vectorINS3_5model14AggregateFieldENS_9allocatorISC_EEEEONS_8functionIFvRKNS3_4util8StatusOrINSB_11ObjectValueEEEEEEE3$_0NSD_ISS_EEFvRKNSK_INS3_11credentials9AuthTokenEEERKNS_12basic_stringIcNS_11char_traitsIcEENSD_IcEEEEEED1Ev', symObjAddr: 0x6D20, symBinAddr: 0x30530, symSize: 0x78 }
  - { offset: 0x280F03, size: 0x8, addend: 0x0, symName: '__ZNSt3__110__function6__funcIZN8firebase9firestore6remote9Datastore17RunAggregateQueryERKNS3_4core5QueryERKNS_6vectorINS3_5model14AggregateFieldENS_9allocatorISC_EEEEONS_8functionIFvRKNS3_4util8StatusOrINSB_11ObjectValueEEEEEEE3$_0NSD_ISS_EEFvRKNSK_INS3_11credentials9AuthTokenEEERKNS_12basic_stringIcNS_11char_traitsIcEENSD_IcEEEEEED0Ev', symObjAddr: 0x6D98, symBinAddr: 0x305A8, symSize: 0x7C }
  - { offset: 0x2812BB, size: 0x8, addend: 0x0, symName: '__ZNKSt3__110__function6__funcIZN8firebase9firestore6remote9Datastore17RunAggregateQueryERKNS3_4core5QueryERKNS_6vectorINS3_5model14AggregateFieldENS_9allocatorISC_EEEEONS_8functionIFvRKNS3_4util8StatusOrINSB_11ObjectValueEEEEEEE3$_0NSD_ISS_EEFvRKNSK_INS3_11credentials9AuthTokenEEERKNS_12basic_stringIcNS_11char_traitsIcEENSD_IcEEEEEE7__cloneEv', symObjAddr: 0x6E14, symBinAddr: 0x30624, symSize: 0xCC }
  - { offset: 0x2817AA, size: 0x8, addend: 0x0, symName: '__ZNKSt3__110__function6__funcIZN8firebase9firestore6remote9Datastore17RunAggregateQueryERKNS3_4core5QueryERKNS_6vectorINS3_5model14AggregateFieldENS_9allocatorISC_EEEEONS_8functionIFvRKNS3_4util8StatusOrINSB_11ObjectValueEEEEEEE3$_0NSD_ISS_EEFvRKNSK_INS3_11credentials9AuthTokenEEERKNS_12basic_stringIcNS_11char_traitsIcEENSD_IcEEEEEE7__cloneEPNS0_6__baseIS16_EE', symObjAddr: 0x6EE0, symBinAddr: 0x306F0, symSize: 0xB4 }
  - { offset: 0x281A96, size: 0x8, addend: 0x0, symName: '__ZNSt3__110__function6__funcIZN8firebase9firestore6remote9Datastore17RunAggregateQueryERKNS3_4core5QueryERKNS_6vectorINS3_5model14AggregateFieldENS_9allocatorISC_EEEEONS_8functionIFvRKNS3_4util8StatusOrINSB_11ObjectValueEEEEEEE3$_0NSD_ISS_EEFvRKNSK_INS3_11credentials9AuthTokenEEERKNS_12basic_stringIcNS_11char_traitsIcEENSD_IcEEEEEE7destroyEv', symObjAddr: 0x6F94, symBinAddr: 0x307A4, symSize: 0x8 }
  - { offset: 0x281AC8, size: 0x8, addend: 0x0, symName: '__ZNSt3__110__function12__alloc_funcIZN8firebase9firestore6remote9Datastore17RunAggregateQueryERKNS3_4core5QueryERKNS_6vectorINS3_5model14AggregateFieldENS_9allocatorISC_EEEEONS_8functionIFvRKNS3_4util8StatusOrINSB_11ObjectValueEEEEEEE3$_0NSD_ISS_EEFvRKNSK_INS3_11credentials9AuthTokenEEERKNS_12basic_stringIcNS_11char_traitsIcEENSD_IcEEEEEE7destroyB8ne200100Ev', symObjAddr: 0x7104, symBinAddr: 0x30914, symSize: 0x68 }
  - { offset: 0x281C71, size: 0x8, addend: 0x0, symName: '__ZNSt3__110__function6__funcIZN8firebase9firestore6remote9Datastore17RunAggregateQueryERKNS3_4core5QueryERKNS_6vectorINS3_5model14AggregateFieldENS_9allocatorISC_EEEEONS_8functionIFvRKNS3_4util8StatusOrINSB_11ObjectValueEEEEEEE3$_0NSD_ISS_EEFvRKNSK_INS3_11credentials9AuthTokenEEERKNS_12basic_stringIcNS_11char_traitsIcEENSD_IcEEEEEE18destroy_deallocateEv', symObjAddr: 0x6F9C, symBinAddr: 0x307AC, symSize: 0x28 }
  - { offset: 0x281EAA, size: 0x8, addend: 0x0, symName: '__ZNSt3__110__function6__funcIZN8firebase9firestore6remote9Datastore17RunAggregateQueryERKNS3_4core5QueryERKNS_6vectorINS3_5model14AggregateFieldENS_9allocatorISC_EEEEONS_8functionIFvRKNS3_4util8StatusOrINSB_11ObjectValueEEEEEEE3$_0NSD_ISS_EEFvRKNSK_INS3_11credentials9AuthTokenEEERKNS_12basic_stringIcNS_11char_traitsIcEENSD_IcEEEEEEclESY_S15_', symObjAddr: 0x6FC4, symBinAddr: 0x307D4, symSize: 0x94 }
  - { offset: 0x28219A, size: 0x8, addend: 0x0, symName: __ZN8firebase9firestore4util17internal_statusor12StatusOrDataINS0_5model11ObjectValueEEC2ERKNS1_6StatusE, symObjAddr: 0x716C, symBinAddr: 0x3097C, symSize: 0x60 }
  - { offset: 0x2823BB, size: 0x8, addend: 0x0, symName: __ZN8firebase9firestore4util17internal_statusor12StatusOrDataINS0_5model11ObjectValueEED2Ev, symObjAddr: 0x71CC, symBinAddr: 0x309DC, symSize: 0x38 }
  - { offset: 0x28251D, size: 0x8, addend: 0x0, symName: '__ZNKSt3__110__function6__funcIZN8firebase9firestore6remote9Datastore17RunAggregateQueryERKNS3_4core5QueryERKNS_6vectorINS3_5model14AggregateFieldENS_9allocatorISC_EEEEONS_8functionIFvRKNS3_4util8StatusOrINSB_11ObjectValueEEEEEEE3$_0NSD_ISS_EEFvRKNSK_INS3_11credentials9AuthTokenEEERKNS_12basic_stringIcNS_11char_traitsIcEENSD_IcEEEEEE6targetERKSt9type_info', symObjAddr: 0x7058, symBinAddr: 0x30868, symSize: 0x3C }
  - { offset: 0x282567, size: 0x8, addend: 0x0, symName: '__ZNKSt3__110__function6__funcIZN8firebase9firestore6remote9Datastore17RunAggregateQueryERKNS3_4core5QueryERKNS_6vectorINS3_5model14AggregateFieldENS_9allocatorISC_EEEEONS_8functionIFvRKNS3_4util8StatusOrINSB_11ObjectValueEEEEEEE3$_0NSD_ISS_EEFvRKNSK_INS3_11credentials9AuthTokenEEERKNS_12basic_stringIcNS_11char_traitsIcEENSD_IcEEEEEE11target_typeEv', symObjAddr: 0x7094, symBinAddr: 0x308A4, symSize: 0xC }
  - { offset: 0x2826BF, size: 0x8, addend: 0x0, symName: '__ZNSt3__110__function6__funcIZN8firebase9firestore6remote9Datastore32RunAggregateQueryWithCredentialsERKNS3_11credentials9AuthTokenERKNS_12basic_stringIcNS_11char_traitsIcEENS_9allocatorIcEEEERKNS3_4core5QueryERKNS_6vectorINS3_5model14AggregateFieldENSD_ISO_EEEEONS_8functionIFvRKNS3_4util8StatusOrINSN_11ObjectValueEEEEEEE3$_0NSD_IS13_EEFvRKNSV_IN4grpc10ByteBufferEEEEED1Ev', symObjAddr: 0x7284, symBinAddr: 0x30A54, symSize: 0x5C }
  - { offset: 0x282868, size: 0x8, addend: 0x0, symName: '__ZNSt3__110__function6__funcIZN8firebase9firestore6remote9Datastore32RunAggregateQueryWithCredentialsERKNS3_11credentials9AuthTokenERKNS_12basic_stringIcNS_11char_traitsIcEENS_9allocatorIcEEEERKNS3_4core5QueryERKNS_6vectorINS3_5model14AggregateFieldENSD_ISO_EEEEONS_8functionIFvRKNS3_4util8StatusOrINSN_11ObjectValueEEEEEEE3$_0NSD_IS13_EEFvRKNSV_IN4grpc10ByteBufferEEEEED0Ev', symObjAddr: 0x72E0, symBinAddr: 0x30AB0, symSize: 0x5C }
  - { offset: 0x282CB8, size: 0x8, addend: 0x0, symName: '__ZNKSt3__110__function6__funcIZN8firebase9firestore6remote9Datastore32RunAggregateQueryWithCredentialsERKNS3_11credentials9AuthTokenERKNS_12basic_stringIcNS_11char_traitsIcEENS_9allocatorIcEEEERKNS3_4core5QueryERKNS_6vectorINS3_5model14AggregateFieldENSD_ISO_EEEEONS_8functionIFvRKNS3_4util8StatusOrINSN_11ObjectValueEEEEEEE3$_0NSD_IS13_EEFvRKNSV_IN4grpc10ByteBufferEEEEE7__cloneEv', symObjAddr: 0x733C, symBinAddr: 0x30B0C, symSize: 0xB4 }
  - { offset: 0x28307C, size: 0x8, addend: 0x0, symName: __ZN4absl12lts_2024011618container_internal12raw_hash_setINS1_17FlatHashMapPolicyINSt3__112basic_stringIcNS4_11char_traitsIcEENS4_9allocatorIcEEEESA_EENS1_10StringHashENS1_8StringEqENS8_INS4_4pairIKSA_SA_EEEEEC2ERKSI_RKSH_, symObjAddr: 0x7698, symBinAddr: 0x30E68, symSize: 0x1F4 }
  - { offset: 0x2838FA, size: 0x8, addend: 0x0, symName: '__ZNKSt3__110__function6__funcIZN8firebase9firestore6remote9Datastore32RunAggregateQueryWithCredentialsERKNS3_11credentials9AuthTokenERKNS_12basic_stringIcNS_11char_traitsIcEENS_9allocatorIcEEEERKNS3_4core5QueryERKNS_6vectorINS3_5model14AggregateFieldENSD_ISO_EEEEONS_8functionIFvRKNS3_4util8StatusOrINSN_11ObjectValueEEEEEEE3$_0NSD_IS13_EEFvRKNSV_IN4grpc10ByteBufferEEEEE7__cloneEPNS0_6__baseIS1A_EE', symObjAddr: 0x73F0, symBinAddr: 0x30BC0, symSize: 0x9C }
  - { offset: 0x283B88, size: 0x8, addend: 0x0, symName: '__ZNSt3__110__function6__funcIZN8firebase9firestore6remote9Datastore32RunAggregateQueryWithCredentialsERKNS3_11credentials9AuthTokenERKNS_12basic_stringIcNS_11char_traitsIcEENS_9allocatorIcEEEERKNS3_4core5QueryERKNS_6vectorINS3_5model14AggregateFieldENSD_ISO_EEEEONS_8functionIFvRKNS3_4util8StatusOrINSN_11ObjectValueEEEEEEE3$_0NSD_IS13_EEFvRKNSV_IN4grpc10ByteBufferEEEEE7destroyEv', symObjAddr: 0x748C, symBinAddr: 0x30C5C, symSize: 0x58 }
  - { offset: 0x283CDD, size: 0x8, addend: 0x0, symName: '__ZNSt3__110__function6__funcIZN8firebase9firestore6remote9Datastore32RunAggregateQueryWithCredentialsERKNS3_11credentials9AuthTokenERKNS_12basic_stringIcNS_11char_traitsIcEENS_9allocatorIcEEEERKNS3_4core5QueryERKNS_6vectorINS3_5model14AggregateFieldENSD_ISO_EEEEONS_8functionIFvRKNS3_4util8StatusOrINSN_11ObjectValueEEEEEEE3$_0NSD_IS13_EEFvRKNSV_IN4grpc10ByteBufferEEEEE18destroy_deallocateEv', symObjAddr: 0x74E4, symBinAddr: 0x30CB4, symSize: 0x54 }
  - { offset: 0x283F72, size: 0x8, addend: 0x0, symName: '__ZNSt3__110__function6__funcIZN8firebase9firestore6remote9Datastore32RunAggregateQueryWithCredentialsERKNS3_11credentials9AuthTokenERKNS_12basic_stringIcNS_11char_traitsIcEENS_9allocatorIcEEEERKNS3_4core5QueryERKNS_6vectorINS3_5model14AggregateFieldENSD_ISO_EEEEONS_8functionIFvRKNS3_4util8StatusOrINSN_11ObjectValueEEEEEEE3$_0NSD_IS13_EEFvRKNSV_IN4grpc10ByteBufferEEEEEclES19_', symObjAddr: 0x7538, symBinAddr: 0x30D08, symSize: 0x118 }
  - { offset: 0x284375, size: 0x8, addend: 0x0, symName: '__ZNKSt3__110__function6__funcIZN8firebase9firestore6remote9Datastore32RunAggregateQueryWithCredentialsERKNS3_11credentials9AuthTokenERKNS_12basic_stringIcNS_11char_traitsIcEENS_9allocatorIcEEEERKNS3_4core5QueryERKNS_6vectorINS3_5model14AggregateFieldENSD_ISO_EEEEONS_8functionIFvRKNS3_4util8StatusOrINSN_11ObjectValueEEEEEEE3$_0NSD_IS13_EEFvRKNSV_IN4grpc10ByteBufferEEEEE6targetERKSt9type_info', symObjAddr: 0x7650, symBinAddr: 0x30E20, symSize: 0x3C }
  - { offset: 0x2843BF, size: 0x8, addend: 0x0, symName: '__ZNKSt3__110__function6__funcIZN8firebase9firestore6remote9Datastore32RunAggregateQueryWithCredentialsERKNS3_11credentials9AuthTokenERKNS_12basic_stringIcNS_11char_traitsIcEENS_9allocatorIcEEEERKNS3_4core5QueryERKNS_6vectorINS3_5model14AggregateFieldENSD_ISO_EEEEONS_8functionIFvRKNS3_4util8StatusOrINSN_11ObjectValueEEEEEEE3$_0NSD_IS13_EEFvRKNSV_IN4grpc10ByteBufferEEEEE11target_typeEv', symObjAddr: 0x768C, symBinAddr: 0x30E5C, symSize: 0xC }
  - { offset: 0x2845BB, size: 0x8, addend: 0x0, symName: __ZN4absl12lts_2024011618container_internal12raw_hash_setINS1_17FlatHashMapPolicyINSt3__112basic_stringIcNS4_11char_traitsIcEENS4_9allocatorIcEEEESA_EENS1_10StringHashENS1_8StringEqENS8_INS4_4pairIKSA_SA_EEEEEC2EmRKSC_RKSD_RKSH_, symObjAddr: 0x788C, symBinAddr: 0x3105C, symSize: 0x4C }
  - { offset: 0x284705, size: 0x8, addend: 0x0, symName: __ZN4absl12lts_2024011618container_internal12raw_hash_setINS1_17FlatHashMapPolicyINSt3__112basic_stringIcNS4_11char_traitsIcEENS4_9allocatorIcEEEESA_EENS1_10StringHashENS1_8StringEqENS8_INS4_4pairIKSA_SA_EEEEE7reserveEm, symObjAddr: 0x78D8, symBinAddr: 0x310A8, symSize: 0xA8 }
  - { offset: 0x284874, size: 0x8, addend: 0x0, symName: __ZN4absl12lts_2024011618container_internal12raw_hash_setINS1_17FlatHashMapPolicyINSt3__112basic_stringIcNS4_11char_traitsIcEENS4_9allocatorIcEEEESA_EENS1_10StringHashENS1_8StringEqENS8_INS4_4pairIKSA_SA_EEEEE10emplace_atIJRKSG_EEEvmDpOT_, symObjAddr: 0x7980, symBinAddr: 0x31150, symSize: 0xA8 }
  - { offset: 0x28487E, size: 0x8, addend: 0x0, symName: __ZN4absl12lts_2024011618container_internal12raw_hash_setINS1_17FlatHashMapPolicyINSt3__112basic_stringIcNS4_11char_traitsIcEENS4_9allocatorIcEEEESA_EENS1_10StringHashENS1_8StringEqENS8_INS4_4pairIKSA_SA_EEEEE5beginEv, symObjAddr: 0x7A28, symBinAddr: 0x311F8, symSize: 0x70 }
  - { offset: 0x284A93, size: 0x8, addend: 0x0, symName: __ZN4absl12lts_2024011618container_internal12raw_hash_setINS1_17FlatHashMapPolicyINSt3__112basic_stringIcNS4_11char_traitsIcEENS4_9allocatorIcEEEESA_EENS1_10StringHashENS1_8StringEqENS8_INS4_4pairIKSA_SA_EEEEE8iterator21skip_empty_or_deletedEv, symObjAddr: 0x7A98, symBinAddr: 0x31268, symSize: 0x68 }
  - { offset: 0x284A9D, size: 0x8, addend: 0x0, symName: __ZNK4absl12lts_2024011618container_internal12raw_hash_setINS1_17FlatHashMapPolicyINSt3__112basic_stringIcNS4_11char_traitsIcEENS4_9allocatorIcEEEESA_EENS1_10StringHashENS1_8StringEqENS8_INS4_4pairIKSA_SA_EEEEE8iteratordeEv, symObjAddr: 0x7BC0, symBinAddr: 0x31390, symSize: 0x44 }
  - { offset: 0x284B26, size: 0x8, addend: 0x0, symName: __ZNSt3__14pairINS_12basic_stringIcNS_11char_traitsIcEENS_9allocatorIcEEEES6_EC2B8ne200100IKS6_S6_Li0EEERKNS0_IT_T0_EE, symObjAddr: 0x7C04, symBinAddr: 0x313D4, symSize: 0x90 }
  - { offset: 0x284B30, size: 0x8, addend: 0x0, symName: __ZN4absl12lts_2024011618container_internal12raw_hash_setINS1_17FlatHashMapPolicyINSt3__112basic_stringIcNS4_11char_traitsIcEENS4_9allocatorIcEEEESA_EENS1_10StringHashENS1_8StringEqENS8_INS4_4pairIKSA_SA_EEEEE10emplace_atIJRKSG_EEEvmDpOT_, symObjAddr: 0x7980, symBinAddr: 0x31150, symSize: 0xA8 }
  - { offset: 0x284FF6, size: 0x8, addend: 0x0, symName: __ZN4absl12lts_2024011618container_internal12raw_hash_setINS1_17FlatHashMapPolicyINSt3__112basic_stringIcNS4_11char_traitsIcEENS4_9allocatorIcEEEESA_EENS1_10StringHashENS1_8StringEqENS8_INS4_4pairIKSA_SA_EEEEE5beginEv, symObjAddr: 0x7A28, symBinAddr: 0x311F8, symSize: 0x70 }
  - { offset: 0x28500B, size: 0x8, addend: 0x0, symName: __ZN4absl12lts_2024011618container_internal12raw_hash_setINS1_17FlatHashMapPolicyINSt3__112basic_stringIcNS4_11char_traitsIcEENS4_9allocatorIcEEEESA_EENS1_10StringHashENS1_8StringEqENS8_INS4_4pairIKSA_SA_EEEEE8iteratorppEv, symObjAddr: 0x7ECC, symBinAddr: 0x3169C, symSize: 0x64 }
  - { offset: 0x285084, size: 0x8, addend: 0x0, symName: __ZNSt3__110shared_ptrIN8firebase9firestore6remote9DatastoreEEC2B8ne200100IS4_Li0EEERKNS_8weak_ptrIT_EE, symObjAddr: 0x7F30, symBinAddr: 0x31700, symSize: 0x40 }
  - { offset: 0x2851C7, size: 0x8, addend: 0x0, symName: __ZN4absl12lts_2024011618container_internal12raw_hash_setINS1_17FlatHashMapPolicyINSt3__112basic_stringIcNS4_11char_traitsIcEENS4_9allocatorIcEEEESA_EENS1_10StringHashENS1_8StringEqENS8_INS4_4pairIKSA_SA_EEEEE7reserveEm.cold.1, symObjAddr: 0xA52C, symBinAddr: 0x1584C0, symSize: 0x28 }
  - { offset: 0x285581, size: 0x8, addend: 0x0, symName: __ZNSt3__14pairINS_12basic_stringIcNS_11char_traitsIcEENS_9allocatorIcEEEES6_EC2B8ne200100IKS6_S6_Li0EEERKNS0_IT_T0_EE, symObjAddr: 0x7C04, symBinAddr: 0x313D4, symSize: 0x90 }
  - { offset: 0x2857BB, size: 0x8, addend: 0x0, symName: __ZNK4absl12lts_2024011618container_internal12raw_hash_setINS1_17FlatHashMapPolicyINSt3__112basic_stringIcNS4_11char_traitsIcEENS4_9allocatorIcEEEESA_EENS1_10StringHashENS1_8StringEqENS8_INS4_4pairIKSA_SA_EEEEE4findISA_EENSI_14const_iteratorERKT_, symObjAddr: 0x7C94, symBinAddr: 0x31464, symSize: 0x84 }
  - { offset: 0x285B80, size: 0x8, addend: 0x0, symName: __ZN4absl12lts_2024011618container_internal12raw_hash_setINS1_17FlatHashMapPolicyINSt3__112basic_stringIcNS4_11char_traitsIcEENS4_9allocatorIcEEEESA_EENS1_10StringHashENS1_8StringEqENS8_INS4_4pairIKSA_SA_EEEEE10emplace_atIJRKSG_EEEvmDpOT_.cold.2, symObjAddr: 0xA57C, symBinAddr: 0x158510, symSize: 0x24 }
  - { offset: 0x285BDB, size: 0x8, addend: 0x0, symName: __ZN4absl12lts_2024011618container_internal12raw_hash_setINS1_17FlatHashMapPolicyINSt3__112basic_stringIcNS4_11char_traitsIcEENS4_9allocatorIcEEEESA_EENS1_10StringHashENS1_8StringEqENS8_INS4_4pairIKSA_SA_EEEEE10emplace_atIJRKSG_EEEvmDpOT_.cold.1, symObjAddr: 0xA554, symBinAddr: 0x1584E8, symSize: 0x28 }
  - { offset: 0x285C61, size: 0x8, addend: 0x0, symName: __ZN4absl12lts_2024011618container_internal12raw_hash_setINS1_17FlatHashMapPolicyINSt3__112basic_stringIcNS4_11char_traitsIcEENS4_9allocatorIcEEEESA_EENS1_10StringHashENS1_8StringEqENS8_INS4_4pairIKSA_SA_EEEEE8iterator21skip_empty_or_deletedEv, symObjAddr: 0x7A98, symBinAddr: 0x31268, symSize: 0x68 }
  - { offset: 0x285DC5, size: 0x8, addend: 0x0, symName: __ZN4absl12lts_2024011618container_internaleqERKNS1_12raw_hash_setINS1_17FlatHashMapPolicyINSt3__112basic_stringIcNS4_11char_traitsIcEENS4_9allocatorIcEEEESA_EENS1_10StringHashENS1_8StringEqENS8_INS4_4pairIKSA_SA_EEEEE8iteratorESL_.cold.4, symObjAddr: 0xA660, symBinAddr: 0x158584, symSize: 0x44 }
  - { offset: 0x285DF4, size: 0x8, addend: 0x0, symName: __ZN4absl12lts_2024011618container_internaleqERKNS1_12raw_hash_setINS1_17FlatHashMapPolicyINSt3__112basic_stringIcNS4_11char_traitsIcEENS4_9allocatorIcEEEESA_EENS1_10StringHashENS1_8StringEqENS8_INS4_4pairIKSA_SA_EEEEE8iteratorESL_.cold.3, symObjAddr: 0xA638, symBinAddr: 0x15855C, symSize: 0x28 }
  - { offset: 0x285E39, size: 0x8, addend: 0x0, symName: __ZN4absl12lts_2024011618container_internaleqERKNS1_12raw_hash_setINS1_17FlatHashMapPolicyINSt3__112basic_stringIcNS4_11char_traitsIcEENS4_9allocatorIcEEEESA_EENS1_10StringHashENS1_8StringEqENS8_INS4_4pairIKSA_SA_EEEEE8iteratorESL_.cold.1, symObjAddr: 0xA5E8, symBinAddr: 0x158534, symSize: 0x28 }
  - { offset: 0x285EB7, size: 0x8, addend: 0x0, symName: __ZNK4absl12lts_2024011618container_internal12raw_hash_setINS1_17FlatHashMapPolicyINSt3__112basic_stringIcNS4_11char_traitsIcEENS4_9allocatorIcEEEESA_EENS1_10StringHashENS1_8StringEqENS8_INS4_4pairIKSA_SA_EEEEE8iteratordeEv.cold.3, symObjAddr: 0xA73C, symBinAddr: 0x158660, symSize: 0x4C }
  - { offset: 0x285EE6, size: 0x8, addend: 0x0, symName: __ZNK4absl12lts_2024011618container_internal12raw_hash_setINS1_17FlatHashMapPolicyINSt3__112basic_stringIcNS4_11char_traitsIcEENS4_9allocatorIcEEEESA_EENS1_10StringHashENS1_8StringEqENS8_INS4_4pairIKSA_SA_EEEEE8iteratordeEv.cold.2, symObjAddr: 0xA6F0, symBinAddr: 0x158614, symSize: 0x4C }
  - { offset: 0x285F15, size: 0x8, addend: 0x0, symName: __ZNK4absl12lts_2024011618container_internal12raw_hash_setINS1_17FlatHashMapPolicyINSt3__112basic_stringIcNS4_11char_traitsIcEENS4_9allocatorIcEEEESA_EENS1_10StringHashENS1_8StringEqENS8_INS4_4pairIKSA_SA_EEEEE8iteratordeEv.cold.1, symObjAddr: 0xA6A4, symBinAddr: 0x1585C8, symSize: 0x4C }
  - { offset: 0x285FCA, size: 0x8, addend: 0x0, symName: __ZN4absl12lts_2024011618container_internal12raw_hash_setINS1_17FlatHashMapPolicyINSt3__112basic_stringIcNS4_11char_traitsIcEENS4_9allocatorIcEEEESA_EENS1_10StringHashENS1_8StringEqENS8_INS4_4pairIKSA_SA_EEEEE4findISA_EENSI_8iteratorERKT_m, symObjAddr: 0x7D18, symBinAddr: 0x314E8, symSize: 0x144 }
  - { offset: 0x2864BC, size: 0x8, addend: 0x0, symName: __ZNK4absl12lts_2024011618container_internal12raw_hash_setINS1_17FlatHashMapPolicyINSt3__112basic_stringIcNS4_11char_traitsIcEENS4_9allocatorIcEEEESA_EENS1_10StringHashENS1_8StringEqENS8_INS4_4pairIKSA_SA_EEEEE12EqualElementISA_EclISA_JRKNS4_21piecewise_construct_tENS4_5tupleIJRSF_EEESR_EEEbRKT_DpOT0_, symObjAddr: 0x7E5C, symBinAddr: 0x3162C, symSize: 0x70 }
  - { offset: 0x28667D, size: 0x8, addend: 0x0, symName: __ZNK4absl12lts_2024011618container_internal12raw_hash_setINS1_17FlatHashMapPolicyINSt3__112basic_stringIcNS4_11char_traitsIcEENS4_9allocatorIcEEEESA_EENS1_10StringHashENS1_8StringEqENS8_INS4_4pairIKSA_SA_EEEEE12EqualElementISA_EclISA_JRKNS4_21piecewise_construct_tENS4_5tupleIJRSF_EEESR_EEEbRKT_DpOT0_, symObjAddr: 0x7E5C, symBinAddr: 0x3162C, symSize: 0x70 }
  - { offset: 0x286828, size: 0x8, addend: 0x0, symName: __ZN4absl12lts_2024011618container_internal12raw_hash_setINS1_17FlatHashMapPolicyINSt3__112basic_stringIcNS4_11char_traitsIcEENS4_9allocatorIcEEEESA_EENS1_10StringHashENS1_8StringEqENS8_INS4_4pairIKSA_SA_EEEEE4findISA_EENSI_8iteratorERKT_m.cold.3, symObjAddr: 0xA7D4, symBinAddr: 0x1586D4, symSize: 0x28 }
  - { offset: 0x286840, size: 0x8, addend: 0x0, symName: __ZN4absl12lts_2024011618container_internal12raw_hash_setINS1_17FlatHashMapPolicyINSt3__112basic_stringIcNS4_11char_traitsIcEENS4_9allocatorIcEEEESA_EENS1_10StringHashENS1_8StringEqENS8_INS4_4pairIKSA_SA_EEEEE4findISA_EENSI_8iteratorERKT_m.cold.1, symObjAddr: 0xA788, symBinAddr: 0x1586AC, symSize: 0x28 }
  - { offset: 0x286928, size: 0x8, addend: 0x0, symName: __ZN4absl12lts_2024011618container_internal12raw_hash_setINS1_17FlatHashMapPolicyINSt3__112basic_stringIcNS4_11char_traitsIcEENS4_9allocatorIcEEEESA_EENS1_10StringHashENS1_8StringEqENS8_INS4_4pairIKSA_SA_EEEEE8iteratorppEv.cold.3, symObjAddr: 0xA894, symBinAddr: 0x158794, symSize: 0x4C }
  - { offset: 0x286957, size: 0x8, addend: 0x0, symName: __ZN4absl12lts_2024011618container_internal12raw_hash_setINS1_17FlatHashMapPolicyINSt3__112basic_stringIcNS4_11char_traitsIcEENS4_9allocatorIcEEEESA_EENS1_10StringHashENS1_8StringEqENS8_INS4_4pairIKSA_SA_EEEEE8iteratorppEv.cold.2, symObjAddr: 0xA848, symBinAddr: 0x158748, symSize: 0x4C }
  - { offset: 0x286986, size: 0x8, addend: 0x0, symName: __ZN4absl12lts_2024011618container_internal12raw_hash_setINS1_17FlatHashMapPolicyINSt3__112basic_stringIcNS4_11char_traitsIcEENS4_9allocatorIcEEEESA_EENS1_10StringHashENS1_8StringEqENS8_INS4_4pairIKSA_SA_EEEEE8iteratorppEv.cold.1, symObjAddr: 0xA7FC, symBinAddr: 0x1586FC, symSize: 0x4C }
  - { offset: 0x286C8E, size: 0x8, addend: 0x0, symName: __ZNSt3__120__shared_ptr_emplaceIN8firebase9firestore6remote9Datastore15CallCredentialsENS_9allocatorIS5_EEEC2B8ne200100IJES7_Li0EEES7_DpOT_, symObjAddr: 0x8044, symBinAddr: 0x317BC, symSize: 0x5C }
  - { offset: 0x286DB1, size: 0x8, addend: 0x0, symName: __ZNSt3__19allocatorIN8firebase9firestore6remote9Datastore15CallCredentialsEE9constructB8ne200100IS5_JEEEvPT_DpOT0_, symObjAddr: 0x8104, symBinAddr: 0x3187C, symSize: 0x88 }
  - { offset: 0x286FE1, size: 0x8, addend: 0x0, symName: __ZNSt3__120__shared_ptr_emplaceIN8firebase9firestore6remote9Datastore15CallCredentialsENS_9allocatorIS5_EEED1Ev, symObjAddr: 0x80A0, symBinAddr: 0x31818, symSize: 0x14 }
  - { offset: 0x287003, size: 0x8, addend: 0x0, symName: __ZNSt3__120__shared_ptr_emplaceIN8firebase9firestore6remote9Datastore15CallCredentialsENS_9allocatorIS5_EEED1Ev, symObjAddr: 0x80A0, symBinAddr: 0x31818, symSize: 0x14 }
  - { offset: 0x287038, size: 0x8, addend: 0x0, symName: __ZNSt3__120__shared_ptr_emplaceIN8firebase9firestore6remote9Datastore15CallCredentialsENS_9allocatorIS5_EEED0Ev, symObjAddr: 0x80B4, symBinAddr: 0x3182C, symSize: 0x24 }
  - { offset: 0x287102, size: 0x8, addend: 0x0, symName: __ZNSt3__120__shared_ptr_emplaceIN8firebase9firestore6remote9Datastore15CallCredentialsENS_9allocatorIS5_EEE16__on_zero_sharedEv, symObjAddr: 0x80D8, symBinAddr: 0x31850, symSize: 0x28 }
  - { offset: 0x287192, size: 0x8, addend: 0x0, symName: __ZNSt3__19allocatorIN8firebase9firestore6remote9Datastore15CallCredentialsEE7destroyB8ne200100EPS5_, symObjAddr: 0x828C, symBinAddr: 0x31A04, symSize: 0x38 }
  - { offset: 0x287346, size: 0x8, addend: 0x0, symName: __ZNSt3__120__shared_ptr_emplaceIN8firebase9firestore6remote9Datastore15CallCredentialsENS_9allocatorIS5_EEE21__on_zero_shared_weakEv, symObjAddr: 0x8100, symBinAddr: 0x31878, symSize: 0x4 }
  - { offset: 0x287377, size: 0x8, addend: 0x0, symName: __ZNSt3__120__shared_ptr_emplaceIN8firebase9firestore6remote9Datastore15CallCredentialsENS_9allocatorIS5_EEE21__on_zero_shared_weakEv, symObjAddr: 0x8100, symBinAddr: 0x31878, symSize: 0x4 }
  - { offset: 0x287399, size: 0x8, addend: 0x0, symName: __ZNSt3__120__shared_ptr_emplaceIN8firebase9firestore6remote9Datastore15CallCredentialsENS_9allocatorIS5_EEE21__on_zero_shared_weakEv, symObjAddr: 0x8100, symBinAddr: 0x31878, symSize: 0x4 }
  - { offset: 0x2873BC, size: 0x8, addend: 0x0, symName: __ZNSt3__120__shared_ptr_emplaceIN8firebase9firestore6remote9Datastore15CallCredentialsENS_9allocatorIS5_EEE21__on_zero_shared_weakEv, symObjAddr: 0x8100, symBinAddr: 0x31878, symSize: 0x4 }
  - { offset: 0x2873F3, size: 0x8, addend: 0x0, symName: __ZNSt3__120__shared_ptr_emplaceIN8firebase9firestore6remote9Datastore15CallCredentialsENS_9allocatorIS5_EEE21__on_zero_shared_weakEv, symObjAddr: 0x8100, symBinAddr: 0x31878, symSize: 0x4 }
  - { offset: 0x2874A8, size: 0x8, addend: 0x0, symName: __ZN8firebase9firestore4util8StatusOrINS0_11credentials9AuthTokenEEC2Ev, symObjAddr: 0x818C, symBinAddr: 0x31904, symSize: 0xA0 }
  - { offset: 0x287842, size: 0x8, addend: 0x0, symName: __ZN8firebase9firestore4util17internal_statusor12StatusOrDataINS0_11credentials9AuthTokenEEC2EONS1_6StatusE, symObjAddr: 0x822C, symBinAddr: 0x319A4, symSize: 0x60 }
  - { offset: 0x287B92, size: 0x8, addend: 0x0, symName: __ZN8firebase9firestore4util17internal_statusor12StatusOrDataINS0_11credentials9AuthTokenEED2Ev, symObjAddr: 0x82C4, symBinAddr: 0x31A3C, symSize: 0x50 }
  - { offset: 0x287FF3, size: 0x8, addend: 0x0, symName: '__ZNSt3__110__function6__funcIZN8firebase9firestore6remote9Datastore24ResumeRpcWithCredentialsERKNS_8functionIFvRKNS3_4util8StatusOrINS3_11credentials9AuthTokenEEERKNS_12basic_stringIcNS_11char_traitsIcEENS_9allocatorIcEEEEEEEE3$_1NSH_ISQ_EEFvSB_EED1Ev', symObjAddr: 0x83D0, symBinAddr: 0x31A8C, symSize: 0x6C }
  - { offset: 0x2881F6, size: 0x8, addend: 0x0, symName: '__ZNSt3__110__function6__funcIZN8firebase9firestore6remote9Datastore24ResumeRpcWithCredentialsERKNS_8functionIFvRKNS3_4util8StatusOrINS3_11credentials9AuthTokenEEERKNS_12basic_stringIcNS_11char_traitsIcEENS_9allocatorIcEEEEEEEE3$_1NSH_ISQ_EEFvSB_EED0Ev', symObjAddr: 0x843C, symBinAddr: 0x31AF8, symSize: 0x6C }
  - { offset: 0x288591, size: 0x8, addend: 0x0, symName: '__ZNKSt3__110__function6__funcIZN8firebase9firestore6remote9Datastore24ResumeRpcWithCredentialsERKNS_8functionIFvRKNS3_4util8StatusOrINS3_11credentials9AuthTokenEEERKNS_12basic_stringIcNS_11char_traitsIcEENS_9allocatorIcEEEEEEEE3$_1NSH_ISQ_EEFvSB_EE7__cloneEv', symObjAddr: 0x84A8, symBinAddr: 0x31B64, symSize: 0xB8 }
  - { offset: 0x288AE2, size: 0x8, addend: 0x0, symName: '__ZNKSt3__110__function6__funcIZN8firebase9firestore6remote9Datastore24ResumeRpcWithCredentialsERKNS_8functionIFvRKNS3_4util8StatusOrINS3_11credentials9AuthTokenEEERKNS_12basic_stringIcNS_11char_traitsIcEENS_9allocatorIcEEEEEEEE3$_1NSH_ISQ_EEFvSB_EE7__cloneEPNS0_6__baseISS_EE', symObjAddr: 0x8560, symBinAddr: 0x31C1C, symSize: 0xA4 }
  - { offset: 0x288E2A, size: 0x8, addend: 0x0, symName: '__ZNSt3__110__function6__funcIZN8firebase9firestore6remote9Datastore24ResumeRpcWithCredentialsERKNS_8functionIFvRKNS3_4util8StatusOrINS3_11credentials9AuthTokenEEERKNS_12basic_stringIcNS_11char_traitsIcEENS_9allocatorIcEEEEEEEE3$_1NSH_ISQ_EEFvSB_EE7destroyEv', symObjAddr: 0x8604, symBinAddr: 0x31CC0, symSize: 0x8 }
  - { offset: 0x288E5C, size: 0x8, addend: 0x0, symName: '__ZNSt3__110__function12__alloc_funcIZN8firebase9firestore6remote9Datastore24ResumeRpcWithCredentialsERKNS_8functionIFvRKNS3_4util8StatusOrINS3_11credentials9AuthTokenEEERKNS_12basic_stringIcNS_11char_traitsIcEENS_9allocatorIcEEEEEEEE3$_1NSH_ISQ_EEFvSB_EE7destroyB8ne200100Ev', symObjAddr: 0x873C, symBinAddr: 0x31DF8, symSize: 0x64 }
  - { offset: 0x288FEC, size: 0x8, addend: 0x0, symName: '__ZNSt3__110__function6__funcIZN8firebase9firestore6remote9Datastore24ResumeRpcWithCredentialsERKNS_8functionIFvRKNS3_4util8StatusOrINS3_11credentials9AuthTokenEEERKNS_12basic_stringIcNS_11char_traitsIcEENS_9allocatorIcEEEEEEEE3$_1NSH_ISQ_EEFvSB_EE18destroy_deallocateEv', symObjAddr: 0x860C, symBinAddr: 0x31CC8, symSize: 0x28 }
  - { offset: 0x28943D, size: 0x8, addend: 0x0, symName: '__ZNSt3__110__function6__funcIZN8firebase9firestore6remote9Datastore24ResumeRpcWithCredentialsERKNS_8functionIFvRKNS3_4util8StatusOrINS3_11credentials9AuthTokenEEERKNS_12basic_stringIcNS_11char_traitsIcEENS_9allocatorIcEEEEEEEE3$_1NSH_ISQ_EEFvSB_EEclEOSB_', symObjAddr: 0x8634, symBinAddr: 0x31CF0, symSize: 0xC0 }
  - { offset: 0x289B47, size: 0x8, addend: 0x0, symName: __ZN8firebase9firestore4util17internal_statusor12StatusOrDataINS0_11credentials9AuthTokenEEC2ERKS6_, symObjAddr: 0x8DFC, symBinAddr: 0x324B8, symSize: 0x44 }
  - { offset: 0x289D4B, size: 0x8, addend: 0x0, symName: '__ZNKSt3__110__function6__funcIZN8firebase9firestore6remote9Datastore24ResumeRpcWithCredentialsERKNS_8functionIFvRKNS3_4util8StatusOrINS3_11credentials9AuthTokenEEERKNS_12basic_stringIcNS_11char_traitsIcEENS_9allocatorIcEEEEEEEE3$_1NSH_ISQ_EEFvSB_EE6targetERKSt9type_info', symObjAddr: 0x86F4, symBinAddr: 0x31DB0, symSize: 0x3C }
  - { offset: 0x289D95, size: 0x8, addend: 0x0, symName: '__ZNKSt3__110__function6__funcIZN8firebase9firestore6remote9Datastore24ResumeRpcWithCredentialsERKNS_8functionIFvRKNS3_4util8StatusOrINS3_11credentials9AuthTokenEEERKNS_12basic_stringIcNS_11char_traitsIcEENS_9allocatorIcEEEEEEEE3$_1NSH_ISQ_EEFvSB_EE11target_typeEv', symObjAddr: 0x8730, symBinAddr: 0x31DEC, symSize: 0xC }
  - { offset: 0x28A31A, size: 0x8, addend: 0x0, symName: __ZN8firebase9firestore4util17internal_statusor12StatusOrDataINS0_11credentials9AuthTokenEEaSERKS6_, symObjAddr: 0x8BC8, symBinAddr: 0x32284, symSize: 0x48 }
  - { offset: 0x28A3EF, size: 0x8, addend: 0x0, symName: '__ZZZN8firebase9firestore6remote9Datastore24ResumeRpcWithCredentialsERKNSt3__18functionIFvRKNS0_4util8StatusOrINS0_11credentials9AuthTokenEEERKNS3_12basic_stringIcNS3_11char_traitsIcEENS3_9allocatorIcEEEEEEEENK3$_0clERKN4absl12lts_202401168optionalIS9_EERKNSR_ISH_EEENUlvE_D1Ev', symObjAddr: 0x8B58, symBinAddr: 0x32214, symSize: 0x70 }
  - { offset: 0x28A63C, size: 0x8, addend: 0x0, symName: __ZN8firebase9firestore4util17internal_statusor12StatusOrDataINS0_11credentials9AuthTokenEE6AssignERKNS1_6StatusE, symObjAddr: 0x8CC8, symBinAddr: 0x32384, symSize: 0x54 }
  - { offset: 0x28A794, size: 0x8, addend: 0x0, symName: __ZN8firebase9firestore4util17internal_statusor12StatusOrDataINS0_11credentials9AuthTokenEE6AssignERKS5_, symObjAddr: 0x8C10, symBinAddr: 0x322CC, symSize: 0xB8 }
  - { offset: 0x28AD72, size: 0x8, addend: 0x0, symName: __ZN8firebase9firestore4util17internal_statusor12StatusOrDataINS0_11credentials9AuthTokenEE5ClearEv, symObjAddr: 0x8DB0, symBinAddr: 0x3246C, symSize: 0x4C }
  - { offset: 0x28B184, size: 0x8, addend: 0x0, symName: '__ZNSt3__110__function6__funcIZZN8firebase9firestore6remote9Datastore24ResumeRpcWithCredentialsERKNS_8functionIFvRKNS3_4util8StatusOrINS3_11credentials9AuthTokenEEERKNS_12basic_stringIcNS_11char_traitsIcEENS_9allocatorIcEEEEEEEENK3$_0clERKN4absl12lts_202401168optionalISB_EERKNST_ISJ_EEEUlvE_NSH_IS10_EEFvvEED1Ev', symObjAddr: 0x8E40, symBinAddr: 0x324FC, symSize: 0x7C }
  - { offset: 0x28B46C, size: 0x8, addend: 0x0, symName: '__ZNSt3__110__function6__funcIZZN8firebase9firestore6remote9Datastore24ResumeRpcWithCredentialsERKNS_8functionIFvRKNS3_4util8StatusOrINS3_11credentials9AuthTokenEEERKNS_12basic_stringIcNS_11char_traitsIcEENS_9allocatorIcEEEEEEEENK3$_0clERKN4absl12lts_202401168optionalISB_EERKNST_ISJ_EEEUlvE_NSH_IS10_EEFvvEED0Ev', symObjAddr: 0x8EBC, symBinAddr: 0x32578, symSize: 0x7C }
  - { offset: 0x28B8EC, size: 0x8, addend: 0x0, symName: '__ZNKSt3__110__function6__funcIZZN8firebase9firestore6remote9Datastore24ResumeRpcWithCredentialsERKNS_8functionIFvRKNS3_4util8StatusOrINS3_11credentials9AuthTokenEEERKNS_12basic_stringIcNS_11char_traitsIcEENS_9allocatorIcEEEEEEEENK3$_0clERKN4absl12lts_202401168optionalISB_EERKNST_ISJ_EEEUlvE_NSH_IS10_EEFvvEE7__cloneEv', symObjAddr: 0x8F38, symBinAddr: 0x325F4, symSize: 0xE0 }
  - { offset: 0x28BED9, size: 0x8, addend: 0x0, symName: '__ZNKSt3__110__function6__funcIZZN8firebase9firestore6remote9Datastore24ResumeRpcWithCredentialsERKNS_8functionIFvRKNS3_4util8StatusOrINS3_11credentials9AuthTokenEEERKNS_12basic_stringIcNS_11char_traitsIcEENS_9allocatorIcEEEEEEEENK3$_0clERKN4absl12lts_202401168optionalISB_EERKNST_ISJ_EEEUlvE_NSH_IS10_EEFvvEE7__cloneEPNS0_6__baseIS12_EE', symObjAddr: 0x9018, symBinAddr: 0x326D4, symSize: 0xCC }
  - { offset: 0x28C2C1, size: 0x8, addend: 0x0, symName: '__ZNSt3__110__function6__funcIZZN8firebase9firestore6remote9Datastore24ResumeRpcWithCredentialsERKNS_8functionIFvRKNS3_4util8StatusOrINS3_11credentials9AuthTokenEEERKNS_12basic_stringIcNS_11char_traitsIcEENS_9allocatorIcEEEEEEEENK3$_0clERKN4absl12lts_202401168optionalISB_EERKNST_ISJ_EEEUlvE_NSH_IS10_EEFvvEE7destroyEv', symObjAddr: 0x90E4, symBinAddr: 0x327A0, symSize: 0x8 }
  - { offset: 0x28C2F3, size: 0x8, addend: 0x0, symName: '__ZNSt3__110__function12__alloc_funcIZZN8firebase9firestore6remote9Datastore24ResumeRpcWithCredentialsERKNS_8functionIFvRKNS3_4util8StatusOrINS3_11credentials9AuthTokenEEERKNS_12basic_stringIcNS_11char_traitsIcEENS_9allocatorIcEEEEEEEENK3$_0clERKN4absl12lts_202401168optionalISB_EERKNST_ISJ_EEEUlvE_NSH_IS10_EEFvvEE7destroyB8ne200100Ev', symObjAddr: 0x9220, symBinAddr: 0x328DC, symSize: 0x74 }
  - { offset: 0x28C568, size: 0x8, addend: 0x0, symName: '__ZNSt3__110__function6__funcIZZN8firebase9firestore6remote9Datastore24ResumeRpcWithCredentialsERKNS_8functionIFvRKNS3_4util8StatusOrINS3_11credentials9AuthTokenEEERKNS_12basic_stringIcNS_11char_traitsIcEENS_9allocatorIcEEEEEEEENK3$_0clERKN4absl12lts_202401168optionalISB_EERKNST_ISJ_EEEUlvE_NSH_IS10_EEFvvEE18destroy_deallocateEv', symObjAddr: 0x90EC, symBinAddr: 0x327A8, symSize: 0x28 }
  - { offset: 0x28C6F3, size: 0x8, addend: 0x0, symName: '__ZNSt3__110__function6__funcIZZN8firebase9firestore6remote9Datastore24ResumeRpcWithCredentialsERKNS_8functionIFvRKNS3_4util8StatusOrINS3_11credentials9AuthTokenEEERKNS_12basic_stringIcNS_11char_traitsIcEENS_9allocatorIcEEEEEEEENK3$_0clERKN4absl12lts_202401168optionalISB_EERKNST_ISJ_EEEUlvE_NSH_IS10_EEFvvEEclEv', symObjAddr: 0x9114, symBinAddr: 0x327D0, symSize: 0xC4 }
  - { offset: 0x28C8F9, size: 0x8, addend: 0x0, symName: '__ZNKSt3__110__function6__funcIZZN8firebase9firestore6remote9Datastore24ResumeRpcWithCredentialsERKNS_8functionIFvRKNS3_4util8StatusOrINS3_11credentials9AuthTokenEEERKNS_12basic_stringIcNS_11char_traitsIcEENS_9allocatorIcEEEEEEEENK3$_0clERKN4absl12lts_202401168optionalISB_EERKNST_ISJ_EEEUlvE_NSH_IS10_EEFvvEE6targetERKSt9type_info', symObjAddr: 0x91D8, symBinAddr: 0x32894, symSize: 0x3C }
  - { offset: 0x28C943, size: 0x8, addend: 0x0, symName: '__ZNKSt3__110__function6__funcIZZN8firebase9firestore6remote9Datastore24ResumeRpcWithCredentialsERKNS_8functionIFvRKNS3_4util8StatusOrINS3_11credentials9AuthTokenEEERKNS_12basic_stringIcNS_11char_traitsIcEENS_9allocatorIcEEEEEEEENK3$_0clERKN4absl12lts_202401168optionalISB_EERKNST_ISJ_EEEUlvE_NSH_IS10_EEFvvEE11target_typeEv', symObjAddr: 0x9214, symBinAddr: 0x328D0, symSize: 0xC }
  - { offset: 0x28C9B7, size: 0x8, addend: 0x0, symName: '__ZNSt3__110__function6__funcIZN8firebase9firestore6remote9Datastore24ResumeRpcWithCredentialsERKNS_8functionIFvRKNS3_4util8StatusOrINS3_11credentials9AuthTokenEEERKNS_12basic_stringIcNS_11char_traitsIcEENS_9allocatorIcEEEEEEEE3$_2NSH_ISQ_EEFvNS8_ISJ_EEEED1Ev', symObjAddr: 0x9294, symBinAddr: 0x32950, symSize: 0x6C }
  - { offset: 0x28CBBA, size: 0x8, addend: 0x0, symName: '__ZNSt3__110__function6__funcIZN8firebase9firestore6remote9Datastore24ResumeRpcWithCredentialsERKNS_8functionIFvRKNS3_4util8StatusOrINS3_11credentials9AuthTokenEEERKNS_12basic_stringIcNS_11char_traitsIcEENS_9allocatorIcEEEEEEEE3$_2NSH_ISQ_EEFvNS8_ISJ_EEEED0Ev', symObjAddr: 0x9300, symBinAddr: 0x329BC, symSize: 0x6C }
  - { offset: 0x28CF55, size: 0x8, addend: 0x0, symName: '__ZNKSt3__110__function6__funcIZN8firebase9firestore6remote9Datastore24ResumeRpcWithCredentialsERKNS_8functionIFvRKNS3_4util8StatusOrINS3_11credentials9AuthTokenEEERKNS_12basic_stringIcNS_11char_traitsIcEENS_9allocatorIcEEEEEEEE3$_2NSH_ISQ_EEFvNS8_ISJ_EEEE7__cloneEv', symObjAddr: 0x936C, symBinAddr: 0x32A28, symSize: 0xB8 }
  - { offset: 0x28D4A6, size: 0x8, addend: 0x0, symName: '__ZNKSt3__110__function6__funcIZN8firebase9firestore6remote9Datastore24ResumeRpcWithCredentialsERKNS_8functionIFvRKNS3_4util8StatusOrINS3_11credentials9AuthTokenEEERKNS_12basic_stringIcNS_11char_traitsIcEENS_9allocatorIcEEEEEEEE3$_2NSH_ISQ_EEFvNS8_ISJ_EEEE7__cloneEPNS0_6__baseIST_EE', symObjAddr: 0x9424, symBinAddr: 0x32AE0, symSize: 0xA4 }
  - { offset: 0x28D7EE, size: 0x8, addend: 0x0, symName: '__ZNSt3__110__function6__funcIZN8firebase9firestore6remote9Datastore24ResumeRpcWithCredentialsERKNS_8functionIFvRKNS3_4util8StatusOrINS3_11credentials9AuthTokenEEERKNS_12basic_stringIcNS_11char_traitsIcEENS_9allocatorIcEEEEEEEE3$_2NSH_ISQ_EEFvNS8_ISJ_EEEE7destroyEv', symObjAddr: 0x94C8, symBinAddr: 0x32B84, symSize: 0x8 }
  - { offset: 0x28D906, size: 0x8, addend: 0x0, symName: '__ZNSt3__110__function6__funcIZN8firebase9firestore6remote9Datastore24ResumeRpcWithCredentialsERKNS_8functionIFvRKNS3_4util8StatusOrINS3_11credentials9AuthTokenEEERKNS_12basic_stringIcNS_11char_traitsIcEENS_9allocatorIcEEEEEEEE3$_2NSH_ISQ_EEFvNS8_ISJ_EEEE18destroy_deallocateEv', symObjAddr: 0x94D0, symBinAddr: 0x32B8C, symSize: 0x28 }
  - { offset: 0x28DC04, size: 0x8, addend: 0x0, symName: '__ZNSt3__110__function6__funcIZN8firebase9firestore6remote9Datastore24ResumeRpcWithCredentialsERKNS_8functionIFvRKNS3_4util8StatusOrINS3_11credentials9AuthTokenEEERKNS_12basic_stringIcNS_11char_traitsIcEENS_9allocatorIcEEEEEEEE3$_2NSH_ISQ_EEFvNS8_ISJ_EEEEclEOSS_', symObjAddr: 0x94F8, symBinAddr: 0x32BB4, symSize: 0x108 }
  - { offset: 0x28E350, size: 0x8, addend: 0x0, symName: '__ZNKSt3__110__function6__funcIZN8firebase9firestore6remote9Datastore24ResumeRpcWithCredentialsERKNS_8functionIFvRKNS3_4util8StatusOrINS3_11credentials9AuthTokenEEERKNS_12basic_stringIcNS_11char_traitsIcEENS_9allocatorIcEEEEEEEE3$_2NSH_ISQ_EEFvNS8_ISJ_EEEE6targetERKSt9type_info', symObjAddr: 0x9600, symBinAddr: 0x32CBC, symSize: 0x3C }
  - { offset: 0x28E39A, size: 0x8, addend: 0x0, symName: '__ZNKSt3__110__function6__funcIZN8firebase9firestore6remote9Datastore24ResumeRpcWithCredentialsERKNS_8functionIFvRKNS3_4util8StatusOrINS3_11credentials9AuthTokenEEERKNS_12basic_stringIcNS_11char_traitsIcEENS_9allocatorIcEEEEEEEE3$_2NSH_ISQ_EEFvNS8_ISJ_EEEE11target_typeEv', symObjAddr: 0x963C, symBinAddr: 0x32CF8, symSize: 0xC }
  - { offset: 0x28E478, size: 0x8, addend: 0x0, symName: __ZNSt3__112__hash_tableINS_12basic_stringIcNS_11char_traitsIcEENS_9allocatorIcEEEENS_4hashIS6_EENS_8equal_toIS6_EENS4_IS6_EEE25__emplace_unique_key_argsIS6_JRKS6_EEENS_4pairINS_15__hash_iteratorIPNS_11__hash_nodeIS6_PvEEEEbEERKT_DpOT0_, symObjAddr: 0x9724, symBinAddr: 0x32D7C, symSize: 0x25C }
  - { offset: 0x28EB9C, size: 0x8, addend: 0x0, symName: __ZNSt3__112__hash_tableINS_12basic_stringIcNS_11char_traitsIcEENS_9allocatorIcEEEENS_4hashIS6_EENS_8equal_toIS6_EENS4_IS6_EEE21__construct_node_hashIRKS6_JEEENS_10unique_ptrINS_11__hash_nodeIS6_PvEENS_22__hash_node_destructorINS4_ISJ_EEEEEEmOT_DpOT0_, symObjAddr: 0x9A2C, symBinAddr: 0x32FD8, symSize: 0xA4 }
  - { offset: 0x28EFA1, size: 0x8, addend: 0x0, symName: __ZNSt3__122__hash_node_destructorINS_9allocatorINS_11__hash_nodeINS_12basic_stringIcNS_11char_traitsIcEENS1_IcEEEEPvEEEEEclB8ne200100EPS9_, symObjAddr: 0xA168, symBinAddr: 0x3307C, symSize: 0x50 }
  - { offset: 0x28FF68, size: 0x8, addend: 0x0, symName: __ZNSt3__122__hash_node_destructorINS_9allocatorINS_11__hash_nodeINS_12basic_stringIcNS_11char_traitsIcEENS1_IcEEEEPvEEEEEclB8ne200100EPS9_, symObjAddr: 0xA168, symBinAddr: 0x3307C, symSize: 0x50 }
  - { offset: 0x290163, size: 0x8, addend: 0x0, symName: __ZNSt3__112__hash_tableINS_12basic_stringIcNS_11char_traitsIcEENS_9allocatorIcEEEENS_4hashIS6_EENS_8equal_toIS6_EENS4_IS6_EEE17__deallocate_nodeEPNS_16__hash_node_baseIPNS_11__hash_nodeIS6_PvEEEE, symObjAddr: 0xA1F0, symBinAddr: 0x33104, symSize: 0x44 }
  - { offset: 0x290474, size: 0x8, addend: 0x0, symName: _OUTLINED_FUNCTION_0, symObjAddr: 0xA8E0, symBinAddr: 0x332B0, symSize: 0x8 }
  - { offset: 0x29048C, size: 0x8, addend: 0x0, symName: _OUTLINED_FUNCTION_1, symObjAddr: 0xA8E8, symBinAddr: 0x332B8, symSize: 0xC }
  - { offset: 0x2904A4, size: 0x8, addend: 0x0, symName: _OUTLINED_FUNCTION_2, symObjAddr: 0xA8F4, symBinAddr: 0x332C4, symSize: 0xC }
  - { offset: 0x2904BC, size: 0x8, addend: 0x0, symName: _OUTLINED_FUNCTION_3, symObjAddr: 0xA900, symBinAddr: 0x332D0, symSize: 0xC }
  - { offset: 0x2925B0, size: 0x8, addend: 0x0, symName: __ZN8firebase9firestore5model14DeleteMutationC2ENS1_11DocumentKeyENS1_12PreconditionE, symObjAddr: 0x0, symBinAddr: 0x332DC, symSize: 0x3C }
  - { offset: 0x296050, size: 0x8, addend: 0x0, symName: __ZNSt3__115allocate_sharedB8ne200100IN8firebase9firestore5model14DeleteMutation3RepENS_9allocatorIS5_EEJNS3_11DocumentKeyENS3_12PreconditionEELi0EEENS_10shared_ptrIT_EERKT0_DpOT1_, symObjAddr: 0x8A8, symBinAddr: 0x338C4, symSize: 0x60 }
  - { offset: 0x298DC9, size: 0x8, addend: 0x0, symName: __ZN8firebase9firestore5model14DeleteMutationC2ENS1_11DocumentKeyENS1_12PreconditionE, symObjAddr: 0x0, symBinAddr: 0x332DC, symSize: 0x3C }
  - { offset: 0x298F0D, size: 0x8, addend: 0x0, symName: __ZN8firebase9firestore5model14DeleteMutationC1ENS1_11DocumentKeyENS1_12PreconditionE, symObjAddr: 0x3C, symBinAddr: 0x33318, symSize: 0x3C }
  - { offset: 0x299233, size: 0x8, addend: 0x0, symName: __ZN8firebase9firestore5model14DeleteMutationC2ERKNS1_8MutationE, symObjAddr: 0x78, symBinAddr: 0x33354, symSize: 0xC0 }
  - { offset: 0x299547, size: 0x8, addend: 0x0, symName: __ZNK8firebase9firestore5model8Mutation3repEv, symObjAddr: 0x40C, symBinAddr: 0x336E8, symSize: 0x74 }
  - { offset: 0x299784, size: 0x8, addend: 0x0, symName: __ZN8firebase9firestore5model14DeleteMutationC1ERKNS1_8MutationE, symObjAddr: 0x138, symBinAddr: 0x33414, symSize: 0x4 }
  - { offset: 0x2997BE, size: 0x8, addend: 0x0, symName: __ZN8firebase9firestore5model14DeleteMutationC1ERKNS1_8MutationE, symObjAddr: 0x138, symBinAddr: 0x33414, symSize: 0x4 }
  - { offset: 0x2997D7, size: 0x8, addend: 0x0, symName: __ZNK8firebase9firestore5model14DeleteMutation3Rep21ApplyToRemoteDocumentERNS1_15MutableDocumentERKNS1_14MutationResultE, symObjAddr: 0x13C, symBinAddr: 0x33418, symSize: 0x9C }
  - { offset: 0x299BC5, size: 0x8, addend: 0x0, symName: __ZNK8firebase9firestore5model14DeleteMutation3Rep16ApplyToLocalViewERNS1_15MutableDocumentEN4absl12lts_202401168optionalINS1_9FieldMaskEEERKNS_9TimestampE, symObjAddr: 0x1D8, symBinAddr: 0x334B4, symSize: 0xBC }
  - { offset: 0x299F52, size: 0x8, addend: 0x0, symName: __ZNK8firebase9firestore5model14DeleteMutation3Rep8ToStringEv, symObjAddr: 0x294, symBinAddr: 0x33570, symSize: 0x158 }
  - { offset: 0x29A545, size: 0x8, addend: 0x0, symName: __ZN8firebase9firestore5model14DeleteMutation3RepD1Ev, symObjAddr: 0x3EC, symBinAddr: 0x336C8, symSize: 0x4 }
  - { offset: 0x29A567, size: 0x8, addend: 0x0, symName: __ZN8firebase9firestore5model14DeleteMutation3RepD1Ev, symObjAddr: 0x3EC, symBinAddr: 0x336C8, symSize: 0x4 }
  - { offset: 0x29A584, size: 0x8, addend: 0x0, symName: __ZN8firebase9firestore5model14DeleteMutation3RepD1Ev, symObjAddr: 0x3EC, symBinAddr: 0x336C8, symSize: 0x4 }
  - { offset: 0x29A597, size: 0x8, addend: 0x0, symName: __ZN8firebase9firestore5model8Mutation3RepD2Ev, symObjAddr: 0x5AC, symBinAddr: 0x3375C, symSize: 0x6C }
  - { offset: 0x29A804, size: 0x8, addend: 0x0, symName: __ZN8firebase9firestore5model14DeleteMutation3RepD0Ev, symObjAddr: 0x3F0, symBinAddr: 0x336CC, symSize: 0x14 }
  - { offset: 0x29A87A, size: 0x8, addend: 0x0, symName: __ZNK8firebase9firestore5model14DeleteMutation3Rep4typeEv, symObjAddr: 0x404, symBinAddr: 0x336E0, symSize: 0x8 }
  - { offset: 0x29AE8B, size: 0x8, addend: 0x0, symName: __ZNSt3__16__treeIN8firebase9firestore5model9FieldPathENS_4lessIS4_EENS_9allocatorIS4_EEE7destroyEPNS_11__tree_nodeIS4_PvEE, symObjAddr: 0x618, symBinAddr: 0x337C8, symSize: 0x58 }
  - { offset: 0x29B0BD, size: 0x8, addend: 0x0, symName: __ZNSt3__16vectorIN8firebase9firestore5model14FieldTransformENS_9allocatorIS4_EEE16__destroy_vectorclB8ne200100Ev, symObjAddr: 0x6FC, symBinAddr: 0x33820, symSize: 0x40 }
  - { offset: 0x29B62C, size: 0x8, addend: 0x0, symName: __ZNSt3__16vectorIN8firebase9firestore5model14FieldTransformENS_9allocatorIS4_EEE22__base_destruct_at_endB8ne200100EPS4_, symObjAddr: 0x73C, symBinAddr: 0x33860, symSize: 0x64 }
  - { offset: 0x29BC04, size: 0x8, addend: 0x0, symName: __ZNSt3__120__shared_ptr_emplaceIN8firebase9firestore5model14DeleteMutation3RepENS_9allocatorIS5_EEEC2B8ne200100IJNS3_11DocumentKeyENS3_12PreconditionEES7_Li0EEES7_DpOT_, symObjAddr: 0x908, symBinAddr: 0x33924, symSize: 0x58 }
  - { offset: 0x29BEBC, size: 0x8, addend: 0x0, symName: __ZNSt3__120__shared_ptr_emplaceIN8firebase9firestore5model14DeleteMutation3RepENS_9allocatorIS5_EEED1Ev, symObjAddr: 0x960, symBinAddr: 0x3397C, symSize: 0x14 }
  - { offset: 0x29BEDE, size: 0x8, addend: 0x0, symName: __ZNSt3__120__shared_ptr_emplaceIN8firebase9firestore5model14DeleteMutation3RepENS_9allocatorIS5_EEED1Ev, symObjAddr: 0x960, symBinAddr: 0x3397C, symSize: 0x14 }
  - { offset: 0x29BF13, size: 0x8, addend: 0x0, symName: __ZNSt3__120__shared_ptr_emplaceIN8firebase9firestore5model14DeleteMutation3RepENS_9allocatorIS5_EEED0Ev, symObjAddr: 0x974, symBinAddr: 0x33990, symSize: 0x24 }
  - { offset: 0x29BFFC, size: 0x8, addend: 0x0, symName: __ZNSt3__120__shared_ptr_emplaceIN8firebase9firestore5model14DeleteMutation3RepENS_9allocatorIS5_EEE16__on_zero_sharedEv, symObjAddr: 0x998, symBinAddr: 0x339B4, symSize: 0xC }
  - { offset: 0x29C024, size: 0x8, addend: 0x0, symName: __ZNSt3__120__shared_ptr_emplaceIN8firebase9firestore5model14DeleteMutation3RepENS_9allocatorIS5_EEE16__on_zero_sharedEv, symObjAddr: 0x998, symBinAddr: 0x339B4, symSize: 0xC }
  - { offset: 0x29C041, size: 0x8, addend: 0x0, symName: __ZNSt3__120__shared_ptr_emplaceIN8firebase9firestore5model14DeleteMutation3RepENS_9allocatorIS5_EEE16__on_zero_sharedEv, symObjAddr: 0x998, symBinAddr: 0x339B4, symSize: 0xC }
  - { offset: 0x29C05E, size: 0x8, addend: 0x0, symName: __ZNSt3__120__shared_ptr_emplaceIN8firebase9firestore5model14DeleteMutation3RepENS_9allocatorIS5_EEE16__on_zero_sharedEv, symObjAddr: 0x998, symBinAddr: 0x339B4, symSize: 0xC }
  - { offset: 0x29C088, size: 0x8, addend: 0x0, symName: __ZNSt3__120__shared_ptr_emplaceIN8firebase9firestore5model14DeleteMutation3RepENS_9allocatorIS5_EEE21__on_zero_shared_weakEv, symObjAddr: 0x9A4, symBinAddr: 0x339C0, symSize: 0x4 }
  - { offset: 0x29C0B9, size: 0x8, addend: 0x0, symName: __ZNSt3__120__shared_ptr_emplaceIN8firebase9firestore5model14DeleteMutation3RepENS_9allocatorIS5_EEE21__on_zero_shared_weakEv, symObjAddr: 0x9A4, symBinAddr: 0x339C0, symSize: 0x4 }
  - { offset: 0x29C0DB, size: 0x8, addend: 0x0, symName: __ZNSt3__120__shared_ptr_emplaceIN8firebase9firestore5model14DeleteMutation3RepENS_9allocatorIS5_EEE21__on_zero_shared_weakEv, symObjAddr: 0x9A4, symBinAddr: 0x339C0, symSize: 0x4 }
  - { offset: 0x29C0FE, size: 0x8, addend: 0x0, symName: __ZNSt3__120__shared_ptr_emplaceIN8firebase9firestore5model14DeleteMutation3RepENS_9allocatorIS5_EEE21__on_zero_shared_weakEv, symObjAddr: 0x9A4, symBinAddr: 0x339C0, symSize: 0x4 }
  - { offset: 0x29C134, size: 0x8, addend: 0x0, symName: __ZNSt3__120__shared_ptr_emplaceIN8firebase9firestore5model14DeleteMutation3RepENS_9allocatorIS5_EEE21__on_zero_shared_weakEv, symObjAddr: 0x9A4, symBinAddr: 0x339C0, symSize: 0x4 }
  - { offset: 0x29DF32, size: 0x8, addend: 0x0, symName: __ZN8firebase9firestore4core9Direction9AscendingE, symObjAddr: 0x5D0, symBinAddr: 0x162400, symSize: 0x0 }
  - { offset: 0x29DF46, size: 0x8, addend: 0x0, symName: __ZN8firebase9firestore4core9Direction10DescendingE, symObjAddr: 0x5D4, symBinAddr: 0x162404, symSize: 0x0 }
  - { offset: 0x29DF53, size: 0x8, addend: 0x0, symName: __ZN8firebase9firestore4corelsERNSt3__113basic_ostreamIcNS2_11char_traitsIcEEEERKNS1_9DirectionE, symObjAddr: 0x34, symBinAddr: 0x339F8, symSize: 0xA0 }
  - { offset: 0x2A1753, size: 0x8, addend: 0x0, symName: __ZNK8firebase9firestore4core9Direction11CanonicalIdEv, symObjAddr: 0x0, symBinAddr: 0x339C4, symSize: 0x24 }
  - { offset: 0x2A193A, size: 0x8, addend: 0x0, symName: __ZNK8firebase9firestore4core9Direction7ApplyToENS0_4util16ComparisonResultE, symObjAddr: 0x24, symBinAddr: 0x339E8, symSize: 0x10 }
  - { offset: 0x2A7262, size: 0x8, addend: 0x0, symName: __ZN8firebase9firestore5modellsERNSt3__113basic_ostreamIcNS2_11char_traitsIcEEEERKNS1_8DocumentE, symObjAddr: 0x0, symBinAddr: 0x33A98, symSize: 0x88 }
  - { offset: 0x2A9A04, size: 0x8, addend: 0x0, symName: __ZNK8firebase9firestore29_google_firestore_v1_Document8ToStringEi, symObjAddr: 0x0, symBinAddr: 0x33B20, symSize: 0x2F8 }
  - { offset: 0x2A9A28, size: 0x8, addend: 0x0, symName: __ZN8firebase9firestore35google_firestore_v1_Document_fieldsE, symObjAddr: 0x3098, symBinAddr: 0x206B98, symSize: 0x0 }
  - { offset: 0x2A9A42, size: 0x8, addend: 0x0, symName: __ZN8firebase9firestore47google_firestore_v1_Document_FieldsEntry_fieldsE, symObjAddr: 0x3038, symBinAddr: 0x206B38, symSize: 0x0 }
  - { offset: 0x2A9A5C, size: 0x8, addend: 0x0, symName: __ZN8firebase9firestore32google_firestore_v1_Value_fieldsE, symObjAddr: 0x3138, symBinAddr: 0x206C38, symSize: 0x0 }
  - { offset: 0x2A9A76, size: 0x8, addend: 0x0, symName: __ZN8firebase9firestore37google_firestore_v1_ArrayValue_fieldsE, symObjAddr: 0x32F8, symBinAddr: 0x206DF8, symSize: 0x0 }
  - { offset: 0x2A9A90, size: 0x8, addend: 0x0, symName: __ZN8firebase9firestore35google_firestore_v1_MapValue_fieldsE, symObjAddr: 0x32B8, symBinAddr: 0x206DB8, symSize: 0x0 }
  - { offset: 0x2A9AAA, size: 0x8, addend: 0x0, symName: __ZN8firebase9firestore47google_firestore_v1_MapValue_FieldsEntry_fieldsE, symObjAddr: 0x3338, symBinAddr: 0x206E38, symSize: 0x0 }
  - { offset: 0x2A9FAF, size: 0x8, addend: 0x0, symName: __ZN8firebase9firestore6nanopb17PrintMessageFieldINS0_41_google_firestore_v1_Document_FieldsEntryEEENSt3__112basic_stringIcNS4_11char_traitsIcEENS4_9allocatorIcEEEEN4absl12lts_2024011611string_viewERKT_ib, symObjAddr: 0x48C, symBinAddr: 0x33E18, symSize: 0x27C }
  - { offset: 0x2ABE30, size: 0x8, addend: 0x0, symName: __ZN8firebase9firestore6nanopb17PrintMessageFieldINS0_29_google_firestore_v1_MapValueEEENSt3__112basic_stringIcNS4_11char_traitsIcEENS4_9allocatorIcEEEEN4absl12lts_2024011611string_viewERKT_ib, symObjAddr: 0x1908, symBinAddr: 0x34B40, symSize: 0x27C }
  - { offset: 0x2ACB3C, size: 0x8, addend: 0x0, symName: __ZN8firebase9firestore6nanopb19PrintPrimitiveFieldIxEENSt3__112basic_stringIcNS3_11char_traitsIcEENS3_9allocatorIcEEEEN4absl12lts_2024011611string_viewET_ib, symObjAddr: 0x15D0, symBinAddr: 0x34808, symSize: 0x194 }
  - { offset: 0x2AD83A, size: 0x8, addend: 0x0, symName: __ZN8firebase9firestore6nanopb17PrintMessageFieldINS0_31_google_firestore_v1_ArrayValueEEENSt3__112basic_stringIcNS4_11char_traitsIcEENS4_9allocatorIcEEEEN4absl12lts_2024011611string_viewERKT_ib, symObjAddr: 0x1E00, symBinAddr: 0x35038, symSize: 0x27C }
  - { offset: 0x2AE546, size: 0x8, addend: 0x0, symName: __ZN8firebase9firestore6nanopb19PrintPrimitiveFieldIdEENSt3__112basic_stringIcNS3_11char_traitsIcEENS3_9allocatorIcEEEEN4absl12lts_2024011611string_viewET_ib, symObjAddr: 0x1764, symBinAddr: 0x3499C, symSize: 0x1A4 }
  - { offset: 0x2AED56, size: 0x8, addend: 0x0, symName: __ZN8firebase9firestore6nanopb17PrintMessageFieldINS0_19_google_type_LatLngEEENSt3__112basic_stringIcNS4_11char_traitsIcEENS4_9allocatorIcEEEEN4absl12lts_2024011611string_viewERKT_ib, symObjAddr: 0x1B84, symBinAddr: 0x34DBC, symSize: 0x27C }
  - { offset: 0x2AFA40, size: 0x8, addend: 0x0, symName: __ZN8firebase9firestore6nanopb14PrintEnumFieldINS0_26_google_protobuf_NullValueEEENSt3__112basic_stringIcNS4_11char_traitsIcEENS4_9allocatorIcEEEEN4absl12lts_2024011611string_viewET_ib, symObjAddr: 0x207C, symBinAddr: 0x352B4, symSize: 0x168 }
  - { offset: 0x2AFFBA, size: 0x8, addend: 0x0, symName: __ZN8firebase9firestore6nanopb17PrintMessageFieldINS0_41_google_firestore_v1_MapValue_FieldsEntryEEENSt3__112basic_stringIcNS4_11char_traitsIcEENS4_9allocatorIcEEEEN4absl12lts_2024011611string_viewERKT_ib, symObjAddr: 0x261C, symBinAddr: 0x35854, symSize: 0x27C }
  - { offset: 0x2B389E, size: 0x8, addend: 0x0, symName: __ZNK8firebase9firestore29_google_firestore_v1_Document8ToStringEi, symObjAddr: 0x0, symBinAddr: 0x33B20, symSize: 0x2F8 }
  - { offset: 0x2B4D7B, size: 0x8, addend: 0x0, symName: __ZNK8firebase9firestore41_google_firestore_v1_Document_FieldsEntry8ToStringEi, symObjAddr: 0xA4C, symBinAddr: 0x34094, symSize: 0x204 }
  - { offset: 0x2B5C95, size: 0x8, addend: 0x0, symName: __ZNK8firebase9firestore26_google_firestore_v1_Value8ToStringEi, symObjAddr: 0xECC, symBinAddr: 0x34298, symSize: 0x570 }
  - { offset: 0x2B70B3, size: 0x8, addend: 0x0, symName: __ZNK8firebase9firestore29_google_firestore_v1_MapValue8ToStringEi, symObjAddr: 0x2404, symBinAddr: 0x3563C, symSize: 0x218 }
  - { offset: 0x2B7D12, size: 0x8, addend: 0x0, symName: __ZNK8firebase9firestore31_google_firestore_v1_ArrayValue8ToStringEi, symObjAddr: 0x21E4, symBinAddr: 0x3541C, symSize: 0x220 }
  - { offset: 0x2B89DD, size: 0x8, addend: 0x0, symName: __ZNK8firebase9firestore41_google_firestore_v1_MapValue_FieldsEntry8ToStringEi, symObjAddr: 0x2898, symBinAddr: 0x35AD0, symSize: 0x204 }
  - { offset: 0x2BB6D0, size: 0x8, addend: 0x0, symName: __ZNK8firebase9firestore3api14DocumentChange4HashEv, symObjAddr: 0x0, symBinAddr: 0x35CD4, symSize: 0x44 }
  - { offset: 0x2BBF09, size: 0x8, addend: 0x0, symName: __ZN8firebase9firestore3apieqERKNS1_14DocumentChangeES4_, symObjAddr: 0x44, symBinAddr: 0x35D18, symSize: 0x1B4 }
  - { offset: 0x2BF2EC, size: 0x8, addend: 0x0, symName: __ZNK8firebase9firestore3api14DocumentChange4HashEv, symObjAddr: 0x0, symBinAddr: 0x35CD4, symSize: 0x44 }
  - { offset: 0x2BF6CB, size: 0x8, addend: 0x0, symName: __ZNK8firebase9firestore3api14DocumentChange8documentEv, symObjAddr: 0x1F8, symBinAddr: 0x35ECC, symSize: 0x94 }
  - { offset: 0x2BF999, size: 0x8, addend: 0x0, symName: __ZN4absl12lts_2024011617optional_internal23optional_data_dtor_baseIN8firebase9firestore5model8DocumentELb0EE8destructEv, symObjAddr: 0x324, symBinAddr: 0x35FF8, symSize: 0x3C }
  - { offset: 0x2BFA66, size: 0x8, addend: 0x0, symName: __ZN8firebase9firestore3api16DocumentSnapshotD1Ev, symObjAddr: 0x28C, symBinAddr: 0x35F60, symSize: 0x30 }
  - { offset: 0x2BFD6D, size: 0x8, addend: 0x0, symName: __ZN4absl12lts_2024011617optional_internal18optional_data_baseIN8firebase9firestore5model8DocumentEE9constructIJRKS6_EEEvDpOT_, symObjAddr: 0x2BC, symBinAddr: 0x35F90, symSize: 0x68 }
  - { offset: 0x2BFDA0, size: 0x8, addend: 0x0, symName: __ZN4absl12lts_2024011617optional_internal18optional_data_baseIN8firebase9firestore5model8DocumentEE9constructIJRKS6_EEEvDpOT_, symObjAddr: 0x2BC, symBinAddr: 0x35F90, symSize: 0x68 }
  - { offset: 0x2BFDC4, size: 0x8, addend: 0x0, symName: __ZN4absl12lts_2024011617optional_internal18optional_data_baseIN8firebase9firestore5model8DocumentEE9constructIJRKS6_EEEvDpOT_, symObjAddr: 0x2BC, symBinAddr: 0x35F90, symSize: 0x68 }
  - { offset: 0x2BFDE8, size: 0x8, addend: 0x0, symName: __ZN4absl12lts_2024011617optional_internal18optional_data_baseIN8firebase9firestore5model8DocumentEE9constructIJRKS6_EEEvDpOT_, symObjAddr: 0x2BC, symBinAddr: 0x35F90, symSize: 0x68 }
  - { offset: 0x2BFE0C, size: 0x8, addend: 0x0, symName: __ZN4absl12lts_2024011617optional_internal18optional_data_baseIN8firebase9firestore5model8DocumentEE9constructIJRKS6_EEEvDpOT_, symObjAddr: 0x2BC, symBinAddr: 0x35F90, symSize: 0x68 }
  - { offset: 0x2BFE30, size: 0x8, addend: 0x0, symName: __ZN4absl12lts_2024011617optional_internal18optional_data_baseIN8firebase9firestore5model8DocumentEE9constructIJRKS6_EEEvDpOT_, symObjAddr: 0x2BC, symBinAddr: 0x35F90, symSize: 0x68 }
  - { offset: 0x2BFE54, size: 0x8, addend: 0x0, symName: __ZN4absl12lts_2024011617optional_internal18optional_data_baseIN8firebase9firestore5model8DocumentEE9constructIJRKS6_EEEvDpOT_, symObjAddr: 0x2BC, symBinAddr: 0x35F90, symSize: 0x68 }
  - { offset: 0x2BFE78, size: 0x8, addend: 0x0, symName: __ZN4absl12lts_2024011617optional_internal18optional_data_baseIN8firebase9firestore5model8DocumentEE9constructIJRKS6_EEEvDpOT_, symObjAddr: 0x2BC, symBinAddr: 0x35F90, symSize: 0x68 }
  - { offset: 0x2BFE9C, size: 0x8, addend: 0x0, symName: __ZN4absl12lts_2024011617optional_internal18optional_data_baseIN8firebase9firestore5model8DocumentEE9constructIJRKS6_EEEvDpOT_, symObjAddr: 0x2BC, symBinAddr: 0x35F90, symSize: 0x68 }
  - { offset: 0x2C23B3, size: 0x8, addend: 0x0, symName: __ZN8firebase9firestore5model4impleqERKNS2_8BasePathINS1_12ResourcePathEEES7_, symObjAddr: 0x918, symBinAddr: 0x36778, symSize: 0x7C }
  - { offset: 0x2C2516, size: 0x8, addend: 0x0, symName: __ZN8firebase9firestore5model12_GLOBAL__N_115AssertValidPathERKNS1_12ResourcePathE, symObjAddr: 0xF0, symBinAddr: 0x36124, symSize: 0xAC }
  - { offset: 0x2C282F, size: 0x8, addend: 0x0, symName: __ZN8firebase9firestore5modeleqERKNS1_11DocumentKeyES4_, symObjAddr: 0x8D4, symBinAddr: 0x36734, symSize: 0x44 }
  - { offset: 0x2C2933, size: 0x8, addend: 0x0, symName: __ZN8firebase9firestore5modelltERKNS1_11DocumentKeyES4_, symObjAddr: 0x994, symBinAddr: 0x367F4, symSize: 0x1C }
  - { offset: 0x2C29A7, size: 0x8, addend: 0x0, symName: __ZN8firebase9firestore5modelgtERKNS1_11DocumentKeyES4_, symObjAddr: 0x9B0, symBinAddr: 0x36810, symSize: 0x1C }
  - { offset: 0x2C2A1B, size: 0x8, addend: 0x0, symName: __ZN8firebase9firestore5modellsERNSt3__113basic_ostreamIcNS2_11char_traitsIcEEEERKNS1_11DocumentKeyE, symObjAddr: 0xA48, symBinAddr: 0x368A8, symSize: 0x88 }
  - { offset: 0x2C31CD, size: 0x8, addend: 0x0, symName: __ZN8firebase9firestore4util4impl16RankedInvokeHashINSt3__16vectorINS4_12basic_stringIcNS4_11char_traitsIcEENS4_9allocatorIcEEEENS9_ISB_EEEEEEDTcl10InvokeHashdeclsr3stdE5beginfp_EEERKT_NS2_10HashChoiceILi3EEE, symObjAddr: 0x2028, symBinAddr: 0x36F18, symSize: 0x74 }
  - { offset: 0x2C75A0, size: 0x8, addend: 0x0, symName: __ZNSt3__115allocate_sharedB8ne200100IN8firebase9firestore5model12ResourcePathENS_9allocatorIS4_EEJRKS4_ELi0EEENS_10shared_ptrIT_EERKT0_DpOT1_, symObjAddr: 0x1144, symBinAddr: 0x36BAC, symSize: 0x58 }
  - { offset: 0x2C9A3A, size: 0x8, addend: 0x0, symName: __ZN8firebase9firestore5model11DocumentKey5EmptyEv, symObjAddr: 0x6DC, symBinAddr: 0x3653C, symSize: 0xB4 }
  - { offset: 0x2C9A5C, size: 0x8, addend: 0x0, symName: __ZZN8firebase9firestore5model11DocumentKey5EmptyEvE5empty, symObjAddr: 0x4C360, symBinAddr: 0x2191B8, symSize: 0x0 }
  - { offset: 0x2CA192, size: 0x8, addend: 0x0, symName: __ZN8firebase9firestore5model11DocumentKeyC2Ev, symObjAddr: 0x0, symBinAddr: 0x36034, symSize: 0x4C }
  - { offset: 0x2CA3BA, size: 0x8, addend: 0x0, symName: __ZN8firebase9firestore5model11DocumentKeyC1Ev, symObjAddr: 0x4C, symBinAddr: 0x36080, symSize: 0x4C }
  - { offset: 0x2CA5F7, size: 0x8, addend: 0x0, symName: __ZN8firebase9firestore5model11DocumentKeyC2ERKNS1_12ResourcePathE, symObjAddr: 0x98, symBinAddr: 0x360CC, symSize: 0x58 }
  - { offset: 0x2CA8CB, size: 0x8, addend: 0x0, symName: __ZN8firebase9firestore5model11DocumentKeyC1ERKNS1_12ResourcePathE, symObjAddr: 0x19C, symBinAddr: 0x361D0, symSize: 0x4 }
  - { offset: 0x2CA905, size: 0x8, addend: 0x0, symName: __ZN8firebase9firestore5model11DocumentKeyC1ERKNS1_12ResourcePathE, symObjAddr: 0x19C, symBinAddr: 0x361D0, symSize: 0x4 }
  - { offset: 0x2CAB03, size: 0x8, addend: 0x0, symName: __ZN8firebase9firestore5model11DocumentKeyC2EONS1_12ResourcePathE, symObjAddr: 0x1A0, symBinAddr: 0x361D4, symSize: 0x78 }
  - { offset: 0x2CAD7A, size: 0x8, addend: 0x0, symName: __ZN8firebase9firestore5model11DocumentKeyC1EONS1_12ResourcePathE, symObjAddr: 0x218, symBinAddr: 0x3624C, symSize: 0x4 }
  - { offset: 0x2CADA4, size: 0x8, addend: 0x0, symName: __ZN8firebase9firestore5model11DocumentKeyC1EONS1_12ResourcePathE, symObjAddr: 0x218, symBinAddr: 0x3624C, symSize: 0x4 }
  - { offset: 0x2CAEB4, size: 0x8, addend: 0x0, symName: __ZN8firebase9firestore5model11DocumentKey14FromPathStringERKNSt3__112basic_stringIcNS3_11char_traitsIcEENS3_9allocatorIcEEEE, symObjAddr: 0x21C, symBinAddr: 0x36250, symSize: 0x60 }
  - { offset: 0x2CB227, size: 0x8, addend: 0x0, symName: __ZN8firebase9firestore5model11DocumentKey12FromSegmentsESt16initializer_listINSt3__112basic_stringIcNS4_11char_traitsIcEENS4_9allocatorIcEEEEE, symObjAddr: 0x27C, symBinAddr: 0x362B0, symSize: 0x78 }
  - { offset: 0x2CB52B, size: 0x8, addend: 0x0, symName: __ZNSt3__16vectorINS_12basic_stringIcNS_11char_traitsIcEENS_9allocatorIcEEEENS4_IS6_EEE16__init_with_sizeB8ne200100IPKS6_SB_EEvT_T0_m, symObjAddr: 0xD00, symBinAddr: 0x36AC4, symSize: 0x84 }
  - { offset: 0x2CB87D, size: 0x8, addend: 0x0, symName: __ZN8firebase9firestore5model11DocumentKey8FromNameERKNSt3__112basic_stringIcNS3_11char_traitsIcEENS3_9allocatorIcEEEE, symObjAddr: 0x2F4, symBinAddr: 0x36328, symSize: 0x214 }
  - { offset: 0x2CC953, size: 0x8, addend: 0x0, symName: __ZN8firebase9firestore5model11DocumentKey13IsDocumentKeyERKNS1_12ResourcePathE, symObjAddr: 0x790, symBinAddr: 0x365F0, symSize: 0x1C }
  - { offset: 0x2CC973, size: 0x8, addend: 0x0, symName: __ZN8firebase9firestore5model11DocumentKey13IsDocumentKeyERKNS1_12ResourcePathE, symObjAddr: 0x790, symBinAddr: 0x365F0, symSize: 0x1C }
  - { offset: 0x2CC98E, size: 0x8, addend: 0x0, symName: __ZN8firebase9firestore5model11DocumentKey13IsDocumentKeyERKNS1_12ResourcePathE, symObjAddr: 0x790, symBinAddr: 0x365F0, symSize: 0x1C }
  - { offset: 0x2CC9EC, size: 0x8, addend: 0x0, symName: __ZNK8firebase9firestore5model11DocumentKey9CompareToERKS2_, symObjAddr: 0x7AC, symBinAddr: 0x3660C, symSize: 0x44 }
  - { offset: 0x2CCAEA, size: 0x8, addend: 0x0, symName: __ZNK8firebase9firestore5model4impl8BasePathINS1_12ResourcePathEE9CompareToERKS4_, symObjAddr: 0x818, symBinAddr: 0x36678, symSize: 0xBC }
  - { offset: 0x2CCCA5, size: 0x8, addend: 0x0, symName: __ZNK8firebase9firestore5model11DocumentKey4pathEv, symObjAddr: 0x7F0, symBinAddr: 0x36650, symSize: 0x28 }
  - { offset: 0x2CCD76, size: 0x8, addend: 0x0, symName: __ZN8firebase9firestore5model4impl8BasePathINS1_12ResourcePathEE15CompareSegmentsERKNSt3__112basic_stringIcNS6_11char_traitsIcEENS6_9allocatorIcEEEESE_, symObjAddr: 0x1530, symBinAddr: 0x36C78, symSize: 0xA8 }
  - { offset: 0x2CCF86, size: 0x8, addend: 0x0, symName: __ZNK8firebase9firestore5model11DocumentKey4HashEv, symObjAddr: 0x9CC, symBinAddr: 0x3682C, symSize: 0x4C }
  - { offset: 0x2CD155, size: 0x8, addend: 0x0, symName: __ZNK8firebase9firestore5model11DocumentKey8ToStringEv, symObjAddr: 0xA18, symBinAddr: 0x36878, symSize: 0x30 }
  - { offset: 0x2CD356, size: 0x8, addend: 0x0, symName: __ZNK8firebase9firestore5model11DocumentKey18HasCollectionGroupEN4absl12lts_2024011611string_viewE, symObjAddr: 0xAD0, symBinAddr: 0x36930, symSize: 0xB0 }
  - { offset: 0x2CD626, size: 0x8, addend: 0x0, symName: __ZNK8firebase9firestore5model11DocumentKey18GetCollectionGroupEv, symObjAddr: 0xB80, symBinAddr: 0x369E0, symSize: 0xBC }
  - { offset: 0x2CDC27, size: 0x8, addend: 0x0, symName: __ZNK8firebase9firestore5model15DocumentKeyHashclERKNS1_11DocumentKeyE, symObjAddr: 0xC3C, symBinAddr: 0x36A9C, symSize: 0x28 }
  - { offset: 0x2CE55E, size: 0x8, addend: 0x0, symName: __ZNSt3__120__shared_ptr_emplaceIN8firebase9firestore5model12ResourcePathENS_9allocatorIS4_EEED1Ev, symObjAddr: 0x1088, symBinAddr: 0x36B48, symSize: 0x14 }
  - { offset: 0x2CE580, size: 0x8, addend: 0x0, symName: __ZNSt3__120__shared_ptr_emplaceIN8firebase9firestore5model12ResourcePathENS_9allocatorIS4_EEED1Ev, symObjAddr: 0x1088, symBinAddr: 0x36B48, symSize: 0x14 }
  - { offset: 0x2CE5B5, size: 0x8, addend: 0x0, symName: __ZNSt3__120__shared_ptr_emplaceIN8firebase9firestore5model12ResourcePathENS_9allocatorIS4_EEED0Ev, symObjAddr: 0x109C, symBinAddr: 0x36B5C, symSize: 0x24 }
  - { offset: 0x2CE6B2, size: 0x8, addend: 0x0, symName: __ZNSt3__120__shared_ptr_emplaceIN8firebase9firestore5model12ResourcePathENS_9allocatorIS4_EEE16__on_zero_sharedEv, symObjAddr: 0x10C0, symBinAddr: 0x36B80, symSize: 0x28 }
  - { offset: 0x2CE890, size: 0x8, addend: 0x0, symName: __ZNSt3__120__shared_ptr_emplaceIN8firebase9firestore5model12ResourcePathENS_9allocatorIS4_EEE21__on_zero_shared_weakEv, symObjAddr: 0x10E8, symBinAddr: 0x36BA8, symSize: 0x4 }
  - { offset: 0x2CE8C1, size: 0x8, addend: 0x0, symName: __ZNSt3__120__shared_ptr_emplaceIN8firebase9firestore5model12ResourcePathENS_9allocatorIS4_EEE21__on_zero_shared_weakEv, symObjAddr: 0x10E8, symBinAddr: 0x36BA8, symSize: 0x4 }
  - { offset: 0x2CE8E3, size: 0x8, addend: 0x0, symName: __ZNSt3__120__shared_ptr_emplaceIN8firebase9firestore5model12ResourcePathENS_9allocatorIS4_EEE21__on_zero_shared_weakEv, symObjAddr: 0x10E8, symBinAddr: 0x36BA8, symSize: 0x4 }
  - { offset: 0x2CE906, size: 0x8, addend: 0x0, symName: __ZNSt3__120__shared_ptr_emplaceIN8firebase9firestore5model12ResourcePathENS_9allocatorIS4_EEE21__on_zero_shared_weakEv, symObjAddr: 0x10E8, symBinAddr: 0x36BA8, symSize: 0x4 }
  - { offset: 0x2CE93B, size: 0x8, addend: 0x0, symName: __ZNSt3__120__shared_ptr_emplaceIN8firebase9firestore5model12ResourcePathENS_9allocatorIS4_EEE21__on_zero_shared_weakEv, symObjAddr: 0x10E8, symBinAddr: 0x36BA8, symSize: 0x4 }
  - { offset: 0x2CEA5D, size: 0x8, addend: 0x0, symName: __ZNSt3__120__shared_ptr_emplaceIN8firebase9firestore5model12ResourcePathENS_9allocatorIS4_EEEC2B8ne200100IJRKS4_ES6_Li0EEES6_DpOT_, symObjAddr: 0x119C, symBinAddr: 0x36C04, symSize: 0x74 }
  - { offset: 0x2CF313, size: 0x8, addend: 0x0, symName: __ZN8firebase9firestore5model4impl8BasePathINS1_12ResourcePathEE11IsNumericIdERKNSt3__112basic_stringIcNS6_11char_traitsIcEENS6_9allocatorIcEEEE, symObjAddr: 0x15D8, symBinAddr: 0x36D20, symSize: 0x168 }
  - { offset: 0x2CF97B, size: 0x8, addend: 0x0, symName: __ZN8firebase9firestore5model4impl8BasePathINS1_12ResourcePathEE16ExtractNumericIdERKNSt3__112basic_stringIcNS6_11char_traitsIcEENS6_9allocatorIcEEEE, symObjAddr: 0x1740, symBinAddr: 0x36E88, symSize: 0x90 }
  - { offset: 0x2D0896, size: 0x8, addend: 0x0, symName: __ZN8firebase9firestore4util4impl16RankedInvokeHashINSt3__16vectorINS4_12basic_stringIcNS4_11char_traitsIcEENS4_9allocatorIcEEEENS9_ISB_EEEEEEDTcl10InvokeHashdeclsr3stdE5beginfp_EEERKT_NS2_10HashChoiceILi3EEE, symObjAddr: 0x2028, symBinAddr: 0x36F18, symSize: 0x74 }
  - { offset: 0x2D28ED, size: 0x8, addend: 0x0, symName: __ZN8firebase9firestore4util12StringFormatIJNSt3__112basic_stringIcNS3_11char_traitsIcEENS3_9allocatorIcEEEEiEEES9_PKcDpRKT_, symObjAddr: 0x100, symBinAddr: 0x3708C, symSize: 0x98 }
  - { offset: 0x2D2C99, size: 0x8, addend: 0x0, symName: __ZN8firebase9firestore5localeqERKNS1_20DocumentKeyReferenceES4_, symObjAddr: 0x0, symBinAddr: 0x36F8C, symSize: 0x34 }
  - { offset: 0x2D527B, size: 0x8, addend: 0x0, symName: __ZNK8firebase9firestore5local20DocumentKeyReference4HashEv, symObjAddr: 0x34, symBinAddr: 0x36FC0, symSize: 0x58 }
  - { offset: 0x2D552E, size: 0x8, addend: 0x0, symName: __ZNK8firebase9firestore5local20DocumentKeyReference8ToStringEv, symObjAddr: 0x8C, symBinAddr: 0x37018, symSize: 0x74 }
  - { offset: 0x2D5A94, size: 0x8, addend: 0x0, symName: __ZNK8firebase9firestore5local20DocumentKeyReference5ByKey7CompareERKS2_S5_, symObjAddr: 0x198, symBinAddr: 0x37124, symSize: 0x48 }
  - { offset: 0x2D5BAA, size: 0x8, addend: 0x0, symName: __ZNK8firebase9firestore5local20DocumentKeyReference4ById7CompareERKS2_S5_, symObjAddr: 0x1E0, symBinAddr: 0x3716C, symSize: 0x2C }
  - { offset: 0x2D5BFF, size: 0x8, addend: 0x0, symName: __ZNK8firebase9firestore5local20DocumentKeyReference4ById7CompareERKS2_S5_, symObjAddr: 0x1E0, symBinAddr: 0x3716C, symSize: 0x2C }
  - { offset: 0x2D5C25, size: 0x8, addend: 0x0, symName: __ZNK8firebase9firestore5local20DocumentKeyReference4ById7CompareERKS2_S5_, symObjAddr: 0x1E0, symBinAddr: 0x3716C, symSize: 0x2C }
  - { offset: 0x2D836D, size: 0x8, addend: 0x0, symName: __ZNK8firebase9firestore5local20DocumentOverlayCache11GetOverlaysERNSt3__113unordered_mapINS0_5model11DocumentKeyENS5_7OverlayENS5_15DocumentKeyHashENS3_8equal_toIS6_EENS3_9allocatorINS3_4pairIKS6_S7_EEEEEERKNS3_3setIS6_NS3_4lessIS6_EENSB_IS6_EEEE, symObjAddr: 0x0, symBinAddr: 0x37198, symSize: 0x14C }
  - { offset: 0x2D8391, size: 0x8, addend: 0x0, symName: __ZNSt3__1L19piecewise_constructE, symObjAddr: 0x84A, symBinAddr: 0x162497, symSize: 0x0 }
  - { offset: 0x2E0984, size: 0x8, addend: 0x0, symName: __ZNK8firebase9firestore5local20DocumentOverlayCache11GetOverlaysERNSt3__113unordered_mapINS0_5model11DocumentKeyENS5_7OverlayENS5_15DocumentKeyHashENS3_8equal_toIS6_EENS3_9allocatorINS3_4pairIKS6_S7_EEEEEERKNS3_3setIS6_NS3_4lessIS6_EENSB_IS6_EEEE, symObjAddr: 0x0, symBinAddr: 0x37198, symSize: 0x14C }
  - { offset: 0x2E0ED9, size: 0x8, addend: 0x0, symName: __ZNSt3__112__hash_tableINS_17__hash_value_typeIN8firebase9firestore5model11DocumentKeyENS4_7OverlayEEENS_22__unordered_map_hasherIS5_S7_NS4_15DocumentKeyHashENS_8equal_toIS5_EELb1EEENS_21__unordered_map_equalIS5_S7_SB_S9_Lb1EEENS_9allocatorIS7_EEE25__emplace_unique_key_argsIS5_JRKNS_21piecewise_construct_tENS_5tupleIJRKS5_EEENSM_IJEEEEEENS_4pairINS_15__hash_iteratorIPNS_11__hash_nodeIS7_PvEEEEbEERKT_DpOT0_, symObjAddr: 0x210, symBinAddr: 0x372E4, symSize: 0x278 }
  - { offset: 0x2E17FE, size: 0x8, addend: 0x0, symName: __ZN8firebase9firestore5local20DocumentOverlayCacheD1Ev, symObjAddr: 0x14C, symBinAddr: 0x1587E0, symSize: 0x4 }
  - { offset: 0x2E1826, size: 0x8, addend: 0x0, symName: __ZN8firebase9firestore5local20DocumentOverlayCacheD0Ev, symObjAddr: 0x150, symBinAddr: 0x1587E4, symSize: 0x4 }
  - { offset: 0x2E1FF6, size: 0x8, addend: 0x0, symName: __ZNSt3__122__hash_node_destructorINS_9allocatorINS_11__hash_nodeINS_17__hash_value_typeIN8firebase9firestore5model11DocumentKeyENS6_7OverlayEEEPvEEEEEclB8ne200100EPSB_, symObjAddr: 0x6DC, symBinAddr: 0x3755C, symSize: 0x4C }
  - { offset: 0x2E2476, size: 0x8, addend: 0x0, symName: __ZNSt3__122__hash_node_destructorINS_9allocatorINS_11__hash_nodeINS_17__hash_value_typeIN8firebase9firestore5model11DocumentKeyENS6_7OverlayEEEPvEEEEEclB8ne200100EPSB_, symObjAddr: 0x6DC, symBinAddr: 0x3755C, symSize: 0x4C }
  - { offset: 0x2F50D8, size: 0x8, addend: 0x0, symName: __ZNSt3__115allocate_sharedB8ne200100IN8firebase9firestore4core18AsyncEventListenerINS3_12ViewSnapshotEEENS_9allocatorIS6_EEJRNS_10shared_ptrINS2_4util8ExecutorEEENS_10unique_ptrINS3_13EventListenerIS5_EENS_14default_deleteISG_EEEEELi0EEENS9_IT_EERKT0_DpOT1_, symObjAddr: 0x44E4, symBinAddr: 0x39E68, symSize: 0x68 }
  - { offset: 0x2F5382, size: 0x8, addend: 0x0, symName: __ZNSt3__111make_uniqueB8ne200100IN8firebase9firestore3api25QueryListenerRegistrationEJRKNS_10shared_ptrINS2_4core15FirestoreClientEEENS5_INS6_18AsyncEventListenerINS6_12ViewSnapshotEEEEENS5_INS6_13QueryListenerEEEELi0EEENS_10unique_ptrIT_NS_14default_deleteISI_EEEEDpOT0_, symObjAddr: 0x1138, symBinAddr: 0x3849C, symSize: 0x16C }
  - { offset: 0x2F5E85, size: 0x8, addend: 0x0, symName: __ZNSt3__120__throw_future_errorB8ne200100ENS_11future_errcE, symObjAddr: 0x181C, symBinAddr: 0x38648, symSize: 0x5C }
  - { offset: 0x2F810C, size: 0x8, addend: 0x0, symName: __ZNSt3__135__uninitialized_allocator_copy_implB8ne200100INS_9allocatorIN8firebase9firestore4core18DocumentViewChangeEEEPS5_S7_S7_EET2_RT_T0_T1_S8_, symObjAddr: 0x52B8, symBinAddr: 0x3A5A0, symSize: 0x90 }
  - { offset: 0x2F8268, size: 0x8, addend: 0x0, symName: __ZNSt3__119__allocate_at_leastB8ne200100INS_9allocatorIN8firebase9firestore4core18DocumentViewChangeEEEEENS_19__allocation_resultINS_16allocator_traitsIT_E7pointerEEERS9_m, symObjAddr: 0x5270, symBinAddr: 0x3A558, symSize: 0x48 }
  - { offset: 0x2F830E, size: 0x8, addend: 0x0, symName: __ZNSt3__135__uninitialized_allocator_copy_implB8ne200100INS_9allocatorIN8firebase9firestore4core18DocumentViewChangeEEEPS5_S7_S7_EET2_RT_T0_T1_S8_, symObjAddr: 0x52B8, symBinAddr: 0x3A5A0, symSize: 0x90 }
  - { offset: 0x2F95A0, size: 0x8, addend: 0x0, symName: __ZSt30__make_exception_ptr_via_throwB8ne200100INSt3__112future_errorEESt13exception_ptrRT_, symObjAddr: 0x3014, symBinAddr: 0x38EA0, symSize: 0x74 }
  - { offset: 0x2FACBE, size: 0x8, addend: 0x0, symName: __ZN8firebase9firestore4util17internal_statusor12PlacementNewINS0_3api16DocumentSnapshotEJS5_EEEvPvDpOT0_, symObjAddr: 0x3170, symBinAddr: 0x38FCC, symSize: 0x84 }
  - { offset: 0x2FACF5, size: 0x8, addend: 0x0, symName: __ZN8firebase9firestore4util17internal_statusor12PlacementNewINS0_3api16DocumentSnapshotEJS5_EEEvPvDpOT0_, symObjAddr: 0x3170, symBinAddr: 0x38FCC, symSize: 0x84 }
  - { offset: 0x2FAD17, size: 0x8, addend: 0x0, symName: __ZN8firebase9firestore4util17internal_statusor12PlacementNewINS0_3api16DocumentSnapshotEJS5_EEEvPvDpOT0_, symObjAddr: 0x3170, symBinAddr: 0x38FCC, symSize: 0x84 }
  - { offset: 0x2FAD39, size: 0x8, addend: 0x0, symName: __ZN8firebase9firestore4util17internal_statusor12PlacementNewINS0_3api16DocumentSnapshotEJS5_EEEvPvDpOT0_, symObjAddr: 0x3170, symBinAddr: 0x38FCC, symSize: 0x84 }
  - { offset: 0x2FAD5B, size: 0x8, addend: 0x0, symName: __ZN8firebase9firestore4util17internal_statusor12PlacementNewINS0_3api16DocumentSnapshotEJS5_EEEvPvDpOT0_, symObjAddr: 0x3170, symBinAddr: 0x38FCC, symSize: 0x84 }
  - { offset: 0x2FDB88, size: 0x8, addend: 0x0, symName: __ZN8firebase9firestore3apieqERKNS1_17DocumentReferenceES4_, symObjAddr: 0x12A4, symBinAddr: 0x38608, symSize: 0x24 }
  - { offset: 0x2FDBC7, size: 0x8, addend: 0x0, symName: __ZN8firebase9firestore3apieqERKNS1_17DocumentReferenceES4_, symObjAddr: 0x12A4, symBinAddr: 0x38608, symSize: 0x24 }
  - { offset: 0x2FDBE9, size: 0x8, addend: 0x0, symName: __ZN8firebase9firestore3apieqERKNS1_17DocumentReferenceES4_, symObjAddr: 0x12A4, symBinAddr: 0x38608, symSize: 0x24 }
  - { offset: 0x303DD3, size: 0x8, addend: 0x0, symName: __ZN8firebase9firestore3api17DocumentReference11GetDocumentENS1_6SourceEONSt3__110unique_ptrINS0_4core13EventListenerINS1_16DocumentSnapshotEEENS4_14default_deleteIS9_EEEE, symObjAddr: 0xB4C, symBinAddr: 0x37EB0, symSize: 0x18C }
  - { offset: 0x304553, size: 0x8, addend: 0x0, symName: __ZN8firebase9firestore3api17DocumentReference19AddSnapshotListenerENS0_4core13ListenOptionsEONSt3__110unique_ptrINS3_13EventListenerINS1_16DocumentSnapshotEEENS5_14default_deleteIS9_EEEE, symObjAddr: 0xCD8, symBinAddr: 0x3803C, symSize: 0x460 }
  - { offset: 0x305BB8, size: 0x8, addend: 0x0, symName: __ZN8firebase9firestore4core18AsyncEventListenerINS1_12ViewSnapshotEE7OnEventENS0_4util8StatusOrIS3_EE, symObjAddr: 0x4738, symBinAddr: 0x3A0BC, symSize: 0x1F4 }
  - { offset: 0x30688A, size: 0x8, addend: 0x0, symName: __ZN8firebase9firestore3api17DocumentReferenceC2ENS0_5model12ResourcePathENSt3__110shared_ptrINS1_9FirestoreEEE, symObjAddr: 0x0, symBinAddr: 0x375A8, symSize: 0x12C }
  - { offset: 0x306DE1, size: 0x8, addend: 0x0, symName: __ZN8firebase9firestore3api17DocumentReferenceC1ENS0_5model12ResourcePathENSt3__110shared_ptrINS1_9FirestoreEEE, symObjAddr: 0x17C, symBinAddr: 0x376D4, symSize: 0x4 }
  - { offset: 0x306E2A, size: 0x8, addend: 0x0, symName: __ZN8firebase9firestore3api17DocumentReferenceC1ENS0_5model12ResourcePathENSt3__110shared_ptrINS1_9FirestoreEEE, symObjAddr: 0x17C, symBinAddr: 0x376D4, symSize: 0x4 }
  - { offset: 0x30700C, size: 0x8, addend: 0x0, symName: __ZNK8firebase9firestore3api17DocumentReference4HashEv, symObjAddr: 0x180, symBinAddr: 0x376D8, symSize: 0x68 }
  - { offset: 0x307225, size: 0x8, addend: 0x0, symName: __ZNK8firebase9firestore3api17DocumentReference11document_idEv, symObjAddr: 0x1E8, symBinAddr: 0x37740, symSize: 0x18 }
  - { offset: 0x307531, size: 0x8, addend: 0x0, symName: __ZNK8firebase9firestore3api17DocumentReference6ParentEv, symObjAddr: 0x28C, symBinAddr: 0x37758, symSize: 0xD4 }
  - { offset: 0x307E6A, size: 0x8, addend: 0x0, symName: __ZNK8firebase9firestore3api17DocumentReference4PathEv, symObjAddr: 0x414, symBinAddr: 0x3782C, symSize: 0x28 }
  - { offset: 0x307F40, size: 0x8, addend: 0x0, symName: __ZNK8firebase9firestore3api17DocumentReference22GetCollectionReferenceERKNSt3__112basic_stringIcNS3_11char_traitsIcEENS3_9allocatorIcEEEE, symObjAddr: 0x43C, symBinAddr: 0x37854, symSize: 0x15C }
  - { offset: 0x30935A, size: 0x8, addend: 0x0, symName: __ZN8firebase9firestore3api17DocumentReference7SetDataEONS0_4core13ParsedSetDataENSt3__18functionIFvNS0_4util6StatusEEEE, symObjAddr: 0x64C, symBinAddr: 0x379B0, symSize: 0x16C }
  - { offset: 0x309828, size: 0x8, addend: 0x0, symName: __ZNSt3__16vectorIN8firebase9firestore5model8MutationENS_9allocatorIS4_EEE16__init_with_sizeB8ne200100IPKS4_SA_EEvT_T0_m, symObjAddr: 0x2764, symBinAddr: 0x38744, symSize: 0x98 }
  - { offset: 0x309D31, size: 0x8, addend: 0x0, symName: __ZN8firebase9firestore3api17DocumentReference10UpdateDataEONS0_4core16ParsedUpdateDataENSt3__18functionIFvNS0_4util6StatusEEEE, symObjAddr: 0x7B8, symBinAddr: 0x37B1C, symSize: 0x170 }
  - { offset: 0x30A36C, size: 0x8, addend: 0x0, symName: __ZN8firebase9firestore3api17DocumentReference14DeleteDocumentENSt3__18functionIFvNS0_4util6StatusEEEE, symObjAddr: 0x928, symBinAddr: 0x37C8C, symSize: 0x224 }
  - { offset: 0x30B0B9, size: 0x8, addend: 0x0, symName: __ZNSt3__17promiseINS_10unique_ptrIN8firebase9firestore3api20ListenerRegistrationENS_14default_deleteIS5_EEEEE9set_valueEOS8_, symObjAddr: 0x1800, symBinAddr: 0x3862C, symSize: 0x1C }
  - { offset: 0x30B100, size: 0x8, addend: 0x0, symName: __ZNSt3__120__throw_future_errorB8ne200100ENS_11future_errcE, symObjAddr: 0x181C, symBinAddr: 0x38648, symSize: 0x5C }
  - { offset: 0x30D471, size: 0x8, addend: 0x0, symName: __ZNSt3__113__assoc_stateINS_10unique_ptrIN8firebase9firestore3api20ListenerRegistrationENS_14default_deleteIS5_EEEEE9set_valueIS8_EEvOT_, symObjAddr: 0x1878, symBinAddr: 0x386A4, symSize: 0xA0 }
  - { offset: 0x30F74E, size: 0x8, addend: 0x0, symName: __ZZN8firebase9firestore3api17DocumentReference11GetDocumentENS1_6SourceEONSt3__110unique_ptrINS0_4core13EventListenerINS1_16DocumentSnapshotEEENS4_14default_deleteIS9_EEEEEN10ListenOnceD1Ev, symObjAddr: 0x2950, symBinAddr: 0x387DC, symSize: 0x48 }
  - { offset: 0x30F84B, size: 0x8, addend: 0x0, symName: __ZNSt3__17promiseINS_10unique_ptrIN8firebase9firestore3api20ListenerRegistrationENS_14default_deleteIS5_EEEEED2Ev, symObjAddr: 0x2F44, symBinAddr: 0x38DD0, symSize: 0xD0 }
  - { offset: 0x30FA31, size: 0x8, addend: 0x0, symName: __ZZN8firebase9firestore3api17DocumentReference11GetDocumentENS1_6SourceEONSt3__110unique_ptrINS0_4core13EventListenerINS1_16DocumentSnapshotEEENS4_14default_deleteIS9_EEEEEN10ListenOnceD0Ev, symObjAddr: 0x2998, symBinAddr: 0x38824, symSize: 0x48 }
  - { offset: 0x3101EF, size: 0x8, addend: 0x0, symName: __ZZN8firebase9firestore3api17DocumentReference11GetDocumentENS1_6SourceEONSt3__110unique_ptrINS0_4core13EventListenerINS1_16DocumentSnapshotEEENS4_14default_deleteIS9_EEEEEN10ListenOnce7OnEventENS0_4util8StatusOrIS8_EE, symObjAddr: 0x29E0, symBinAddr: 0x3886C, symSize: 0x480 }
  - { offset: 0x311844, size: 0x8, addend: 0x0, symName: __ZN8firebase9firestore4util17internal_statusor12StatusOrDataINS0_3api16DocumentSnapshotEEC2EOS6_, symObjAddr: 0x312C, symBinAddr: 0x38F88, symSize: 0x44 }
  - { offset: 0x3119FE, size: 0x8, addend: 0x0, symName: __ZN8firebase9firestore4util17internal_statusor12StatusOrDataINS0_3api16DocumentSnapshotEED2Ev, symObjAddr: 0x321C, symBinAddr: 0x39050, symSize: 0x48 }
  - { offset: 0x311C20, size: 0x8, addend: 0x0, symName: __ZNSt3__117__assoc_sub_state15__attach_futureB8ne200100Ev, symObjAddr: 0x3264, symBinAddr: 0x39098, symSize: 0x6C }
  - { offset: 0x311D28, size: 0x8, addend: 0x0, symName: __ZNSt3__16futureINS_10unique_ptrIN8firebase9firestore3api20ListenerRegistrationENS_14default_deleteIS5_EEEEE3getEv, symObjAddr: 0x3088, symBinAddr: 0x38F14, symSize: 0x74 }
  - { offset: 0x312030, size: 0x8, addend: 0x0, symName: __ZN8firebase9firestore4util17internal_statusor12StatusOrDataINS0_3api16DocumentSnapshotEEC2EONS1_6StatusE, symObjAddr: 0x3444, symBinAddr: 0x391D4, symSize: 0x60 }
  - { offset: 0x312042, size: 0x8, addend: 0x0, symName: __ZN8firebase9firestore4util17internal_statusor12StatusOrDataINS0_3api16DocumentSnapshotEEC2EONS1_6StatusE, symObjAddr: 0x3444, symBinAddr: 0x391D4, symSize: 0x60 }
  - { offset: 0x3123D6, size: 0x8, addend: 0x0, symName: __ZNSt3__113__assoc_stateINS_10unique_ptrIN8firebase9firestore3api20ListenerRegistrationENS_14default_deleteIS5_EEEEED1Ev, symObjAddr: 0x2E60, symBinAddr: 0x38CEC, symSize: 0x4C }
  - { offset: 0x312452, size: 0x8, addend: 0x0, symName: __ZNSt3__113__assoc_stateINS_10unique_ptrIN8firebase9firestore3api20ListenerRegistrationENS_14default_deleteIS5_EEEEED0Ev, symObjAddr: 0x2EAC, symBinAddr: 0x38D38, symSize: 0x50 }
  - { offset: 0x3124D6, size: 0x8, addend: 0x0, symName: __ZNSt3__113__assoc_stateINS_10unique_ptrIN8firebase9firestore3api20ListenerRegistrationENS_14default_deleteIS5_EEEEE16__on_zero_sharedEv, symObjAddr: 0x2EFC, symBinAddr: 0x38D88, symSize: 0x48 }
  - { offset: 0x3126CE, size: 0x8, addend: 0x0, symName: __ZNSt3__113__assoc_stateINS_10unique_ptrIN8firebase9firestore3api20ListenerRegistrationENS_14default_deleteIS5_EEEEE4moveEv, symObjAddr: 0x32D0, symBinAddr: 0x39104, symSize: 0xD0 }
  - { offset: 0x3128DC, size: 0x8, addend: 0x0, symName: __ZNSt3__16futureINS_10unique_ptrIN8firebase9firestore3api20ListenerRegistrationENS_14default_deleteIS5_EEEEE3getEv.cold.1, symObjAddr: 0x5A9C, symBinAddr: 0x1587E8, symSize: 0x28 }
  - { offset: 0x3128F7, size: 0x8, addend: 0x0, symName: __ZNSt3__16futureINS_10unique_ptrIN8firebase9firestore3api20ListenerRegistrationENS_14default_deleteIS5_EEEEE3getEv.cold.1, symObjAddr: 0x5A9C, symBinAddr: 0x1587E8, symSize: 0x28 }
  - { offset: 0x31290C, size: 0x8, addend: 0x0, symName: __ZNSt3__16futureINS_10unique_ptrIN8firebase9firestore3api20ListenerRegistrationENS_14default_deleteIS5_EEEEE3getEv.cold.1, symObjAddr: 0x5A9C, symBinAddr: 0x1587E8, symSize: 0x28 }
  - { offset: 0x312921, size: 0x8, addend: 0x0, symName: __ZNSt3__16futureINS_10unique_ptrIN8firebase9firestore3api20ListenerRegistrationENS_14default_deleteIS5_EEEEE3getEv.cold.1, symObjAddr: 0x5A9C, symBinAddr: 0x1587E8, symSize: 0x28 }
  - { offset: 0x312936, size: 0x8, addend: 0x0, symName: __ZNSt3__16futureINS_10unique_ptrIN8firebase9firestore3api20ListenerRegistrationENS_14default_deleteIS5_EEEEE3getEv.cold.1, symObjAddr: 0x5A9C, symBinAddr: 0x1587E8, symSize: 0x28 }
  - { offset: 0x31294B, size: 0x8, addend: 0x0, symName: __ZNSt3__16futureINS_10unique_ptrIN8firebase9firestore3api20ListenerRegistrationENS_14default_deleteIS5_EEEEE3getEv.cold.1, symObjAddr: 0x5A9C, symBinAddr: 0x1587E8, symSize: 0x28 }
  - { offset: 0x312C9C, size: 0x8, addend: 0x0, symName: __ZZN8firebase9firestore3api17DocumentReference19AddSnapshotListenerENS0_4core13ListenOptionsEONSt3__110unique_ptrINS3_13EventListenerINS1_16DocumentSnapshotEEENS5_14default_deleteIS9_EEEEEN9ConverterD1Ev, symObjAddr: 0x3560, symBinAddr: 0x39234, symSize: 0x54 }
  - { offset: 0x312E0D, size: 0x8, addend: 0x0, symName: __ZZN8firebase9firestore3api17DocumentReference19AddSnapshotListenerENS0_4core13ListenOptionsEONSt3__110unique_ptrINS3_13EventListenerINS1_16DocumentSnapshotEEENS5_14default_deleteIS9_EEEEEN9ConverterD0Ev, symObjAddr: 0x35B4, symBinAddr: 0x39288, symSize: 0x54 }
  - { offset: 0x31368F, size: 0x8, addend: 0x0, symName: __ZZN8firebase9firestore3api17DocumentReference19AddSnapshotListenerENS0_4core13ListenOptionsEONSt3__110unique_ptrINS3_13EventListenerINS1_16DocumentSnapshotEEENS5_14default_deleteIS9_EEEEEN9Converter7OnEventENS0_4util8StatusOrINS3_12ViewSnapshotEEE, symObjAddr: 0x3608, symBinAddr: 0x392DC, symSize: 0x518 }
  - { offset: 0x315007, size: 0x8, addend: 0x0, symName: __ZN8firebase9firestore4util17internal_statusor12StatusOrDataINS0_3api16DocumentSnapshotEEC2ERKNS1_6StatusE, symObjAddr: 0x3B84, symBinAddr: 0x39858, symSize: 0x60 }
  - { offset: 0x315228, size: 0x8, addend: 0x0, symName: __ZN8firebase9firestore4core12ViewSnapshotC2EOS2_, symObjAddr: 0x3C9C, symBinAddr: 0x398B8, symSize: 0x230 }
  - { offset: 0x315BCC, size: 0x8, addend: 0x0, symName: __ZNK8firebase9firestore9immutable9SortedMapINS0_5model11DocumentKeyENS0_4util5EmptyENS5_10ComparatorIS4_EEE8containsERKS4_, symObjAddr: 0x3FE4, symBinAddr: 0x39C00, symSize: 0x2C }
  - { offset: 0x315C1D, size: 0x8, addend: 0x0, symName: __ZNK8firebase9firestore9immutable4impl14ArraySortedMapINS0_5model11DocumentKeyENS0_4util5EmptyENS6_10ComparatorIS5_EEE8containsERKS5_, symObjAddr: 0x4010, symBinAddr: 0x39C2C, symSize: 0x94 }
  - { offset: 0x315CBF, size: 0x8, addend: 0x0, symName: __ZNSt3__16vectorIN8firebase9firestore4core18DocumentViewChangeENS_9allocatorIS4_EEE16__destroy_vectorclB8ne200100Ev, symObjAddr: 0x420C, symBinAddr: 0x39D34, symSize: 0x40 }
  - { offset: 0x315D86, size: 0x8, addend: 0x0, symName: __ZN8firebase9firestore9immutable9SortedMapINS0_5model8DocumentENS0_4util5EmptyENS3_18DocumentComparatorEED2Ev, symObjAddr: 0x42A4, symBinAddr: 0x39DCC, symSize: 0x9C }
  - { offset: 0x316081, size: 0x8, addend: 0x0, symName: __ZN8firebase9firestore4core12ViewSnapshotD1Ev, symObjAddr: 0x3B20, symBinAddr: 0x397F4, symSize: 0x64 }
  - { offset: 0x316867, size: 0x8, addend: 0x0, symName: __ZN8firebase9firestore9immutable9SortedMapINS0_5model8DocumentENS0_4util5EmptyENS3_18DocumentComparatorEEC2EOS8_, symObjAddr: 0x3ECC, symBinAddr: 0x39AE8, symSize: 0x6C }
  - { offset: 0x316DE2, size: 0x8, addend: 0x0, symName: __ZNSt3__110__function12__value_funcIFN8firebase9firestore4util16ComparisonResultERKNS3_5model8DocumentES9_EEC2B8ne200100EOSB_, symObjAddr: 0x3F38, symBinAddr: 0x39B54, symSize: 0x64 }
  - { offset: 0x316E2F, size: 0x8, addend: 0x0, symName: __ZN8firebase9firestore9immutable9SortedMapINS0_5model11DocumentKeyENS0_4util5EmptyENS5_10ComparatorIS4_EEEC2ERKS9_, symObjAddr: 0x3F9C, symBinAddr: 0x39BB8, symSize: 0x48 }
  - { offset: 0x316FDD, size: 0x8, addend: 0x0, symName: __ZNK8firebase9firestore9immutable4impl14ArraySortedMapINS0_5model11DocumentKeyENS0_4util5EmptyENS6_10ComparatorIS5_EEE8containsERKS5_, symObjAddr: 0x4010, symBinAddr: 0x39C2C, symSize: 0x94 }
  - { offset: 0x317174, size: 0x8, addend: 0x0, symName: __ZNK8firebase9firestore9immutable4impl13TreeSortedMapINS0_5model11DocumentKeyENS0_4util5EmptyENS6_10ComparatorIS5_EEE8containsERKS5_, symObjAddr: 0x40A4, symBinAddr: 0x39CC0, symSize: 0x74 }
  - { offset: 0x3175D4, size: 0x8, addend: 0x0, symName: __ZNSt3__16vectorIN8firebase9firestore4core18DocumentViewChangeENS_9allocatorIS4_EEE22__base_destruct_at_endB8ne200100EPS4_, symObjAddr: 0x424C, symBinAddr: 0x39D74, symSize: 0x58 }
  - { offset: 0x317E86, size: 0x8, addend: 0x0, symName: __ZNSt3__120__shared_ptr_emplaceIN8firebase9firestore4core18AsyncEventListenerINS3_12ViewSnapshotEEENS_9allocatorIS6_EEEC2B8ne200100IJRNS_10shared_ptrINS2_4util8ExecutorEEENS_10unique_ptrINS3_13EventListenerIS5_EENS_14default_deleteISI_EEEEES8_Li0EEES8_DpOT_, symObjAddr: 0x454C, symBinAddr: 0x39ED0, symSize: 0x4C }
  - { offset: 0x3180CD, size: 0x8, addend: 0x0, symName: __ZN8firebase9firestore4core18AsyncEventListenerINS1_12ViewSnapshotEEC2ERKNSt3__110shared_ptrINS0_4util8ExecutorEEEONS5_10unique_ptrINS1_13EventListenerIS3_EENS5_14default_deleteISE_EEEE, symObjAddr: 0x45E0, symBinAddr: 0x39F64, symSize: 0x90 }
  - { offset: 0x3182E9, size: 0x8, addend: 0x0, symName: __ZNSt3__120__shared_ptr_emplaceIN8firebase9firestore4core18AsyncEventListenerINS3_12ViewSnapshotEEENS_9allocatorIS6_EEED1Ev, symObjAddr: 0x4598, symBinAddr: 0x39F1C, symSize: 0x14 }
  - { offset: 0x31830B, size: 0x8, addend: 0x0, symName: __ZNSt3__120__shared_ptr_emplaceIN8firebase9firestore4core18AsyncEventListenerINS3_12ViewSnapshotEEENS_9allocatorIS6_EEED1Ev, symObjAddr: 0x4598, symBinAddr: 0x39F1C, symSize: 0x14 }
  - { offset: 0x318340, size: 0x8, addend: 0x0, symName: __ZNSt3__120__shared_ptr_emplaceIN8firebase9firestore4core18AsyncEventListenerINS3_12ViewSnapshotEEENS_9allocatorIS6_EEED0Ev, symObjAddr: 0x45AC, symBinAddr: 0x39F30, symSize: 0x24 }
  - { offset: 0x318429, size: 0x8, addend: 0x0, symName: __ZNSt3__120__shared_ptr_emplaceIN8firebase9firestore4core18AsyncEventListenerINS3_12ViewSnapshotEEENS_9allocatorIS6_EEE16__on_zero_sharedEv, symObjAddr: 0x45D0, symBinAddr: 0x39F54, symSize: 0xC }
  - { offset: 0x318451, size: 0x8, addend: 0x0, symName: __ZNSt3__120__shared_ptr_emplaceIN8firebase9firestore4core18AsyncEventListenerINS3_12ViewSnapshotEEENS_9allocatorIS6_EEE16__on_zero_sharedEv, symObjAddr: 0x45D0, symBinAddr: 0x39F54, symSize: 0xC }
  - { offset: 0x31846E, size: 0x8, addend: 0x0, symName: __ZNSt3__120__shared_ptr_emplaceIN8firebase9firestore4core18AsyncEventListenerINS3_12ViewSnapshotEEENS_9allocatorIS6_EEE16__on_zero_sharedEv, symObjAddr: 0x45D0, symBinAddr: 0x39F54, symSize: 0xC }
  - { offset: 0x31848B, size: 0x8, addend: 0x0, symName: __ZNSt3__120__shared_ptr_emplaceIN8firebase9firestore4core18AsyncEventListenerINS3_12ViewSnapshotEEENS_9allocatorIS6_EEE16__on_zero_sharedEv, symObjAddr: 0x45D0, symBinAddr: 0x39F54, symSize: 0xC }
  - { offset: 0x3184B5, size: 0x8, addend: 0x0, symName: __ZNSt3__120__shared_ptr_emplaceIN8firebase9firestore4core18AsyncEventListenerINS3_12ViewSnapshotEEENS_9allocatorIS6_EEE21__on_zero_shared_weakEv, symObjAddr: 0x45DC, symBinAddr: 0x39F60, symSize: 0x4 }
  - { offset: 0x3184E6, size: 0x8, addend: 0x0, symName: __ZNSt3__120__shared_ptr_emplaceIN8firebase9firestore4core18AsyncEventListenerINS3_12ViewSnapshotEEENS_9allocatorIS6_EEE21__on_zero_shared_weakEv, symObjAddr: 0x45DC, symBinAddr: 0x39F60, symSize: 0x4 }
  - { offset: 0x318508, size: 0x8, addend: 0x0, symName: __ZNSt3__120__shared_ptr_emplaceIN8firebase9firestore4core18AsyncEventListenerINS3_12ViewSnapshotEEENS_9allocatorIS6_EEE21__on_zero_shared_weakEv, symObjAddr: 0x45DC, symBinAddr: 0x39F60, symSize: 0x4 }
  - { offset: 0x31852B, size: 0x8, addend: 0x0, symName: __ZNSt3__120__shared_ptr_emplaceIN8firebase9firestore4core18AsyncEventListenerINS3_12ViewSnapshotEEENS_9allocatorIS6_EEE21__on_zero_shared_weakEv, symObjAddr: 0x45DC, symBinAddr: 0x39F60, symSize: 0x4 }
  - { offset: 0x318561, size: 0x8, addend: 0x0, symName: __ZNSt3__120__shared_ptr_emplaceIN8firebase9firestore4core18AsyncEventListenerINS3_12ViewSnapshotEEENS_9allocatorIS6_EEE21__on_zero_shared_weakEv, symObjAddr: 0x45DC, symBinAddr: 0x39F60, symSize: 0x4 }
  - { offset: 0x3186B4, size: 0x8, addend: 0x0, symName: __ZN8firebase9firestore4core18AsyncEventListenerINS1_12ViewSnapshotEED1Ev, symObjAddr: 0x4670, symBinAddr: 0x39FF4, symSize: 0x64 }
  - { offset: 0x318834, size: 0x8, addend: 0x0, symName: __ZN8firebase9firestore4core18AsyncEventListenerINS1_12ViewSnapshotEED0Ev, symObjAddr: 0x46D4, symBinAddr: 0x3A058, symSize: 0x64 }
  - { offset: 0x318ED7, size: 0x8, addend: 0x0, symName: __ZN8firebase9firestore4util17internal_statusor12StatusOrDataINS0_4core12ViewSnapshotEEC2ERKS6_, symObjAddr: 0x49A0, symBinAddr: 0x3A2B0, symSize: 0x44 }
  - { offset: 0x319105, size: 0x8, addend: 0x0, symName: __ZN8firebase9firestore4util17internal_statusor12StatusOrDataINS0_4core12ViewSnapshotEEC2EOS6_, symObjAddr: 0x55D4, symBinAddr: 0x3A8BC, symSize: 0x44 }
  - { offset: 0x3192E8, size: 0x8, addend: 0x0, symName: __ZN8firebase9firestore4util17internal_statusor12StatusOrDataINS0_4core12ViewSnapshotEED2Ev, symObjAddr: 0x57A0, symBinAddr: 0x3AA88, symSize: 0x78 }
  - { offset: 0x319752, size: 0x8, addend: 0x0, symName: __ZN8firebase9firestore4core12ViewSnapshotC2ERKS2_, symObjAddr: 0x49E4, symBinAddr: 0x3A2F4, symSize: 0xE0 }
  - { offset: 0x31A487, size: 0x8, addend: 0x0, symName: __ZN8firebase9firestore9immutable9SortedMapINS0_5model8DocumentENS0_4util5EmptyENS3_18DocumentComparatorEEC2ERKS8_, symObjAddr: 0x5074, symBinAddr: 0x3A3D4, symSize: 0xB4 }
  - { offset: 0x31A840, size: 0x8, addend: 0x0, symName: __ZNSt3__16vectorIN8firebase9firestore4core18DocumentViewChangeENS_9allocatorIS4_EEE16__init_with_sizeB8ne200100IPS4_S9_EEvT_T0_m, symObjAddr: 0x518C, symBinAddr: 0x3A488, symSize: 0x84 }
  - { offset: 0x31BF23, size: 0x8, addend: 0x0, symName: __ZNSt3__16vectorIN8firebase9firestore4core18DocumentViewChangeENS_9allocatorIS4_EEE11__vallocateB8ne200100Em, symObjAddr: 0x5210, symBinAddr: 0x3A50C, symSize: 0x4C }
  - { offset: 0x31BF8D, size: 0x8, addend: 0x0, symName: __ZNSt3__119__allocate_at_leastB8ne200100INS_9allocatorIN8firebase9firestore4core18DocumentViewChangeEEEEENS_19__allocation_resultINS_16allocator_traitsIT_E7pointerEEERS9_m, symObjAddr: 0x5270, symBinAddr: 0x3A558, symSize: 0x48 }
  - { offset: 0x31C02E, size: 0x8, addend: 0x0, symName: __ZNSt3__19allocatorIN8firebase9firestore4core18DocumentViewChangeEE9constructB8ne200100IS4_JRS4_EEEvPT_DpOT0_, symObjAddr: 0x5348, symBinAddr: 0x3A630, symSize: 0x64 }
  - { offset: 0x31C06E, size: 0x8, addend: 0x0, symName: __ZNSt3__19allocatorIN8firebase9firestore4core18DocumentViewChangeEE9constructB8ne200100IS4_JRS4_EEEvPT_DpOT0_, symObjAddr: 0x5348, symBinAddr: 0x3A630, symSize: 0x64 }
  - { offset: 0x31C090, size: 0x8, addend: 0x0, symName: __ZNSt3__19allocatorIN8firebase9firestore4core18DocumentViewChangeEE9constructB8ne200100IS4_JRS4_EEEvPT_DpOT0_, symObjAddr: 0x5348, symBinAddr: 0x3A630, symSize: 0x64 }
  - { offset: 0x31C0B2, size: 0x8, addend: 0x0, symName: __ZNSt3__19allocatorIN8firebase9firestore4core18DocumentViewChangeEE9constructB8ne200100IS4_JRS4_EEEvPT_DpOT0_, symObjAddr: 0x5348, symBinAddr: 0x3A630, symSize: 0x64 }
  - { offset: 0x31C0D4, size: 0x8, addend: 0x0, symName: __ZNSt3__19allocatorIN8firebase9firestore4core18DocumentViewChangeEE9constructB8ne200100IS4_JRS4_EEEvPT_DpOT0_, symObjAddr: 0x5348, symBinAddr: 0x3A630, symSize: 0x64 }
  - { offset: 0x31C0F6, size: 0x8, addend: 0x0, symName: __ZNSt3__19allocatorIN8firebase9firestore4core18DocumentViewChangeEE9constructB8ne200100IS4_JRS4_EEEvPT_DpOT0_, symObjAddr: 0x5348, symBinAddr: 0x3A630, symSize: 0x64 }
  - { offset: 0x31C118, size: 0x8, addend: 0x0, symName: __ZNSt3__19allocatorIN8firebase9firestore4core18DocumentViewChangeEE9constructB8ne200100IS4_JRS4_EEEvPT_DpOT0_, symObjAddr: 0x5348, symBinAddr: 0x3A630, symSize: 0x64 }
  - { offset: 0x31C13A, size: 0x8, addend: 0x0, symName: __ZNSt3__19allocatorIN8firebase9firestore4core18DocumentViewChangeEE9constructB8ne200100IS4_JRS4_EEEvPT_DpOT0_, symObjAddr: 0x5348, symBinAddr: 0x3A630, symSize: 0x64 }
  - { offset: 0x31C15C, size: 0x8, addend: 0x0, symName: __ZNSt3__19allocatorIN8firebase9firestore4core18DocumentViewChangeEE9constructB8ne200100IS4_JRS4_EEEvPT_DpOT0_, symObjAddr: 0x5348, symBinAddr: 0x3A630, symSize: 0x64 }
  - { offset: 0x31C17E, size: 0x8, addend: 0x0, symName: __ZNSt3__19allocatorIN8firebase9firestore4core18DocumentViewChangeEE9constructB8ne200100IS4_JRS4_EEEvPT_DpOT0_, symObjAddr: 0x5348, symBinAddr: 0x3A630, symSize: 0x64 }
  - { offset: 0x31C1A0, size: 0x8, addend: 0x0, symName: __ZNSt3__19allocatorIN8firebase9firestore4core18DocumentViewChangeEE9constructB8ne200100IS4_JRS4_EEEvPT_DpOT0_, symObjAddr: 0x5348, symBinAddr: 0x3A630, symSize: 0x64 }
  - { offset: 0x31C2E0, size: 0x8, addend: 0x0, symName: __ZNSt3__128__exception_guard_exceptionsINS_29_AllocatorDestroyRangeReverseINS_9allocatorIN8firebase9firestore4core18DocumentViewChangeEEEPS6_EEED2B8ne200100Ev, symObjAddr: 0x53AC, symBinAddr: 0x3A694, symSize: 0x34 }
  - { offset: 0x31C35D, size: 0x8, addend: 0x0, symName: __ZNKSt3__129_AllocatorDestroyRangeReverseINS_9allocatorIN8firebase9firestore4core18DocumentViewChangeEEEPS5_EclB8ne200100Ev, symObjAddr: 0x53E0, symBinAddr: 0x3A6C8, symSize: 0x4C }
  - { offset: 0x31C633, size: 0x8, addend: 0x0, symName: __ZNSt3__110__function6__funcIZN8firebase9firestore4core18AsyncEventListenerINS4_12ViewSnapshotEE7OnEventENS3_4util8StatusOrIS6_EEEUlvE_NS_9allocatorISB_EEFvvEED1Ev, symObjAddr: 0x542C, symBinAddr: 0x3A714, symSize: 0x3C }
  - { offset: 0x31C731, size: 0x8, addend: 0x0, symName: __ZNSt3__110__function6__funcIZN8firebase9firestore4core18AsyncEventListenerINS4_12ViewSnapshotEE7OnEventENS3_4util8StatusOrIS6_EEEUlvE_NS_9allocatorISB_EEFvvEED0Ev, symObjAddr: 0x5468, symBinAddr: 0x3A750, symSize: 0x3C }
  - { offset: 0x31C9D4, size: 0x8, addend: 0x0, symName: __ZNKSt3__110__function6__funcIZN8firebase9firestore4core18AsyncEventListenerINS4_12ViewSnapshotEE7OnEventENS3_4util8StatusOrIS6_EEEUlvE_NS_9allocatorISB_EEFvvEE7__cloneEv, symObjAddr: 0x54A4, symBinAddr: 0x3A78C, symSize: 0x64 }
  - { offset: 0x31CBEB, size: 0x8, addend: 0x0, symName: __ZNSt3__110__function12__alloc_funcIZN8firebase9firestore4core18AsyncEventListenerINS4_12ViewSnapshotEE7OnEventENS3_4util8StatusOrIS6_EEEUlvE_NS_9allocatorISB_EEFvvEEC2B8ne200100ERKSB_OSD_, symObjAddr: 0x5618, symBinAddr: 0x3A900, symSize: 0x60 }
  - { offset: 0x31CE0E, size: 0x8, addend: 0x0, symName: __ZNKSt3__110__function6__funcIZN8firebase9firestore4core18AsyncEventListenerINS4_12ViewSnapshotEE7OnEventENS3_4util8StatusOrIS6_EEEUlvE_NS_9allocatorISB_EEFvvEE7__cloneEPNS0_6__baseISE_EE, symObjAddr: 0x5508, symBinAddr: 0x3A7F0, symSize: 0x24 }
  - { offset: 0x31CE9E, size: 0x8, addend: 0x0, symName: __ZNSt3__110__function12__alloc_funcIZN8firebase9firestore4core18AsyncEventListenerINS4_12ViewSnapshotEE7OnEventENS3_4util8StatusOrIS6_EEEUlvE_NS_9allocatorISB_EEFvvEEC2B8ne200100ERKSB_RKSD_, symObjAddr: 0x5678, symBinAddr: 0x3A960, symSize: 0x60 }
  - { offset: 0x31D044, size: 0x8, addend: 0x0, symName: __ZNSt3__110__function6__funcIZN8firebase9firestore4core18AsyncEventListenerINS4_12ViewSnapshotEE7OnEventENS3_4util8StatusOrIS6_EEEUlvE_NS_9allocatorISB_EEFvvEE7destroyEv, symObjAddr: 0x552C, symBinAddr: 0x3A814, symSize: 0x28 }
  - { offset: 0x31D0E9, size: 0x8, addend: 0x0, symName: __ZNSt3__110__function6__funcIZN8firebase9firestore4core18AsyncEventListenerINS4_12ViewSnapshotEE7OnEventENS3_4util8StatusOrIS6_EEEUlvE_NS_9allocatorISB_EEFvvEE18destroy_deallocateEv, symObjAddr: 0x5554, symBinAddr: 0x3A83C, symSize: 0x30 }
  - { offset: 0x31D23E, size: 0x8, addend: 0x0, symName: __ZNSt3__110__function6__funcIZN8firebase9firestore4core18AsyncEventListenerINS4_12ViewSnapshotEE7OnEventENS3_4util8StatusOrIS6_EEEUlvE_NS_9allocatorISB_EEFvvEEclEv, symObjAddr: 0x5584, symBinAddr: 0x3A86C, symSize: 0x8 }
  - { offset: 0x31D29B, size: 0x8, addend: 0x0, symName: __ZNSt3__128__invoke_void_return_wrapperIvLb1EE6__callB8ne200100IJRZN8firebase9firestore4core18AsyncEventListenerINS5_12ViewSnapshotEE7OnEventENS4_4util8StatusOrIS7_EEEUlvE_EEEvDpOT_, symObjAddr: 0x56D8, symBinAddr: 0x3A9C0, symSize: 0xC8 }
  - { offset: 0x31D4C6, size: 0x8, addend: 0x0, symName: __ZNKSt3__110__function6__funcIZN8firebase9firestore4core18AsyncEventListenerINS4_12ViewSnapshotEE7OnEventENS3_4util8StatusOrIS6_EEEUlvE_NS_9allocatorISB_EEFvvEE6targetERKSt9type_info, symObjAddr: 0x558C, symBinAddr: 0x3A874, symSize: 0x3C }
  - { offset: 0x31D574, size: 0x8, addend: 0x0, symName: __ZNKSt3__110__function6__funcIZN8firebase9firestore4core18AsyncEventListenerINS4_12ViewSnapshotEE7OnEventENS3_4util8StatusOrIS6_EEEUlvE_NS_9allocatorISB_EEFvvEE11target_typeEv, symObjAddr: 0x55C8, symBinAddr: 0x3A8B0, symSize: 0xC }
  - { offset: 0x32833A, size: 0x8, addend: 0x0, symName: __ZNSt3__15equalB8ne200100IN8firebase9firestore4util14iterator_firstINS2_9immutable4impl17SortedMapIteratorINS_4pairINS2_5model8DocumentENS3_5EmptyEEEPKSC_NS6_16LlrbNodeIteratorINS6_8LlrbNodeISA_SB_EEEEEEEESK_EEbT_SL_T0_SM_, symObjAddr: 0x3324, symBinAddr: 0x3D038, symSize: 0x1F8 }
  - { offset: 0x32AE05, size: 0x8, addend: 0x0, symName: __ZNSt3__15equalB8ne200100IN8firebase9firestore4util14iterator_firstINS2_9immutable4impl17SortedMapIteratorINS_4pairINS2_5model8DocumentENS3_5EmptyEEEPKSC_NS6_16LlrbNodeIteratorINS6_8LlrbNodeISA_SB_EEEEEEEESK_NS_10__equal_toEEEbT_SM_T0_SN_T1_, symObjAddr: 0x351C, symBinAddr: 0x3D230, symSize: 0x500 }
  - { offset: 0x32D419, size: 0x8, addend: 0x0, symName: __ZNSt3__112__equal_implB8ne200100IN8firebase9firestore4util14iterator_firstINS2_9immutable4impl17SortedMapIteratorINS_4pairINS2_5model8DocumentENS3_5EmptyEEEPKSC_NS6_16LlrbNodeIteratorINS6_8LlrbNodeISA_SB_EEEEEEEESK_SK_SK_NS_10__equal_toENS_10__identityESM_EEbT_T0_T1_T2_RT3_RT4_RT5_, symObjAddr: 0x3A1C, symBinAddr: 0x3D730, symSize: 0x2B4 }
  - { offset: 0x32F614, size: 0x8, addend: 0x0, symName: __ZNSt3__115allocate_sharedB8ne200100IN8firebase9firestore9immutable4impl10FixedArrayINS_4pairINS2_5model11DocumentKeyENS7_8DocumentEEEEENS_9allocatorISB_EEJPKSA_RSF_ELi0EEENS_10shared_ptrIT_EERKT0_DpOT1_, symObjAddr: 0x705C, symBinAddr: 0x401D8, symSize: 0x60 }
  - { offset: 0x331056, size: 0x8, addend: 0x0, symName: __ZNSt3__123__lower_bound_bisectingB8ne200100INS_17_ClassicAlgPolicyEPKNS_4pairIN8firebase9firestore5model8DocumentENS4_4util5EmptyEEES6_NS_10__identityEZNKS4_9immutable4impl14ArraySortedMapIS6_S8_NS5_18DocumentComparatorEE11lower_boundERKS6_EUlRSA_SJ_E_EET0_SM_RKT1_NS_15iterator_traitsISM_E15difference_typeERT3_RT2_, symObjAddr: 0x8C5C, symBinAddr: 0x41B30, symSize: 0x98 }
  - { offset: 0x331246, size: 0x8, addend: 0x0, symName: __ZNSt3__115allocate_sharedB8ne200100IN8firebase9firestore9immutable4impl10FixedArrayINS_4pairINS2_5model8DocumentENS2_4util5EmptyEEEEENS_9allocatorISC_EEJPKSB_RSG_ELi0EEENS_10shared_ptrIT_EERKT0_DpOT1_, symObjAddr: 0x8CF4, symBinAddr: 0x41BC8, symSize: 0x60 }
  - { offset: 0x33127E, size: 0x8, addend: 0x0, symName: __ZNSt3__115allocate_sharedB8ne200100IN8firebase9firestore9immutable4impl10FixedArrayINS_4pairINS2_5model8DocumentENS2_4util5EmptyEEEEENS_9allocatorISC_EEJPKSB_RSG_ELi0EEENS_10shared_ptrIT_EERKT0_DpOT1_, symObjAddr: 0x8CF4, symBinAddr: 0x41BC8, symSize: 0x60 }
  - { offset: 0x3352B8, size: 0x8, addend: 0x0, symName: __ZN8firebase9firestore9immutable4impleqERKNS2_17SortedMapIteratorINSt3__14pairINS0_5model11DocumentKeyENS6_8DocumentEEEPKS9_NS2_16LlrbNodeIteratorINS2_8LlrbNodeIS7_S8_EEEEEESI_, symObjAddr: 0x5454, symBinAddr: 0x3EA90, symSize: 0x50 }
  - { offset: 0x335304, size: 0x8, addend: 0x0, symName: __ZN8firebase9firestore9immutable4impleqERKNS2_16LlrbNodeIteratorINS2_8LlrbNodeINS0_5model11DocumentKeyENS5_8DocumentEEEEESB_, symObjAddr: 0x54A4, symBinAddr: 0x3EAE0, symSize: 0x5C }
  - { offset: 0x33530E, size: 0x8, addend: 0x0, symName: __ZN8firebase9firestore9immutable4impleqERKNS2_17SortedMapIteratorINSt3__14pairINS0_5model8DocumentENS0_4util5EmptyEEEPKSA_NS2_16LlrbNodeIteratorINS2_8LlrbNodeIS7_S9_EEEEEESJ_, symObjAddr: 0x408C, symBinAddr: 0x3DDA0, symSize: 0x50 }
  - { offset: 0x33535A, size: 0x8, addend: 0x0, symName: __ZN8firebase9firestore9immutable4impleqERKNS2_16LlrbNodeIteratorINS2_8LlrbNodeINS0_5model8DocumentENS0_4util5EmptyEEEEESC_, symObjAddr: 0x40DC, symBinAddr: 0x3DDF0, symSize: 0x5C }
  - { offset: 0x335364, size: 0x8, addend: 0x0, symName: __ZN8firebase9firestore9immutable4impleqERKNS2_16LlrbNodeIteratorINS2_8LlrbNodeINS0_5model8DocumentENS0_4util5EmptyEEEEESC_, symObjAddr: 0x40DC, symBinAddr: 0x3DDF0, symSize: 0x5C }
  - { offset: 0x3353DC, size: 0x8, addend: 0x0, symName: __ZN8firebase9firestore9immutable4impleqERKNS2_16LlrbNodeIteratorINS2_8LlrbNodeINS0_5model8DocumentENS0_4util5EmptyEEEEESC_, symObjAddr: 0x40DC, symBinAddr: 0x3DDF0, symSize: 0x5C }
  - { offset: 0x3354CD, size: 0x8, addend: 0x0, symName: __ZN8firebase9firestore9immutable4impleqERKNS2_16LlrbNodeIteratorINS2_8LlrbNodeINS0_5model11DocumentKeyENS5_8DocumentEEEEESB_, symObjAddr: 0x54A4, symBinAddr: 0x3EAE0, symSize: 0x5C }
  - { offset: 0x335545, size: 0x8, addend: 0x0, symName: __ZN8firebase9firestore9immutable4impleqERKNS2_16LlrbNodeIteratorINS2_8LlrbNodeINS0_5model11DocumentKeyENS5_8DocumentEEEEESB_, symObjAddr: 0x54A4, symBinAddr: 0x3EAE0, symSize: 0x5C }
  - { offset: 0x33672E, size: 0x8, addend: 0x0, symName: __ZN8firebase9firestore5modeleqERKNS1_11DocumentSetES4_, symObjAddr: 0x12C, symBinAddr: 0x3AC2C, symSize: 0xC }
  - { offset: 0x336777, size: 0x8, addend: 0x0, symName: __ZN8firebase9firestore5modellsERNSt3__113basic_ostreamIcNS2_11char_traitsIcEEEERKNS1_11DocumentSetE, symObjAddr: 0x29C, symBinAddr: 0x3AD9C, symSize: 0x88 }
  - { offset: 0x336FCD, size: 0x8, addend: 0x0, symName: __ZN8firebase9firestore4util4impl12ToStringImplINS0_9immutable9SortedSetINS0_5model8DocumentENS6_18DocumentComparatorEEEvEENSt3__112basic_stringIcNSA_11char_traitsIcEENSA_9allocatorIcEEEERKT_NS2_14ToStringChoiceILi5EEE, symObjAddr: 0x4340, symBinAddr: 0x3E054, symSize: 0x12C }
  - { offset: 0x3378B5, size: 0x8, addend: 0x0, symName: __ZN8firebase9firestore4util4impl16RankedInvokeHashINS0_9immutable9SortedSetINS0_5model8DocumentENS6_18DocumentComparatorEEEEEDTcl10InvokeHashdeclsr3stdE5beginfp_EEERKT_NS2_10HashChoiceILi3EEE, symObjAddr: 0x4804, symBinAddr: 0x3E474, symSize: 0x18C }
  - { offset: 0x338BA4, size: 0x8, addend: 0x0, symName: __ZN4absl12lts_202401167c_equalIN8firebase9firestore9immutable9SortedSetINS3_5model8DocumentENS6_18DocumentComparatorEEES9_EEbRKT_RKT0_, symObjAddr: 0x138, symBinAddr: 0x3AC38, symSize: 0x15C }
  - { offset: 0x3396C3, size: 0x8, addend: 0x0, symName: __ZN4absl12lts_2024011616strings_internal9JoinRangeIN8firebase9firestore9immutable9SortedSetINS4_5model8DocumentENS7_18DocumentComparatorEEERZNS4_4util4impl12ToStringImplISA_vEENSt3__112basic_stringIcNSE_11char_traitsIcEENSE_9allocatorIcEEEERKT_NSC_14ToStringChoiceILi5EEEEUlPSK_RKS8_E_EESK_SN_NS0_11string_viewEOT0_, symObjAddr: 0x446C, symBinAddr: 0x3E180, symSize: 0xE8 }
  - { offset: 0x339C03, size: 0x8, addend: 0x0, symName: __ZN4absl12lts_2024011616strings_internal13JoinAlgorithmIN8firebase9firestore4util14iterator_firstINS4_9immutable4impl17SortedMapIteratorINSt3__14pairINS4_5model8DocumentENS5_5EmptyEEEPKSF_NS8_16LlrbNodeIteratorINS8_8LlrbNodeISD_SE_EEEEEEEERZNS5_4impl12ToStringImplINS7_9SortedSetISD_NSC_18DocumentComparatorEEEvEENSA_12basic_stringIcNSA_11char_traitsIcEENSA_9allocatorIcEEEERKT_NSO_14ToStringChoiceILi5EEEEUlPSY_RKSD_E_EESY_SZ_SZ_NS0_11string_viewEOT0_, symObjAddr: 0x4554, symBinAddr: 0x3E268, symSize: 0x20C }
  - { offset: 0x33AAEE, size: 0x8, addend: 0x0, symName: __ZN8firebase9firestore9immutable4impl14ArraySortedMapINS0_5model11DocumentKeyENS4_8DocumentENS0_4util10ComparatorIS5_EEE10EmptyArrayEv, symObjAddr: 0x2A10, symBinAddr: 0x3C92C, symSize: 0xA0 }
  - { offset: 0x33AB0F, size: 0x8, addend: 0x0, symName: __ZZN8firebase9firestore9immutable4impl14ArraySortedMapINS0_5model11DocumentKeyENS4_8DocumentENS0_4util10ComparatorIS5_EEE10EmptyArrayEvE11kEmptyArray, symObjAddr: 0xC538, symBinAddr: 0x218BD0, symSize: 0x0 }
  - { offset: 0x33AD07, size: 0x8, addend: 0x0, symName: __ZN8firebase9firestore9immutable4impl14ArraySortedMapINS0_5model8DocumentENS0_4util5EmptyENS4_18DocumentComparatorEE10EmptyArrayEv, symObjAddr: 0x302C, symBinAddr: 0x3CD40, symSize: 0xA0 }
  - { offset: 0x33AD28, size: 0x8, addend: 0x0, symName: __ZZN8firebase9firestore9immutable4impl14ArraySortedMapINS0_5model8DocumentENS0_4util5EmptyENS4_18DocumentComparatorEE10EmptyArrayEvE11kEmptyArray, symObjAddr: 0xC548, symBinAddr: 0x218BE0, symSize: 0x0 }
  - { offset: 0x33AE6C, size: 0x8, addend: 0x0, symName: __ZN8firebase9firestore9immutable4impl8LlrbNodeINS0_5model11DocumentKeyENS4_8DocumentEE8EmptyRepEv, symObjAddr: 0x5E38, symBinAddr: 0x3F320, symSize: 0x7C }
  - { offset: 0x33AE8C, size: 0x8, addend: 0x0, symName: __ZZN8firebase9firestore9immutable4impl8LlrbNodeINS0_5model11DocumentKeyENS4_8DocumentEE8EmptyRepEvE9empty_rep, symObjAddr: 0xC558, symBinAddr: 0x218BF0, symSize: 0x0 }
  - { offset: 0x33AECA, size: 0x8, addend: 0x0, symName: __ZN8firebase9firestore9immutable4impl8LlrbNodeINS0_5model8DocumentENS0_4util5EmptyEE8EmptyRepEv, symObjAddr: 0x7B34, symBinAddr: 0x40AE4, symSize: 0x7C }
  - { offset: 0x33AEEA, size: 0x8, addend: 0x0, symName: __ZZN8firebase9firestore9immutable4impl8LlrbNodeINS0_5model8DocumentENS0_4util5EmptyEE8EmptyRepEvE9empty_rep, symObjAddr: 0xC568, symBinAddr: 0x218C00, symSize: 0x0 }
  - { offset: 0x33B2A2, size: 0x8, addend: 0x0, symName: __ZN8firebase9firestore5model18DocumentComparator5ByKeyEv, symObjAddr: 0x0, symBinAddr: 0x3AB00, symSize: 0x94 }
  - { offset: 0x33BF10, size: 0x8, addend: 0x0, symName: __ZN8firebase9firestore5model11DocumentSetC2EONS1_18DocumentComparatorE, symObjAddr: 0x94, symBinAddr: 0x3AB94, symSize: 0x94 }
  - { offset: 0x33C107, size: 0x8, addend: 0x0, symName: __ZN8firebase9firestore9immutable9SortedMapINS0_5model8DocumentENS0_4util5EmptyENS3_18DocumentComparatorEEC1ERKS7_, symObjAddr: 0x2EFC, symBinAddr: 0x3CC10, symSize: 0xE4 }
  - { offset: 0x33C565, size: 0x8, addend: 0x0, symName: __ZN8firebase9firestore5model11DocumentSetC1EONS1_18DocumentComparatorE, symObjAddr: 0x128, symBinAddr: 0x3AC28, symSize: 0x4 }
  - { offset: 0x33C59F, size: 0x8, addend: 0x0, symName: __ZN8firebase9firestore5model11DocumentSetC1EONS1_18DocumentComparatorE, symObjAddr: 0x128, symBinAddr: 0x3AC28, symSize: 0x4 }
  - { offset: 0x33C6E0, size: 0x8, addend: 0x0, symName: __ZNK8firebase9firestore9immutable9SortedSetINS0_5model8DocumentENS3_18DocumentComparatorEE5beginEv, symObjAddr: 0x41D4, symBinAddr: 0x3DEE8, symSize: 0x78 }
  - { offset: 0x33C8C7, size: 0x8, addend: 0x0, symName: __ZNK8firebase9firestore9immutable9SortedSetINS0_5model8DocumentENS3_18DocumentComparatorEE3endEv, symObjAddr: 0x818, symBinAddr: 0x3B318, symSize: 0x78 }
  - { offset: 0x33CAAF, size: 0x8, addend: 0x0, symName: __ZNSt3__15dequeIPKN8firebase9firestore9immutable4impl8LlrbNodeINS2_5model8DocumentENS2_4util5EmptyEEENS_9allocatorISC_EEED2B8ne200100Ev, symObjAddr: 0x124C, symBinAddr: 0x3BC28, symSize: 0x98 }
  - { offset: 0x33CD60, size: 0x8, addend: 0x0, symName: __ZNK8firebase9firestore5model11DocumentSet8ToStringEv, symObjAddr: 0x294, symBinAddr: 0x3AD94, symSize: 0x8 }
  - { offset: 0x33CEAD, size: 0x8, addend: 0x0, symName: __ZNK8firebase9firestore5model11DocumentSet4HashEv, symObjAddr: 0x324, symBinAddr: 0x3AE24, symSize: 0x8 }
  - { offset: 0x33D015, size: 0x8, addend: 0x0, symName: __ZNK8firebase9firestore5model11DocumentSet11ContainsKeyERKNS1_11DocumentKeyE, symObjAddr: 0x32C, symBinAddr: 0x3AE2C, symSize: 0xC4 }
  - { offset: 0x33D393, size: 0x8, addend: 0x0, symName: __ZNK8firebase9firestore9immutable9SortedMapINS0_5model11DocumentKeyENS3_8DocumentENS0_4util10ComparatorIS4_EEE4findERKS4_, symObjAddr: 0x3F0, symBinAddr: 0x3AEF0, symSize: 0xD4 }
  - { offset: 0x33D74A, size: 0x8, addend: 0x0, symName: __ZNK8firebase9firestore9immutable9SortedMapINS0_5model11DocumentKeyENS3_8DocumentENS0_4util10ComparatorIS4_EEE3endEv, symObjAddr: 0x4C4, symBinAddr: 0x3AFC4, symSize: 0x90 }
  - { offset: 0x33D754, size: 0x8, addend: 0x0, symName: __ZNK8firebase9firestore9immutable9SortedMapINS0_5model11DocumentKeyENS3_8DocumentENS0_4util10ComparatorIS4_EEE3endEv, symObjAddr: 0x4C4, symBinAddr: 0x3AFC4, symSize: 0x90 }
  - { offset: 0x33DB76, size: 0x8, addend: 0x0, symName: __ZNK8firebase9firestore5model11DocumentSet11GetDocumentERKNS1_11DocumentKeyE, symObjAddr: 0x554, symBinAddr: 0x3B054, symSize: 0x15C }
  - { offset: 0x33E009, size: 0x8, addend: 0x0, symName: __ZNK8firebase9firestore9immutable4impl13TreeSortedMapINS0_5model11DocumentKeyENS4_8DocumentENS0_4util10ComparatorIS5_EEE4findERKS5_, symObjAddr: 0x4990, symBinAddr: 0x3E600, symSize: 0xB0 }
  - { offset: 0x33EA8B, size: 0x8, addend: 0x0, symName: __ZNK8firebase9firestore5model11DocumentSet11GetDocumentERKNS1_11DocumentKeyE, symObjAddr: 0x554, symBinAddr: 0x3B054, symSize: 0x15C }
  - { offset: 0x33F29F, size: 0x8, addend: 0x0, symName: __ZNK8firebase9firestore9immutable4impl17SortedMapIteratorINSt3__14pairINS0_5model11DocumentKeyENS6_8DocumentEEEPKS9_NS2_16LlrbNodeIteratorINS2_8LlrbNodeIS7_S8_EEEEE3getEv, symObjAddr: 0x5500, symBinAddr: 0x3EB3C, symSize: 0x2C }
  - { offset: 0x33F436, size: 0x8, addend: 0x0, symName: __ZNK8firebase9firestore5model11DocumentSet16GetFirstDocumentEv, symObjAddr: 0x6B0, symBinAddr: 0x3B1B0, symSize: 0xF0 }
  - { offset: 0x33FB28, size: 0x8, addend: 0x0, symName: __ZNK8firebase9firestore9immutable9SortedSetINS0_5model8DocumentENS3_18DocumentComparatorEE3minEv, symObjAddr: 0x7A0, symBinAddr: 0x3B2A0, symSize: 0x78 }
  - { offset: 0x33FD0F, size: 0x8, addend: 0x0, symName: __ZNK8firebase9firestore9immutable4impl17SortedMapIteratorINSt3__14pairINS0_5model8DocumentENS0_4util5EmptyEEEPKSA_NS2_16LlrbNodeIteratorINS2_8LlrbNodeIS7_S9_EEEEE3getEv, symObjAddr: 0x55B0, symBinAddr: 0x3EB68, symSize: 0x2C }
  - { offset: 0x33FD44, size: 0x8, addend: 0x0, symName: __ZNK8firebase9firestore9immutable9SortedMapINS0_5model8DocumentENS0_4util5EmptyENS3_18DocumentComparatorEE3maxEv, symObjAddr: 0x55DC, symBinAddr: 0x3EB94, symSize: 0x9C }
  - { offset: 0x33FD4F, size: 0x8, addend: 0x0, symName: __ZN4absl12lts_2024011617optional_internal23optional_data_dtor_baseIN8firebase9firestore5model8DocumentELb0EEC2IJRKS6_EEENS0_10in_place_tEDpOT_, symObjAddr: 0x11E4, symBinAddr: 0x3BBC0, symSize: 0x68 }
  - { offset: 0x3401C9, size: 0x8, addend: 0x0, symName: __ZNK8firebase9firestore9immutable4impl17SortedMapIteratorINSt3__14pairINS0_5model8DocumentENS0_4util5EmptyEEEPKSA_NS2_16LlrbNodeIteratorINS2_8LlrbNodeIS7_S9_EEEEE3getEv, symObjAddr: 0x55B0, symBinAddr: 0x3EB68, symSize: 0x2C }
  - { offset: 0x3401D4, size: 0x8, addend: 0x0, symName: __ZN8firebase9firestore4util14iterator_firstINS0_9immutable4impl17SortedMapIteratorINSt3__14pairINS0_5model8DocumentENS1_5EmptyEEEPKSB_NS4_16LlrbNodeIteratorINS4_8LlrbNodeIS9_SA_EEEEEEEC2ESI_, symObjAddr: 0x1BC4, symBinAddr: 0x3BE5C, symSize: 0xC0 }
  - { offset: 0x3404FE, size: 0x8, addend: 0x0, symName: __ZNK8firebase9firestore9immutable9SortedMapINS0_5model8DocumentENS0_4util5EmptyENS3_18DocumentComparatorEE3endEv, symObjAddr: 0x1B34, symBinAddr: 0x3BDCC, symSize: 0x90 }
  - { offset: 0x340920, size: 0x8, addend: 0x0, symName: __ZN8firebase9firestore4util14iterator_firstINS0_9immutable4impl17SortedMapIteratorINSt3__14pairINS0_5model8DocumentENS1_5EmptyEEEPKSB_NS4_16LlrbNodeIteratorINS4_8LlrbNodeIS9_SA_EEEEEEEC2ESI_, symObjAddr: 0x1BC4, symBinAddr: 0x3BE5C, symSize: 0xC0 }
  - { offset: 0x34092A, size: 0x8, addend: 0x0, symName: __ZNK8firebase9firestore5model11DocumentSet15GetLastDocumentEv, symObjAddr: 0x890, symBinAddr: 0x3B390, symSize: 0xF0 }
  - { offset: 0x34101C, size: 0x8, addend: 0x0, symName: __ZNK8firebase9firestore9immutable9SortedSetINS0_5model8DocumentENS3_18DocumentComparatorEE3maxEv, symObjAddr: 0x980, symBinAddr: 0x3B480, symSize: 0x78 }
  - { offset: 0x341203, size: 0x8, addend: 0x0, symName: __ZNK8firebase9firestore9immutable9SortedMapINS0_5model8DocumentENS0_4util5EmptyENS3_18DocumentComparatorEE3maxEv, symObjAddr: 0x55DC, symBinAddr: 0x3EB94, symSize: 0x9C }
  - { offset: 0x341521, size: 0x8, addend: 0x0, symName: __ZNK8firebase9firestore9immutable4impl13TreeSortedMapINS0_5model8DocumentENS0_4util5EmptyENS4_18DocumentComparatorEE3maxEv, symObjAddr: 0x5678, symBinAddr: 0x3EC30, symSize: 0xB8 }
  - { offset: 0x341628, size: 0x8, addend: 0x0, symName: __ZNK8firebase9firestore5model11DocumentSet7IndexOfERKNS1_11DocumentKeyE, symObjAddr: 0x9F8, symBinAddr: 0x3B4F8, symSize: 0x74 }
  - { offset: 0x341872, size: 0x8, addend: 0x0, symName: __ZNK8firebase9firestore9immutable9SortedMapINS0_5model8DocumentENS0_4util5EmptyENS3_18DocumentComparatorEE10find_indexERKS4_, symObjAddr: 0x57B4, symBinAddr: 0x3ECE8, symSize: 0x7C }
  - { offset: 0x34193B, size: 0x8, addend: 0x0, symName: __ZNK8firebase9firestore9immutable4impl13TreeSortedMapINS0_5model8DocumentENS0_4util5EmptyENS4_18DocumentComparatorEE10find_indexERKS5_, symObjAddr: 0x5830, symBinAddr: 0x3ED64, symSize: 0xC0 }
  - { offset: 0x341BB9, size: 0x8, addend: 0x0, symName: __ZNK8firebase9firestore5model11DocumentSet6insertERKN4absl12lts_202401168optionalINS1_8DocumentEEE, symObjAddr: 0xA6C, symBinAddr: 0x3B56C, symSize: 0x194 }
  - { offset: 0x342104, size: 0x8, addend: 0x0, symName: __ZNK8firebase9firestore5model11DocumentSet5eraseERKNS1_11DocumentKeyE, symObjAddr: 0xC00, symBinAddr: 0x3B700, symSize: 0x140 }
  - { offset: 0x34258B, size: 0x8, addend: 0x0, symName: __ZNK8firebase9firestore9immutable9SortedMapINS0_5model11DocumentKeyENS3_8DocumentENS0_4util10ComparatorIS4_EEE6insertERKS4_RKS5_, symObjAddr: 0xD40, symBinAddr: 0x3B840, symSize: 0x160 }
  - { offset: 0x342B96, size: 0x8, addend: 0x0, symName: __ZNK8firebase9firestore9immutable9SortedSetINS0_5model8DocumentENS3_18DocumentComparatorEE6insertERKS4_, symObjAddr: 0xEA0, symBinAddr: 0x3B9A0, symSize: 0x78 }
  - { offset: 0x342CA0, size: 0x8, addend: 0x0, symName: __ZN8firebase9firestore5model11DocumentSetC2EONS0_9immutable9SortedMapINS1_11DocumentKeyENS1_8DocumentENS0_4util10ComparatorIS5_EEEEONS3_9SortedSetIS6_NS1_18DocumentComparatorEEE, symObjAddr: 0x1524, symBinAddr: 0x3BD0C, symSize: 0x70 }
  - { offset: 0x3432B4, size: 0x8, addend: 0x0, symName: __ZNK8firebase9firestore9immutable9SortedMapINS0_5model11DocumentKeyENS3_8DocumentENS0_4util10ComparatorIS4_EEE5eraseERKS4_, symObjAddr: 0xF18, symBinAddr: 0x3BA18, symSize: 0x134 }
  - { offset: 0x343887, size: 0x8, addend: 0x0, symName: __ZNK8firebase9firestore9immutable9SortedSetINS0_5model8DocumentENS3_18DocumentComparatorEE5eraseERKS4_, symObjAddr: 0x104C, symBinAddr: 0x3BB4C, symSize: 0x74 }
  - { offset: 0x343BB7, size: 0x8, addend: 0x0, symName: __ZN8firebase9firestore9immutable4impl13TreeSortedMapINS0_5model11DocumentKeyENS4_8DocumentENS0_4util10ComparatorIS5_EEE6CreateINS2_14ArraySortedMapIS5_S6_S9_EEEESA_RKT_RKS9_, symObjAddr: 0x59C0, symBinAddr: 0x3EEA8, symSize: 0x148 }
  - { offset: 0x344217, size: 0x8, addend: 0x0, symName: __ZNK8firebase9firestore9immutable4impl13TreeSortedMapINS0_5model11DocumentKeyENS4_8DocumentENS0_4util10ComparatorIS5_EEE6insertERKS5_RKS6_, symObjAddr: 0x5B08, symBinAddr: 0x3EFF0, symSize: 0x50 }
  - { offset: 0x3443F3, size: 0x8, addend: 0x0, symName: __ZNK8firebase9firestore9immutable4impl14ArraySortedMapINS0_5model11DocumentKeyENS4_8DocumentENS0_4util10ComparatorIS5_EEE6insertERKS5_RKS6_, symObjAddr: 0x5B58, symBinAddr: 0x3F040, symSize: 0x2E0 }
