---
triple:          'arm64-apple-darwin'
binary-path:     '/Users/hady/Library/Developer/Xcode/DerivedData/App-hkmwnigatdgsoocoayvvbexwopka/Build/Intermediates.noindex/ArchiveIntermediates/App/IntermediateBuildFilesPath/UninstalledProducts/iphoneos/absl.framework/absl'
relocations:
  - { offset: 0x33, size: 0x8, addend: 0x0, symName: _abslVersionString, symObjAddr: 0x0, symBinAddr: 0x66F50, symSize: 0x0 }
  - { offset: 0x67, size: 0x8, addend: 0x0, symName: _abslVersionNumber, symObjAddr: 0x28, symBinAddr: 0x66F78, symSize: 0x0 }
  - { offset: 0xA2, size: 0x8, addend: 0x0, symName: __ZN4absl12lts_2024011618debugging_internal17AddressIsReadableEPKv, symObjAddr: 0x0, symBinAddr: 0x4000, symSize: 0x8 }
  - { offset: 0xBE, size: 0x8, addend: 0x0, symName: __ZN4absl12lts_2024011618debugging_internal17AddressIsReadableEPKv, symObjAddr: 0x0, symBinAddr: 0x4000, symSize: 0x8 }
  - { offset: 0x142, size: 0x8, addend: 0x0, symName: __ZN4absl12lts_2024011619str_format_internal13ConvertIntArgIcEEbT_NS1_24FormatConversionSpecImplEPNS1_14FormatSinkImplE, symObjAddr: 0x0, symBinAddr: 0x4008, symSize: 0x234 }
  - { offset: 0xB9B, size: 0x8, addend: 0x0, symName: __ZN4absl12lts_2024011619str_format_internal13ConvertIntArgIcEEbT_NS1_24FormatConversionSpecImplEPNS1_14FormatSinkImplE, symObjAddr: 0x0, symBinAddr: 0x4008, symSize: 0x234 }
  - { offset: 0xE81, size: 0x8, addend: 0x0, symName: __ZN4absl12lts_2024011619str_format_internal12_GLOBAL__N_117ConvertWCharTImplEwNS1_24FormatConversionSpecImplEPNS1_14FormatSinkImplE, symObjAddr: 0x234, symBinAddr: 0x423C, symSize: 0x118 }
  - { offset: 0xE94, size: 0x8, addend: 0x0, symName: __ZN4absl12lts_2024011619str_format_internal13ConvertIntArgIaEEbT_NS1_24FormatConversionSpecImplEPNS1_14FormatSinkImplE, symObjAddr: 0x688, symBinAddr: 0x4690, symSize: 0x234 }
  - { offset: 0x117A, size: 0x8, addend: 0x0, symName: __ZN4absl12lts_2024011619str_format_internal13ConvertIntArgIhEEbT_NS1_24FormatConversionSpecImplEPNS1_14FormatSinkImplE, symObjAddr: 0x8BC, symBinAddr: 0x48C4, symSize: 0x220 }
  - { offset: 0x118D, size: 0x8, addend: 0x0, symName: __ZN4absl12lts_2024011619str_format_internal13ConvertIntArgIhEEbT_NS1_24FormatConversionSpecImplEPNS1_14FormatSinkImplE, symObjAddr: 0x8BC, symBinAddr: 0x48C4, symSize: 0x220 }
  - { offset: 0x13F1, size: 0x8, addend: 0x0, symName: __ZN4absl12lts_2024011619str_format_internal13ConvertIntArgIwEEbT_NS1_24FormatConversionSpecImplEPNS1_14FormatSinkImplE, symObjAddr: 0xADC, symBinAddr: 0x4AE4, symSize: 0x22C }
  - { offset: 0x1404, size: 0x8, addend: 0x0, symName: __ZN4absl12lts_2024011619str_format_internal13ConvertIntArgIwEEbT_NS1_24FormatConversionSpecImplEPNS1_14FormatSinkImplE, symObjAddr: 0xADC, symBinAddr: 0x4AE4, symSize: 0x22C }
  - { offset: 0x16B9, size: 0x8, addend: 0x0, symName: __ZN4absl12lts_2024011619str_format_internal13ConvertIntArgIsEEbT_NS1_24FormatConversionSpecImplEPNS1_14FormatSinkImplE, symObjAddr: 0xD08, symBinAddr: 0x4D10, symSize: 0x248 }
  - { offset: 0x16CC, size: 0x8, addend: 0x0, symName: __ZN4absl12lts_2024011619str_format_internal13ConvertIntArgIsEEbT_NS1_24FormatConversionSpecImplEPNS1_14FormatSinkImplE, symObjAddr: 0xD08, symBinAddr: 0x4D10, symSize: 0x248 }
  - { offset: 0x19AC, size: 0x8, addend: 0x0, symName: __ZN4absl12lts_2024011619str_format_internal13ConvertIntArgItEEbT_NS1_24FormatConversionSpecImplEPNS1_14FormatSinkImplE, symObjAddr: 0xF50, symBinAddr: 0x4F58, symSize: 0x234 }
  - { offset: 0x19BF, size: 0x8, addend: 0x0, symName: __ZN4absl12lts_2024011619str_format_internal13ConvertIntArgItEEbT_NS1_24FormatConversionSpecImplEPNS1_14FormatSinkImplE, symObjAddr: 0xF50, symBinAddr: 0x4F58, symSize: 0x234 }
  - { offset: 0x1C1D, size: 0x8, addend: 0x0, symName: __ZN4absl12lts_2024011619str_format_internal13ConvertIntArgIiEEbT_NS1_24FormatConversionSpecImplEPNS1_14FormatSinkImplE, symObjAddr: 0x1184, symBinAddr: 0x518C, symSize: 0x250 }
  - { offset: 0x1C30, size: 0x8, addend: 0x0, symName: __ZN4absl12lts_2024011619str_format_internal13ConvertIntArgIiEEbT_NS1_24FormatConversionSpecImplEPNS1_14FormatSinkImplE, symObjAddr: 0x1184, symBinAddr: 0x518C, symSize: 0x250 }
  - { offset: 0x1ED4, size: 0x8, addend: 0x0, symName: __ZN4absl12lts_2024011619str_format_internal13ConvertIntArgIjEEbT_NS1_24FormatConversionSpecImplEPNS1_14FormatSinkImplE, symObjAddr: 0x13D4, symBinAddr: 0x53DC, symSize: 0x238 }
  - { offset: 0x1EE7, size: 0x8, addend: 0x0, symName: __ZN4absl12lts_2024011619str_format_internal13ConvertIntArgIjEEbT_NS1_24FormatConversionSpecImplEPNS1_14FormatSinkImplE, symObjAddr: 0x13D4, symBinAddr: 0x53DC, symSize: 0x238 }
  - { offset: 0x213C, size: 0x8, addend: 0x0, symName: __ZN4absl12lts_2024011619str_format_internal13ConvertIntArgIlEEbT_NS1_24FormatConversionSpecImplEPNS1_14FormatSinkImplE, symObjAddr: 0x160C, symBinAddr: 0x5614, symSize: 0x24C }
  - { offset: 0x214F, size: 0x8, addend: 0x0, symName: __ZN4absl12lts_2024011619str_format_internal13ConvertIntArgIlEEbT_NS1_24FormatConversionSpecImplEPNS1_14FormatSinkImplE, symObjAddr: 0x160C, symBinAddr: 0x5614, symSize: 0x24C }
  - { offset: 0x244D, size: 0x8, addend: 0x0, symName: __ZN4absl12lts_2024011619str_format_internal13ConvertIntArgImEEbT_NS1_24FormatConversionSpecImplEPNS1_14FormatSinkImplE, symObjAddr: 0x1858, symBinAddr: 0x5860, symSize: 0x234 }
  - { offset: 0x2460, size: 0x8, addend: 0x0, symName: __ZN4absl12lts_2024011619str_format_internal13ConvertIntArgImEEbT_NS1_24FormatConversionSpecImplEPNS1_14FormatSinkImplE, symObjAddr: 0x1858, symBinAddr: 0x5860, symSize: 0x234 }
  - { offset: 0x26C4, size: 0x8, addend: 0x0, symName: __ZN4absl12lts_2024011619str_format_internal13ConvertIntArgIxEEbT_NS1_24FormatConversionSpecImplEPNS1_14FormatSinkImplE, symObjAddr: 0x1A8C, symBinAddr: 0x5A94, symSize: 0x24C }
  - { offset: 0x26D7, size: 0x8, addend: 0x0, symName: __ZN4absl12lts_2024011619str_format_internal13ConvertIntArgIxEEbT_NS1_24FormatConversionSpecImplEPNS1_14FormatSinkImplE, symObjAddr: 0x1A8C, symBinAddr: 0x5A94, symSize: 0x24C }
  - { offset: 0x2975, size: 0x8, addend: 0x0, symName: __ZN4absl12lts_2024011619str_format_internal13ConvertIntArgIyEEbT_NS1_24FormatConversionSpecImplEPNS1_14FormatSinkImplE, symObjAddr: 0x1CD8, symBinAddr: 0x5CE0, symSize: 0x234 }
  - { offset: 0x2988, size: 0x8, addend: 0x0, symName: __ZN4absl12lts_2024011619str_format_internal13ConvertIntArgIyEEbT_NS1_24FormatConversionSpecImplEPNS1_14FormatSinkImplE, symObjAddr: 0x1CD8, symBinAddr: 0x5CE0, symSize: 0x234 }
  - { offset: 0x2BD7, size: 0x8, addend: 0x0, symName: __ZN4absl12lts_2024011619str_format_internal13FormatArgImpl8DispatchINS1_7VoidPtrEEEbNS2_4DataENS1_24FormatConversionSpecImplEPv, symObjAddr: 0x1F0C, symBinAddr: 0x5FF58, symSize: 0x34 }
  - { offset: 0x2E3F, size: 0x8, addend: 0x0, symName: __ZN4absl12lts_2024011619str_format_internal13ConvertIntArgINS0_6int128EEEbT_NS1_24FormatConversionSpecImplEPNS1_14FormatSinkImplE, symObjAddr: 0x2DCC, symBinAddr: 0x6818, symSize: 0x24C }
  - { offset: 0x3128, size: 0x8, addend: 0x0, symName: __ZN4absl12lts_2024011619str_format_internal13ConvertIntArgINS0_7uint128EEEbT_NS1_24FormatConversionSpecImplEPNS1_14FormatSinkImplE, symObjAddr: 0x3018, symBinAddr: 0x6A64, symSize: 0x238 }
  - { offset: 0x35DB, size: 0x8, addend: 0x0, symName: __ZN4absl12lts_2024011619str_format_internal12_GLOBAL__N_117ConvertWCharTImplEwNS1_24FormatConversionSpecImplEPNS1_14FormatSinkImplE, symObjAddr: 0x234, symBinAddr: 0x423C, symSize: 0x118 }
  - { offset: 0x36F0, size: 0x8, addend: 0x0, symName: __ZN4absl12lts_2024011619str_format_internal12_GLOBAL__N_123ConvertIntImplInnerSlowERKNS2_9IntDigitsENS1_24FormatConversionSpecImplEPNS1_14FormatSinkImplE, symObjAddr: 0x44C, symBinAddr: 0x4454, symSize: 0x23C }
  - { offset: 0x3A24, size: 0x8, addend: 0x0, symName: __ZN4absl12lts_2024011619str_format_internal12_GLOBAL__N_115ConvertCharImplEcNS1_24FormatConversionSpecImplEPNS1_14FormatSinkImplE, symObjAddr: 0x34C, symBinAddr: 0x4354, symSize: 0x78 }
  - { offset: 0x3D07, size: 0x8, addend: 0x0, symName: __ZN4absl12lts_2024011619str_format_internal12_GLOBAL__N_116ConvertStringArgEPKwmNS1_24FormatConversionSpecImplEPNS1_14FormatSinkImplE, symObjAddr: 0x2AE0, symBinAddr: 0x652C, symSize: 0x2C8 }
  - { offset: 0x43A0, size: 0x8, addend: 0x0, symName: __ZN4absl12lts_2024011619str_format_internal13ConvertIntArgINS0_7uint128EEEbT_NS1_24FormatConversionSpecImplEPNS1_14FormatSinkImplE, symObjAddr: 0x3018, symBinAddr: 0x6A64, symSize: 0x238 }
  - { offset: 0x465B, size: 0x8, addend: 0x0, symName: __ZN4absl12lts_2024011619str_format_internal14FormatSinkImpl5FlushEv, symObjAddr: 0x3250, symBinAddr: 0x6C9C, symSize: 0x40 }
  - { offset: 0x46DE, size: 0x8, addend: 0x0, symName: __ZN4absl12lts_2024011619str_format_internal17FormatConvertImplENS1_7VoidPtrENS1_24FormatConversionSpecImplEPNS1_14FormatSinkImplE, symObjAddr: 0x1F40, symBinAddr: 0x5F14, symSize: 0xBC }
  - { offset: 0x47AB, size: 0x8, addend: 0x0, symName: __ZN4absl12lts_2024011619str_format_internal17FormatConvertImplIbLi0EEENS1_16ArgConvertResultILNS0_23FormatConversionCharSetE655355EEET_NS1_24FormatConversionSpecImplEPNS1_14FormatSinkImplE, symObjAddr: 0x204C, symBinAddr: 0x5FD0, symSize: 0x54 }
  - { offset: 0x4956, size: 0x8, addend: 0x0, symName: __ZN4absl12lts_2024011619str_format_internal17FormatConvertImplEcNS1_24FormatConversionSpecImplEPNS1_14FormatSinkImplE, symObjAddr: 0x20DC, symBinAddr: 0x6024, symSize: 0x18 }
  - { offset: 0x49E1, size: 0x8, addend: 0x0, symName: __ZN4absl12lts_2024011619str_format_internal17FormatConvertImplEaNS1_24FormatConversionSpecImplEPNS1_14FormatSinkImplE, symObjAddr: 0x2128, symBinAddr: 0x603C, symSize: 0x18 }
  - { offset: 0x4A6C, size: 0x8, addend: 0x0, symName: __ZN4absl12lts_2024011619str_format_internal17FormatConvertImplEhNS1_24FormatConversionSpecImplEPNS1_14FormatSinkImplE, symObjAddr: 0x2174, symBinAddr: 0x6054, symSize: 0x18 }
  - { offset: 0x4AF7, size: 0x8, addend: 0x0, symName: __ZN4absl12lts_2024011619str_format_internal17FormatConvertImplEsNS1_24FormatConversionSpecImplEPNS1_14FormatSinkImplE, symObjAddr: 0x21C0, symBinAddr: 0x606C, symSize: 0x18 }
  - { offset: 0x4B82, size: 0x8, addend: 0x0, symName: __ZN4absl12lts_2024011619str_format_internal17FormatConvertImplEtNS1_24FormatConversionSpecImplEPNS1_14FormatSinkImplE, symObjAddr: 0x220C, symBinAddr: 0x6084, symSize: 0x18 }
  - { offset: 0x4BD7, size: 0x8, addend: 0x0, symName: __ZN4absl12lts_2024011619str_format_internal17FormatConvertImplEiNS1_24FormatConversionSpecImplEPNS1_14FormatSinkImplE, symObjAddr: 0x2258, symBinAddr: 0x609C, symSize: 0x18 }
  - { offset: 0x4C62, size: 0x8, addend: 0x0, symName: __ZN4absl12lts_2024011619str_format_internal17FormatConvertImplEjNS1_24FormatConversionSpecImplEPNS1_14FormatSinkImplE, symObjAddr: 0x22A8, symBinAddr: 0x60B4, symSize: 0x18 }
  - { offset: 0x4CED, size: 0x8, addend: 0x0, symName: __ZN4absl12lts_2024011619str_format_internal17FormatConvertImplElNS1_24FormatConversionSpecImplEPNS1_14FormatSinkImplE, symObjAddr: 0x2304, symBinAddr: 0x60CC, symSize: 0x18 }
  - { offset: 0x4D78, size: 0x8, addend: 0x0, symName: __ZN4absl12lts_2024011619str_format_internal17FormatConvertImplEmNS1_24FormatConversionSpecImplEPNS1_14FormatSinkImplE, symObjAddr: 0x2354, symBinAddr: 0x60E4, symSize: 0x18 }
  - { offset: 0x4E03, size: 0x8, addend: 0x0, symName: __ZN4absl12lts_2024011619str_format_internal17FormatConvertImplExNS1_24FormatConversionSpecImplEPNS1_14FormatSinkImplE, symObjAddr: 0x23B0, symBinAddr: 0x60FC, symSize: 0x18 }
  - { offset: 0x4E8E, size: 0x8, addend: 0x0, symName: __ZN4absl12lts_2024011619str_format_internal17FormatConvertImplEyNS1_24FormatConversionSpecImplEPNS1_14FormatSinkImplE, symObjAddr: 0x2400, symBinAddr: 0x6114, symSize: 0x18 }
  - { offset: 0x4F19, size: 0x8, addend: 0x0, symName: __ZN4absl12lts_2024011619str_format_internal17FormatConvertImplENS0_6int128ENS1_24FormatConversionSpecImplEPNS1_14FormatSinkImplE, symObjAddr: 0x2458, symBinAddr: 0x612C, symSize: 0x18 }
  - { offset: 0x4FAB, size: 0x8, addend: 0x0, symName: __ZN4absl12lts_2024011619str_format_internal17FormatConvertImplENS0_7uint128ENS1_24FormatConversionSpecImplEPNS1_14FormatSinkImplE, symObjAddr: 0x24B0, symBinAddr: 0x6144, symSize: 0x18 }
  - { offset: 0x5007, size: 0x8, addend: 0x0, symName: __ZN4absl12lts_2024011619str_format_internal17FormatConvertImplEfNS1_24FormatConversionSpecImplEPNS1_14FormatSinkImplE, symObjAddr: 0x2510, symBinAddr: 0x615C, symSize: 0x58 }
  - { offset: 0x5118, size: 0x8, addend: 0x0, symName: __ZN4absl12lts_2024011619str_format_internal17FormatConvertImplEdNS1_24FormatConversionSpecImplEPNS1_14FormatSinkImplE, symObjAddr: 0x25B0, symBinAddr: 0x61B4, symSize: 0x58 }
  - { offset: 0x51EE, size: 0x8, addend: 0x0, symName: __ZN4absl12lts_2024011619str_format_internal17FormatConvertImplEeNS1_24FormatConversionSpecImplEPNS1_14FormatSinkImplE, symObjAddr: 0x2650, symBinAddr: 0x620C, symSize: 0x58 }
  - { offset: 0x52E3, size: 0x8, addend: 0x0, symName: __ZN4absl12lts_2024011619str_format_internal17FormatConvertImplEPKcNS1_24FormatConversionSpecImplEPNS1_14FormatSinkImplE, symObjAddr: 0x26E8, symBinAddr: 0x6264, symSize: 0xDC }
  - { offset: 0x5557, size: 0x8, addend: 0x0, symName: __ZN4absl12lts_2024011619str_format_internal13FormatArgImpl8DispatchINSt3__112basic_stringIcNS4_11char_traitsIcEENS4_9allocatorIcEEEEEEbNS2_4DataENS1_24FormatConversionSpecImplEPv, symObjAddr: 0x27C4, symBinAddr: 0x603E4, symSize: 0x44 }
  - { offset: 0x5561, size: 0x8, addend: 0x0, symName: __ZN4absl12lts_2024011619str_format_internal17FormatConvertImplERKNSt3__112basic_stringIcNS2_11char_traitsIcEENS2_9allocatorIcEEEENS1_24FormatConversionSpecImplEPNS1_14FormatSinkImplE, symObjAddr: 0x2808, symBinAddr: 0x6340, symSize: 0x5C }
  - { offset: 0x5681, size: 0x8, addend: 0x0, symName: __ZN4absl12lts_2024011619str_format_internal17FormatConvertImplENS0_11string_viewENS1_24FormatConversionSpecImplEPNS1_14FormatSinkImplE, symObjAddr: 0x28BC, symBinAddr: 0x639C, symSize: 0x50 }
  - { offset: 0x572A, size: 0x8, addend: 0x0, symName: __ZN4absl12lts_2024011619str_format_internal17FormatConvertImplEPKwNS1_24FormatConversionSpecImplEPNS1_14FormatSinkImplE, symObjAddr: 0x294C, symBinAddr: 0x63EC, symSize: 0xC4 }
  - { offset: 0x58A2, size: 0x8, addend: 0x0, symName: __ZN4absl12lts_2024011619str_format_internal17FormatConvertImplERKNSt3__112basic_stringIwNS2_11char_traitsIwEENS2_9allocatorIwEEEENS1_24FormatConversionSpecImplEPNS1_14FormatSinkImplE, symObjAddr: 0x2A64, symBinAddr: 0x64B0, symSize: 0x3C }
  - { offset: 0x594F, size: 0x8, addend: 0x0, symName: __ZN4absl12lts_2024011619str_format_internal14ConvertBoolArgEbPNS1_14FormatSinkImplE, symObjAddr: 0x2AA0, symBinAddr: 0x64EC, symSize: 0x40 }
  - { offset: 0x598A, size: 0x8, addend: 0x0, symName: __ZN4absl12lts_2024011619str_format_internal17FormatConvertImplEDnNS1_24FormatConversionSpecImplEPNS1_14FormatSinkImplE, symObjAddr: 0x2DA8, symBinAddr: 0x67F4, symSize: 0xC }
  - { offset: 0x59F7, size: 0x8, addend: 0x0, symName: __ZN4absl12lts_2024011619str_format_internal17FormatConvertImplEwNS1_24FormatConversionSpecImplEPNS1_14FormatSinkImplE, symObjAddr: 0x2DB4, symBinAddr: 0x6800, symSize: 0x18 }
  - { offset: 0xD72F, size: 0x8, addend: 0x0, symName: __ZN4absl12lts_2024011619str_format_internal14FormatSinkImpl6AppendENS0_11string_viewE, symObjAddr: 0x3C4, symBinAddr: 0x43CC, symSize: 0x88 }
  - { offset: 0xD7CE, size: 0x8, addend: 0x0, symName: __ZN4absl12lts_2024011619str_format_internal13ConvertIntArgIcEEbT_NS1_24FormatConversionSpecImplEPNS1_14FormatSinkImplE.cold.1, symObjAddr: 0x346C, symBinAddr: 0x60514, symSize: 0x24 }
  - { offset: 0xD851, size: 0x8, addend: 0x0, symName: __ZN4absl12lts_2024011619str_format_internal13ConvertIntArgIcEEbT_NS1_24FormatConversionSpecImplEPNS1_14FormatSinkImplE.cold.2, symObjAddr: 0x3490, symBinAddr: 0x60538, symSize: 0x24 }
  - { offset: 0xD894, size: 0x8, addend: 0x0, symName: __ZN4absl12lts_2024011619str_format_internal14FormatSinkImpl6AppendEmc, symObjAddr: 0x3290, symBinAddr: 0x6CDC, symSize: 0xA8 }
  - { offset: 0xD9BF, size: 0x8, addend: 0x0, symName: __ZN4absl12lts_2024011619str_format_internal14FormatSinkImpl5FlushEv, symObjAddr: 0x3250, symBinAddr: 0x6C9C, symSize: 0x40 }
  - { offset: 0xDA80, size: 0x8, addend: 0x0, symName: __ZN4absl12lts_2024011619str_format_internal14FormatSinkImpl6AppendEmc, symObjAddr: 0x3290, symBinAddr: 0x6CDC, symSize: 0xA8 }
  - { offset: 0xDA91, size: 0x8, addend: 0x0, symName: __ZNK4absl12lts_2024011619str_format_internal12_GLOBAL__N_19IntDigits19without_neg_or_zeroEv, symObjAddr: 0x3338, symBinAddr: 0x6D84, symSize: 0x2C }
  - { offset: 0xDB32, size: 0x8, addend: 0x0, symName: __ZN4absl12lts_2024011619str_format_internal12_GLOBAL__N_19IntDigits15PrintAsHexLowerINS0_7uint128EEEvT_, symObjAddr: 0x3364, symBinAddr: 0x6DB0, symSize: 0x54 }
  - { offset: 0xE2A9, size: 0x8, addend: 0x0, symName: __ZN4absl12lts_2024011619str_format_internal13FormatArgImpl8DispatchINS1_7VoidPtrEEEbNS2_4DataENS1_24FormatConversionSpecImplEPv, symObjAddr: 0x1F0C, symBinAddr: 0x5FF58, symSize: 0x34 }
  - { offset: 0xE33F, size: 0x8, addend: 0x0, symName: __ZN4absl12lts_2024011619str_format_internal13FormatArgImpl8DispatchIbEEbNS2_4DataENS1_24FormatConversionSpecImplEPv, symObjAddr: 0x1FFC, symBinAddr: 0x5FF8C, symSize: 0x50 }
  - { offset: 0xE3D8, size: 0x8, addend: 0x0, symName: _OUTLINED_FUNCTION_7, symObjAddr: 0x3914, symBinAddr: 0x6EF8, symSize: 0x18 }
  - { offset: 0xE3F0, size: 0x8, addend: 0x0, symName: _OUTLINED_FUNCTION_5, symObjAddr: 0x38F8, symBinAddr: 0x6EDC, symSize: 0x8 }
  - { offset: 0xE460, size: 0x8, addend: 0x0, symName: __ZN4absl12lts_2024011619str_format_internal13FormatArgImpl8DispatchIcEEbNS2_4DataENS1_24FormatConversionSpecImplEPv, symObjAddr: 0x20A0, symBinAddr: 0x5FFDC, symSize: 0x3C }
  - { offset: 0xE565, size: 0x8, addend: 0x0, symName: _OUTLINED_FUNCTION_0, symObjAddr: 0x38C8, symBinAddr: 0x6EB8, symSize: 0xC }
  - { offset: 0xE57D, size: 0x8, addend: 0x0, symName: _OUTLINED_FUNCTION_2, symObjAddr: 0x38DC, symBinAddr: 0x6ECC, symSize: 0x8 }
  - { offset: 0xE5ED, size: 0x8, addend: 0x0, symName: __ZN4absl12lts_2024011619str_format_internal13FormatArgImpl8DispatchIaEEbNS2_4DataENS1_24FormatConversionSpecImplEPv, symObjAddr: 0x20F4, symBinAddr: 0x60018, symSize: 0x34 }
  - { offset: 0xE724, size: 0x8, addend: 0x0, symName: __ZN4absl12lts_2024011619str_format_internal13FormatArgImpl8DispatchIhEEbNS2_4DataENS1_24FormatConversionSpecImplEPv, symObjAddr: 0x2140, symBinAddr: 0x6004C, symSize: 0x34 }
  - { offset: 0xE85B, size: 0x8, addend: 0x0, symName: __ZN4absl12lts_2024011619str_format_internal13FormatArgImpl8DispatchIsEEbNS2_4DataENS1_24FormatConversionSpecImplEPv, symObjAddr: 0x218C, symBinAddr: 0x60080, symSize: 0x34 }
  - { offset: 0xE992, size: 0x8, addend: 0x0, symName: __ZN4absl12lts_2024011619str_format_internal13FormatArgImpl8DispatchItEEbNS2_4DataENS1_24FormatConversionSpecImplEPv, symObjAddr: 0x21D8, symBinAddr: 0x600B4, symSize: 0x34 }
  - { offset: 0xEAAC, size: 0x8, addend: 0x0, symName: __ZN4absl12lts_2024011619str_format_internal13FormatArgImpl8DispatchIiEEbNS2_4DataENS1_24FormatConversionSpecImplEPv, symObjAddr: 0x2224, symBinAddr: 0x600E8, symSize: 0x34 }
  - { offset: 0xEBC8, size: 0x8, addend: 0x0, symName: __ZN4absl12lts_2024011619str_format_internal13FormatArgImpl8DispatchIjEEbNS2_4DataENS1_24FormatConversionSpecImplEPv, symObjAddr: 0x2270, symBinAddr: 0x6011C, symSize: 0x38 }
  - { offset: 0xED04, size: 0x8, addend: 0x0, symName: __ZN4absl12lts_2024011619str_format_internal13FormatArgImpl8DispatchIlEEbNS2_4DataENS1_24FormatConversionSpecImplEPv, symObjAddr: 0x22C0, symBinAddr: 0x60154, symSize: 0x44 }
  - { offset: 0xEE4A, size: 0x8, addend: 0x0, symName: __ZN4absl12lts_2024011619str_format_internal13FormatArgImpl8DispatchImEEbNS2_4DataENS1_24FormatConversionSpecImplEPv, symObjAddr: 0x231C, symBinAddr: 0x60198, symSize: 0x38 }
  - { offset: 0xEF86, size: 0x8, addend: 0x0, symName: __ZN4absl12lts_2024011619str_format_internal13FormatArgImpl8DispatchIxEEbNS2_4DataENS1_24FormatConversionSpecImplEPv, symObjAddr: 0x236C, symBinAddr: 0x601D0, symSize: 0x44 }
  - { offset: 0xF0C2, size: 0x8, addend: 0x0, symName: __ZN4absl12lts_2024011619str_format_internal13FormatArgImpl8DispatchIyEEbNS2_4DataENS1_24FormatConversionSpecImplEPv, symObjAddr: 0x23C8, symBinAddr: 0x60214, symSize: 0x38 }
  - { offset: 0xF1A6, size: 0x8, addend: 0x0, symName: __ZN4absl12lts_2024011619str_format_internal13FormatArgImpl8DispatchINS0_6int128EEEbNS2_4DataENS1_24FormatConversionSpecImplEPv, symObjAddr: 0x2418, symBinAddr: 0x6024C, symSize: 0x40 }
  - { offset: 0xF270, size: 0x8, addend: 0x0, symName: __ZN4absl12lts_2024011619str_format_internal13FormatArgImpl8DispatchINS0_7uint128EEEbNS2_4DataENS1_24FormatConversionSpecImplEPv, symObjAddr: 0x2470, symBinAddr: 0x6028C, symSize: 0x40 }
  - { offset: 0xF365, size: 0x8, addend: 0x0, symName: __ZN4absl12lts_2024011619str_format_internal13FormatArgImpl8DispatchIfEEbNS2_4DataENS1_24FormatConversionSpecImplEPv, symObjAddr: 0x24C8, symBinAddr: 0x602CC, symSize: 0x48 }
  - { offset: 0xF433, size: 0x8, addend: 0x0, symName: _OUTLINED_FUNCTION_6, symObjAddr: 0x3900, symBinAddr: 0x6EE4, symSize: 0x14 }
  - { offset: 0xF4B3, size: 0x8, addend: 0x0, symName: __ZN4absl12lts_2024011619str_format_internal13FormatArgImpl8DispatchIdEEbNS2_4DataENS1_24FormatConversionSpecImplEPv, symObjAddr: 0x2568, symBinAddr: 0x60314, symSize: 0x48 }
  - { offset: 0xF5AE, size: 0x8, addend: 0x0, symName: __ZN4absl12lts_2024011619str_format_internal13FormatArgImpl8DispatchIeEEbNS2_4DataENS1_24FormatConversionSpecImplEPv, symObjAddr: 0x2608, symBinAddr: 0x6035C, symSize: 0x48 }
  - { offset: 0xF67E, size: 0x8, addend: 0x0, symName: __ZN4absl12lts_2024011619str_format_internal13FormatArgImpl8DispatchIPKcEEbNS2_4DataENS1_24FormatConversionSpecImplEPv, symObjAddr: 0x26A8, symBinAddr: 0x603A4, symSize: 0x40 }
  - { offset: 0xF79F, size: 0x8, addend: 0x0, symName: __ZN4absl12lts_2024011619str_format_internal13FormatArgImpl8DispatchINSt3__112basic_stringIcNS4_11char_traitsIcEENS4_9allocatorIcEEEEEEbNS2_4DataENS1_24FormatConversionSpecImplEPv, symObjAddr: 0x27C4, symBinAddr: 0x603E4, symSize: 0x44 }
  - { offset: 0xF8AA, size: 0x8, addend: 0x0, symName: __ZN4absl12lts_2024011619str_format_internal13FormatArgImpl8DispatchINS0_11string_viewEEEbNS2_4DataENS1_24FormatConversionSpecImplEPv, symObjAddr: 0x2864, symBinAddr: 0x60428, symSize: 0x58 }
  - { offset: 0xF945, size: 0x8, addend: 0x0, symName: __ZN4absl12lts_2024011619str_format_internal13FormatArgImpl8DispatchIPKwEEbNS2_4DataENS1_24FormatConversionSpecImplEPv, symObjAddr: 0x290C, symBinAddr: 0x60480, symSize: 0x40 }
  - { offset: 0xFA5D, size: 0x8, addend: 0x0, symName: __ZN4absl12lts_2024011619str_format_internal13FormatArgImpl8DispatchINSt3__112basic_stringIwNS4_11char_traitsIwEENS4_9allocatorIwEEEEEEbNS2_4DataENS1_24FormatConversionSpecImplEPv, symObjAddr: 0x2A10, symBinAddr: 0x604C0, symSize: 0x54 }
  - { offset: 0x10077, size: 0x8, addend: 0x0, symName: __ZN4absl12lts_2024011619str_format_internal12_GLOBAL__N_19IntDigits15PrintAsHexLowerINS0_7uint128EEEvT_, symObjAddr: 0x3364, symBinAddr: 0x6DB0, symSize: 0x54 }
  - { offset: 0x1012B, size: 0x8, addend: 0x0, symName: __ZN4absl12lts_2024011619str_format_internal12_GLOBAL__N_19IntDigits10PrintAsDecENS0_7uint128Eb, symObjAddr: 0x33B8, symBinAddr: 0x6E04, symSize: 0xB4 }
  - { offset: 0x10376, size: 0x8, addend: 0x0, symName: _OUTLINED_FUNCTION_1, symObjAddr: 0x38D4, symBinAddr: 0x6EC4, symSize: 0x8 }
  - { offset: 0x1038E, size: 0x8, addend: 0x0, symName: _OUTLINED_FUNCTION_3, symObjAddr: 0x38E4, symBinAddr: 0x6ED4, symSize: 0x8 }
  - { offset: 0x12685, size: 0x8, addend: 0x0, symName: __ZN4absl12lts_2024011615AsciiStrToLowerEPNSt3__112basic_stringIcNS1_11char_traitsIcEENS1_9allocatorIcEEEE, symObjAddr: 0x0, symBinAddr: 0x6F10, symSize: 0x10C }
  - { offset: 0x126AE, size: 0x8, addend: 0x0, symName: __ZN4absl12lts_2024011614ascii_internal13kPropertyBitsE, symObjAddr: 0x470, symBinAddr: 0x66FC0, symSize: 0x0 }
  - { offset: 0x126C8, size: 0x8, addend: 0x0, symName: __ZN4absl12lts_2024011614ascii_internal8kToLowerE, symObjAddr: 0x570, symBinAddr: 0x670C0, symSize: 0x0 }
  - { offset: 0x126E2, size: 0x8, addend: 0x0, symName: __ZN4absl12lts_2024011614ascii_internal8kToUpperE, symObjAddr: 0x670, symBinAddr: 0x671C0, symSize: 0x0 }
  - { offset: 0x129AB, size: 0x8, addend: 0x0, symName: __ZN4absl12lts_2024011615AsciiStrToLowerEPNSt3__112basic_stringIcNS1_11char_traitsIcEENS1_9allocatorIcEEEE, symObjAddr: 0x0, symBinAddr: 0x6F10, symSize: 0x10C }
  - { offset: 0x129E5, size: 0x8, addend: 0x0, symName: __ZN4absl12lts_2024011615AsciiStrToLowerEPNSt3__112basic_stringIcNS1_11char_traitsIcEENS1_9allocatorIcEEEE, symObjAddr: 0x0, symBinAddr: 0x6F10, symSize: 0x10C }
  - { offset: 0x12A07, size: 0x8, addend: 0x0, symName: __ZN4absl12lts_2024011615AsciiStrToLowerEPNSt3__112basic_stringIcNS1_11char_traitsIcEENS1_9allocatorIcEEEE, symObjAddr: 0x0, symBinAddr: 0x6F10, symSize: 0x10C }
  - { offset: 0x12A23, size: 0x8, addend: 0x0, symName: __ZN4absl12lts_2024011615AsciiStrToLowerEPNSt3__112basic_stringIcNS1_11char_traitsIcEENS1_9allocatorIcEEEE, symObjAddr: 0x0, symBinAddr: 0x6F10, symSize: 0x10C }
  - { offset: 0x12BAD, size: 0x8, addend: 0x0, symName: __ZN4absl12lts_2024011615AsciiStrToUpperEPNSt3__112basic_stringIcNS1_11char_traitsIcEENS1_9allocatorIcEEEE, symObjAddr: 0x10C, symBinAddr: 0x701C, symSize: 0x10C }
  - { offset: 0x12BE7, size: 0x8, addend: 0x0, symName: __ZN4absl12lts_2024011615AsciiStrToUpperEPNSt3__112basic_stringIcNS1_11char_traitsIcEENS1_9allocatorIcEEEE, symObjAddr: 0x10C, symBinAddr: 0x701C, symSize: 0x10C }
  - { offset: 0x12C09, size: 0x8, addend: 0x0, symName: __ZN4absl12lts_2024011615AsciiStrToUpperEPNSt3__112basic_stringIcNS1_11char_traitsIcEENS1_9allocatorIcEEEE, symObjAddr: 0x10C, symBinAddr: 0x701C, symSize: 0x10C }
  - { offset: 0x12C25, size: 0x8, addend: 0x0, symName: __ZN4absl12lts_2024011615AsciiStrToUpperEPNSt3__112basic_stringIcNS1_11char_traitsIcEENS1_9allocatorIcEEEE, symObjAddr: 0x10C, symBinAddr: 0x701C, symSize: 0x10C }
  - { offset: 0x12E35, size: 0x8, addend: 0x0, symName: __ZN4absl12lts_2024011626RemoveExtraAsciiWhitespaceEPNSt3__112basic_stringIcNS1_11char_traitsIcEENS1_9allocatorIcEEEE, symObjAddr: 0x218, symBinAddr: 0x7128, symSize: 0x154 }
  - { offset: 0x164DA, size: 0x8, addend: 0x0, symName: __ZNK4absl12lts_2024011611string_view6substrEmm, symObjAddr: 0x36C, symBinAddr: 0x727C, symSize: 0x3C }
  - { offset: 0x165AC, size: 0x8, addend: 0x0, symName: __ZNK4absl12lts_2024011611string_view6substrEmm.cold.1, symObjAddr: 0x3A8, symBinAddr: 0x6055C, symSize: 0x28 }
  - { offset: 0x1668B, size: 0x8, addend: 0x0, symName: __ZNK4absl12lts_2024011611string_view6substrEmm.cold.2, symObjAddr: 0x3D0, symBinAddr: 0x60584, symSize: 0x14 }
  - { offset: 0x166A3, size: 0x8, addend: 0x0, symName: __ZNK4absl12lts_2024011611string_view6substrEmm.cold.1, symObjAddr: 0x3A8, symBinAddr: 0x6055C, symSize: 0x28 }
  - { offset: 0x185D5, size: 0x8, addend: 0x0, symName: __ZN4absl12lts_2024011612bad_any_castD2Ev, symObjAddr: 0x0, symBinAddr: 0x72B8, symSize: 0x4 }
  - { offset: 0x1865E, size: 0x8, addend: 0x0, symName: __ZN4absl12lts_2024011612any_internal15ThrowBadAnyCastEv, symObjAddr: 0x28, symBinAddr: 0x72E0, symSize: 0x2C }
  - { offset: 0x1936E, size: 0x8, addend: 0x0, symName: __ZN4absl12lts_2024011612bad_any_castD2Ev, symObjAddr: 0x0, symBinAddr: 0x72B8, symSize: 0x4 }
  - { offset: 0x193AF, size: 0x8, addend: 0x0, symName: __ZN4absl12lts_2024011612bad_any_castD1Ev, symObjAddr: 0x4, symBinAddr: 0x72BC, symSize: 0x4 }
  - { offset: 0x193D1, size: 0x8, addend: 0x0, symName: __ZN4absl12lts_2024011612bad_any_castD1Ev, symObjAddr: 0x4, symBinAddr: 0x72BC, symSize: 0x4 }
  - { offset: 0x19407, size: 0x8, addend: 0x0, symName: __ZN4absl12lts_2024011612bad_any_castD0Ev, symObjAddr: 0x8, symBinAddr: 0x72C0, symSize: 0x14 }
  - { offset: 0x1946A, size: 0x8, addend: 0x0, symName: __ZNK4absl12lts_2024011612bad_any_cast4whatEv, symObjAddr: 0x1C, symBinAddr: 0x72D4, symSize: 0xC }
  - { offset: 0x1948F, size: 0x8, addend: 0x0, symName: __ZN4absl12lts_2024011612bad_any_castC1Ev, symObjAddr: 0x54, symBinAddr: 0x730C, symSize: 0x20 }
  - { offset: 0x1B3EB, size: 0x8, addend: 0x0, symName: __ZN4absl12lts_2024011619bad_optional_accessD2Ev, symObjAddr: 0x0, symBinAddr: 0x732C, symSize: 0x4 }
  - { offset: 0x1B475, size: 0x8, addend: 0x0, symName: __ZN4absl12lts_2024011617optional_internal25throw_bad_optional_accessEv, symObjAddr: 0x28, symBinAddr: 0x7354, symSize: 0x30 }
  - { offset: 0x1C04B, size: 0x8, addend: 0x0, symName: __ZN4absl12lts_2024011619bad_optional_accessD2Ev, symObjAddr: 0x0, symBinAddr: 0x732C, symSize: 0x4 }
  - { offset: 0x1C08C, size: 0x8, addend: 0x0, symName: __ZN4absl12lts_2024011619bad_optional_accessD1Ev, symObjAddr: 0x4, symBinAddr: 0x7330, symSize: 0x4 }
  - { offset: 0x1C0AE, size: 0x8, addend: 0x0, symName: __ZN4absl12lts_2024011619bad_optional_accessD1Ev, symObjAddr: 0x4, symBinAddr: 0x7330, symSize: 0x4 }
  - { offset: 0x1C0E4, size: 0x8, addend: 0x0, symName: __ZN4absl12lts_2024011619bad_optional_accessD0Ev, symObjAddr: 0x8, symBinAddr: 0x7334, symSize: 0x14 }
  - { offset: 0x1C147, size: 0x8, addend: 0x0, symName: __ZNK4absl12lts_2024011619bad_optional_access4whatEv, symObjAddr: 0x1C, symBinAddr: 0x7348, symSize: 0xC }
  - { offset: 0x1E099, size: 0x8, addend: 0x0, symName: __ZN4absl12lts_2024011618bad_variant_accessD2Ev, symObjAddr: 0x0, symBinAddr: 0x7384, symSize: 0x4 }
  - { offset: 0x1E123, size: 0x8, addend: 0x0, symName: __ZN4absl12lts_2024011616variant_internal21ThrowBadVariantAccessEv, symObjAddr: 0x28, symBinAddr: 0x73AC, symSize: 0x30 }
  - { offset: 0x1E176, size: 0x8, addend: 0x0, symName: __ZN4absl12lts_2024011616variant_internal7RethrowEv, symObjAddr: 0x58, symBinAddr: 0x73DC, symSize: 0xC }
  - { offset: 0x1ED13, size: 0x8, addend: 0x0, symName: __ZN4absl12lts_2024011618bad_variant_accessD2Ev, symObjAddr: 0x0, symBinAddr: 0x7384, symSize: 0x4 }
  - { offset: 0x1ED54, size: 0x8, addend: 0x0, symName: __ZN4absl12lts_2024011618bad_variant_accessD1Ev, symObjAddr: 0x4, symBinAddr: 0x7388, symSize: 0x4 }
  - { offset: 0x1ED76, size: 0x8, addend: 0x0, symName: __ZN4absl12lts_2024011618bad_variant_accessD1Ev, symObjAddr: 0x4, symBinAddr: 0x7388, symSize: 0x4 }
  - { offset: 0x1EDAC, size: 0x8, addend: 0x0, symName: __ZN4absl12lts_2024011618bad_variant_accessD0Ev, symObjAddr: 0x8, symBinAddr: 0x738C, symSize: 0x14 }
  - { offset: 0x1EE0F, size: 0x8, addend: 0x0, symName: __ZNK4absl12lts_2024011618bad_variant_access4whatEv, symObjAddr: 0x1C, symBinAddr: 0x73A0, symSize: 0xC }
  - { offset: 0x20D61, size: 0x8, addend: 0x0, symName: __ZN4absl12lts_202401167Barrier5BlockEv, symObjAddr: 0x0, symBinAddr: 0x73E8, symSize: 0x180 }
  - { offset: 0x22755, size: 0x8, addend: 0x0, symName: __ZN4absl12lts_20240116L6IsZeroEPv, symObjAddr: 0x180, symBinAddr: 0x7568, symSize: 0x10 }
  - { offset: 0x2755E, size: 0x8, addend: 0x0, symName: __ZN4absl12lts_202401167Barrier5BlockEv, symObjAddr: 0x0, symBinAddr: 0x73E8, symSize: 0x180 }
  - { offset: 0x2DD14, size: 0x8, addend: 0x0, symName: __ZNSt3__124__put_character_sequenceB8ne200100IcNS_11char_traitsIcEEEERNS_13basic_ostreamIT_T0_EES7_PKS4_m, symObjAddr: 0x15CC, symBinAddr: 0x8B04, symSize: 0x168 }
  - { offset: 0x2F183, size: 0x8, addend: 0x0, symName: __ZNSt3__116__pad_and_outputB8ne200100IcNS_11char_traitsIcEEEENS_19ostreambuf_iteratorIT_T0_EES6_PKS4_S8_S8_RNS_8ios_baseES4_, symObjAddr: 0x1734, symBinAddr: 0x8C6C, symSize: 0x13C }
  - { offset: 0x2F76C, size: 0x8, addend: 0x0, symName: __ZNSt3__120__throw_length_errorB8ne200100EPKc, symObjAddr: 0x1920, symBinAddr: 0x8E58, symSize: 0x50 }
  - { offset: 0x30725, size: 0x8, addend: 0x0, symName: __ZSt28__throw_bad_array_new_lengthB8ne200100v, symObjAddr: 0x1994, symBinAddr: 0x8ECC, symSize: 0x28 }
  - { offset: 0x30CC1, size: 0x8, addend: 0x0, symName: __ZN4absl12lts_2024011619str_format_internal9SummarizeENS1_21UntypedFormatSpecImplENS0_4SpanIKNS1_13FormatArgImplEEE, symObjAddr: 0x19C, symBinAddr: 0x7724, symSize: 0x314 }
  - { offset: 0x318EB, size: 0x8, addend: 0x0, symName: __ZN4absl12lts_2024011619str_format_internal13FormatUntypedENS1_17FormatRawSinkImplENS1_21UntypedFormatSpecImplENS0_4SpanIKNS1_13FormatArgImplEEE, symObjAddr: 0x4B0, symBinAddr: 0x7A38, symSize: 0x2BC }
  - { offset: 0x3236D, size: 0x8, addend: 0x0, symName: __ZN4absl12lts_2024011619str_format_internal12BindWithPackEPKNS1_17UnboundConversionENS0_4SpanIKNS1_13FormatArgImplEEEPNS1_15BoundConversionE, symObjAddr: 0x0, symBinAddr: 0x7588, symSize: 0x30 }
  - { offset: 0x3282A, size: 0x8, addend: 0x0, symName: __ZN4absl12lts_2024011619str_format_internal10AppendPackEPNSt3__112basic_stringIcNS2_11char_traitsIcEENS2_9allocatorIcEEEENS1_21UntypedFormatSpecImplENS0_4SpanIKNS1_13FormatArgImplEEE, symObjAddr: 0x7D0, symBinAddr: 0x7D58, symSize: 0x64 }
  - { offset: 0x328E7, size: 0x8, addend: 0x0, symName: __ZN4absl12lts_2024011619str_format_internal10FormatPackENS1_21UntypedFormatSpecImplENS0_4SpanIKNS1_13FormatArgImplEEE, symObjAddr: 0x834, symBinAddr: 0x7DBC, symSize: 0x70 }
  - { offset: 0x32AD4, size: 0x8, addend: 0x0, symName: __ZN4absl12lts_2024011619str_format_internal7FprintFEP7__sFILENS1_21UntypedFormatSpecImplENS0_4SpanIKNS1_13FormatArgImplEEE, symObjAddr: 0x8A4, symBinAddr: 0x7E2C, symSize: 0x8C }
  - { offset: 0x32C03, size: 0x8, addend: 0x0, symName: __ZN4absl12lts_2024011619str_format_internal8SnprintFEPcmNS1_21UntypedFormatSpecImplENS0_4SpanIKNS1_13FormatArgImplEEE, symObjAddr: 0x930, symBinAddr: 0x7EB8, symSize: 0x7C }
  - { offset: 0x34AC9, size: 0x8, addend: 0x0, symName: __ZN4absl12lts_2024011619str_format_internal12_GLOBAL__N_110ArgContext4BindEPKNS1_17UnboundConversionEPNS1_15BoundConversionE, symObjAddr: 0x30, symBinAddr: 0x75B8, symSize: 0x16C }
  - { offset: 0x34F05, size: 0x8, addend: 0x0, symName: __ZNK4absl12lts_202401164SpanIKNS0_19str_format_internal13FormatArgImplEEixEm, symObjAddr: 0x9AC, symBinAddr: 0x7F34, symSize: 0x4C }
  - { offset: 0x35452, size: 0x8, addend: 0x0, symName: __ZNK4absl12lts_2024011619str_format_internal21UntypedFormatSpecImpl3strEv, symObjAddr: 0xA4C, symBinAddr: 0x7F84, symSize: 0x2C }
  - { offset: 0x354FB, size: 0x8, addend: 0x0, symName: __ZN4absl12lts_2024011619str_format_internal12_GLOBAL__N_117ConverterConsumerINS2_20SummarizingConverterEE10ConvertOneERKNS1_17UnboundConversionENS0_11string_viewE, symObjAddr: 0xA78, symBinAddr: 0x7FB0, symSize: 0x2E8 }
  - { offset: 0x3558A, size: 0x8, addend: 0x0, symName: __ZN4absl12lts_2024011619str_format_internal12_GLOBAL__N_117ConverterConsumerINS2_20SummarizingConverterEE10ConvertOneERKNS1_17UnboundConversionENS0_11string_viewE, symObjAddr: 0xA78, symBinAddr: 0x7FB0, symSize: 0x2E8 }
  - { offset: 0x3634B, size: 0x8, addend: 0x0, symName: __ZNSt3__112basic_stringIcNS_11char_traitsIcEENS_9allocatorIcEEEC2B8ne200100ILi0EEEPKc, symObjAddr: 0x1C4C, symBinAddr: 0x90FC, symSize: 0xA4 }
  - { offset: 0x365A0, size: 0x8, addend: 0x0, symName: __ZN4absl12lts_2024011619str_format_internal12_GLOBAL__N_117ConverterConsumerINS2_16DefaultConverterEE10ConvertOneERKNS1_17UnboundConversionENS0_11string_viewE, symObjAddr: 0x1CF0, symBinAddr: 0x91A0, symSize: 0x68 }
  - { offset: 0x3662A, size: 0x8, addend: 0x0, symName: __ZN4absl12lts_2024011619str_format_internal17FormatRawSinkImpl5FlushINSt3__112basic_stringIcNS4_11char_traitsIcEENS4_9allocatorIcEEEEEEvPvNS0_11string_viewE, symObjAddr: 0xA48, symBinAddr: 0x7F80, symSize: 0x4 }
  - { offset: 0x3677D, size: 0x8, addend: 0x0, symName: __ZN4absl12lts_2024011619str_format_internal12_GLOBAL__N_117ConverterConsumerINS2_16DefaultConverterEE10ConvertOneERKNS1_17UnboundConversionENS0_11string_viewE, symObjAddr: 0x1CF0, symBinAddr: 0x91A0, symSize: 0x68 }
  - { offset: 0x369B7, size: 0x8, addend: 0x0, symName: __ZNK4absl12lts_2024011619str_format_internal10Streamable5PrintERNSt3__113basic_ostreamIcNS3_11char_traitsIcEEEE, symObjAddr: 0x76C, symBinAddr: 0x7CF4, symSize: 0x64 }
  - { offset: 0x36B40, size: 0x8, addend: 0x0, symName: __ZN4absl12lts_2024011619str_format_internal10FormatPackENS1_21UntypedFormatSpecImplENS0_4SpanIKNS1_13FormatArgImplEEE.cold.1, symObjAddr: 0x1D64, symBinAddr: 0x60598, symSize: 0x24 }
  - { offset: 0x36B5B, size: 0x8, addend: 0x0, symName: __ZN4absl12lts_2024011619str_format_internal10FormatPackENS1_21UntypedFormatSpecImplENS0_4SpanIKNS1_13FormatArgImplEEE.cold.1, symObjAddr: 0x1D64, symBinAddr: 0x60598, symSize: 0x24 }
  - { offset: 0x36B6F, size: 0x8, addend: 0x0, symName: __ZN4absl12lts_2024011619str_format_internal10FormatPackENS1_21UntypedFormatSpecImplENS0_4SpanIKNS1_13FormatArgImplEEE.cold.1, symObjAddr: 0x1D64, symBinAddr: 0x60598, symSize: 0x24 }
  - { offset: 0x36B84, size: 0x8, addend: 0x0, symName: __ZN4absl12lts_2024011619str_format_internal10FormatPackENS1_21UntypedFormatSpecImplENS0_4SpanIKNS1_13FormatArgImplEEE.cold.1, symObjAddr: 0x1D64, symBinAddr: 0x60598, symSize: 0x24 }
  - { offset: 0x36DCA, size: 0x8, addend: 0x0, symName: __ZN4absl12lts_2024011619str_format_internal17FormatRawSinkImpl5FlushINSt3__112basic_stringIcNS4_11char_traitsIcEENS4_9allocatorIcEEEEEEvPvNS0_11string_viewE, symObjAddr: 0xA48, symBinAddr: 0x7F80, symSize: 0x4 }
  - { offset: 0x36DF9, size: 0x8, addend: 0x0, symName: __ZN4absl12lts_2024011619str_format_internal17FormatRawSinkImpl5FlushINSt3__112basic_stringIcNS4_11char_traitsIcEENS4_9allocatorIcEEEEEEvPvNS0_11string_viewE, symObjAddr: 0xA48, symBinAddr: 0x7F80, symSize: 0x4 }
  - { offset: 0x36E14, size: 0x8, addend: 0x0, symName: __ZN4absl12lts_2024011619str_format_internal17FormatRawSinkImpl5FlushINSt3__112basic_stringIcNS4_11char_traitsIcEENS4_9allocatorIcEEEEEEvPvNS0_11string_viewE, symObjAddr: 0xA48, symBinAddr: 0x7F80, symSize: 0x4 }
  - { offset: 0x36E5C, size: 0x8, addend: 0x0, symName: __ZNK4absl12lts_2024011619str_format_internal21UntypedFormatSpecImpl3strEv.cold.2, symObjAddr: 0x1DD8, symBinAddr: 0x605BC, symSize: 0x28 }
  - { offset: 0x37376, size: 0x8, addend: 0x0, symName: __ZNSt3__119basic_ostringstreamIcNS_11char_traitsIcEENS_9allocatorIcEEEC1B8ne200100Ev, symObjAddr: 0xD60, symBinAddr: 0x8298, symSize: 0xB4 }
  - { offset: 0x37461, size: 0x8, addend: 0x0, symName: __ZN4absl12lts_2024011613InlinedVectorINS0_19str_format_internal13FormatArgImplELm4ENSt3__19allocatorIS3_EEEC2IPKS3_Li0EEET_SB_RKS6_, symObjAddr: 0x19BC, symBinAddr: 0x8EF4, symSize: 0x4C }
  - { offset: 0x376FE, size: 0x8, addend: 0x0, symName: __ZNKSt3__115basic_stringbufIcNS_11char_traitsIcEENS_9allocatorIcEEE3strEv, symObjAddr: 0x1B64, symBinAddr: 0x9014, symSize: 0x4C }
  - { offset: 0x3784A, size: 0x8, addend: 0x0, symName: __ZNSt3__119basic_ostringstreamIcNS_11char_traitsIcEENS_9allocatorIcEEED1Ev, symObjAddr: 0xE14, symBinAddr: 0x834C, symSize: 0x8C }
  - { offset: 0x37AA4, size: 0x8, addend: 0x0, symName: __ZNSt3__115basic_stringbufIcNS_11char_traitsIcEENS_9allocatorIcEEEC2B8ne200100Ej, symObjAddr: 0x104C, symBinAddr: 0x8584, symSize: 0xA0 }
  - { offset: 0x37C0B, size: 0x8, addend: 0x0, symName: __ZNSt3__119basic_ostringstreamIcNS_11char_traitsIcEENS_9allocatorIcEEED0Ev, symObjAddr: 0xEA0, symBinAddr: 0x83D8, symSize: 0x8C }
  - { offset: 0x37DB9, size: 0x8, addend: 0x0, symName: __ZTv0_n24_NSt3__119basic_ostringstreamIcNS_11char_traitsIcEENS_9allocatorIcEEED1Ev, symObjAddr: 0xF2C, symBinAddr: 0x8464, symSize: 0x8C }
  - { offset: 0x37F6C, size: 0x8, addend: 0x0, symName: __ZTv0_n24_NSt3__119basic_ostringstreamIcNS_11char_traitsIcEENS_9allocatorIcEEED0Ev, symObjAddr: 0xFB8, symBinAddr: 0x84F0, symSize: 0x94 }
  - { offset: 0x38133, size: 0x8, addend: 0x0, symName: __ZNSt3__115basic_stringbufIcNS_11char_traitsIcEENS_9allocatorIcEEE15__init_buf_ptrsB8ne200100Ev, symObjAddr: 0x10EC, symBinAddr: 0x8624, symSize: 0x104 }
  - { offset: 0x38424, size: 0x8, addend: 0x0, symName: __ZNSt3__115basic_stringbufIcNS_11char_traitsIcEENS_9allocatorIcEEED1Ev, symObjAddr: 0x11F0, symBinAddr: 0x8728, symSize: 0x58 }
  - { offset: 0x38589, size: 0x8, addend: 0x0, symName: __ZNSt3__115basic_stringbufIcNS_11char_traitsIcEENS_9allocatorIcEEED0Ev, symObjAddr: 0x1248, symBinAddr: 0x8780, symSize: 0x58 }
  - { offset: 0x387E3, size: 0x8, addend: 0x0, symName: __ZNSt3__115basic_stringbufIcNS_11char_traitsIcEENS_9allocatorIcEEE7seekoffExNS_8ios_base7seekdirEj, symObjAddr: 0x12A0, symBinAddr: 0x87D8, symSize: 0x100 }
  - { offset: 0x38A06, size: 0x8, addend: 0x0, symName: __ZNSt3__115basic_stringbufIcNS_11char_traitsIcEENS_9allocatorIcEEE7seekposENS_4fposI11__mbstate_tEEj, symObjAddr: 0x13A0, symBinAddr: 0x88D8, symSize: 0x18 }
  - { offset: 0x38AA5, size: 0x8, addend: 0x0, symName: __ZNSt3__115basic_stringbufIcNS_11char_traitsIcEENS_9allocatorIcEEE9underflowEv, symObjAddr: 0x13B8, symBinAddr: 0x88F0, symSize: 0x50 }
  - { offset: 0x38B47, size: 0x8, addend: 0x0, symName: __ZNSt3__115basic_stringbufIcNS_11char_traitsIcEENS_9allocatorIcEEE9pbackfailEi, symObjAddr: 0x1408, symBinAddr: 0x8940, symSize: 0x6C }
  - { offset: 0x38C9B, size: 0x8, addend: 0x0, symName: __ZNSt3__115basic_stringbufIcNS_11char_traitsIcEENS_9allocatorIcEEE8overflowEi, symObjAddr: 0x1474, symBinAddr: 0x89AC, symSize: 0x158 }
  - { offset: 0x3925B, size: 0x8, addend: 0x0, symName: __ZNSt3__112basic_stringIcNS_11char_traitsIcEENS_9allocatorIcEEEC2B8ne200100Emc, symObjAddr: 0x1870, symBinAddr: 0x8DA8, symSize: 0x9C }
  - { offset: 0x39489, size: 0x8, addend: 0x0, symName: __ZNSt3__112basic_stringIcNS_11char_traitsIcEENS_9allocatorIcEEE20__throw_length_errorB8ne200100Ev, symObjAddr: 0x190C, symBinAddr: 0x8E44, symSize: 0x14 }
  - { offset: 0x395E1, size: 0x8, addend: 0x0, symName: __ZNSt3__112basic_stringIcNS_11char_traitsIcEENS_9allocatorIcEEE20__throw_length_errorB8ne200100Ev, symObjAddr: 0x190C, symBinAddr: 0x8E44, symSize: 0x14 }
  - { offset: 0x395F8, size: 0x8, addend: 0x0, symName: __ZNSt3__120__throw_length_errorB8ne200100EPKc, symObjAddr: 0x1920, symBinAddr: 0x8E58, symSize: 0x50 }
  - { offset: 0x39603, size: 0x8, addend: 0x0, symName: __ZNSt12length_errorC1B8ne200100EPKc, symObjAddr: 0x1970, symBinAddr: 0x8EA8, symSize: 0x24 }
  - { offset: 0x397FD, size: 0x8, addend: 0x0, symName: __ZN4absl12lts_2024011623inlined_vector_internal7StorageINS0_19str_format_internal13FormatArgImplELm4ENSt3__19allocatorIS4_EEE10InitializeINS1_20IteratorValueAdapterIS7_PKS4_EEEEvT_m, symObjAddr: 0x1A08, symBinAddr: 0x8F40, symSize: 0xA0 }
  - { offset: 0x39A86, size: 0x8, addend: 0x0, symName: __ZN4absl12lts_2024011623inlined_vector_internal13MallocAdapterINSt3__19allocatorINS0_19str_format_internal13FormatArgImplEEELb0EE8AllocateERS7_m, symObjAddr: 0x1AA8, symBinAddr: 0x8FE0, symSize: 0x34 }
  - { offset: 0x39C3F, size: 0x8, addend: 0x0, symName: __ZN4absl12lts_2024011623inlined_vector_internal13MallocAdapterINSt3__19allocatorINS0_19str_format_internal13FormatArgImplEEELb0EE8AllocateERS7_m, symObjAddr: 0x1AA8, symBinAddr: 0x8FE0, symSize: 0x34 }
  - { offset: 0x39D05, size: 0x8, addend: 0x0, symName: __ZN4absl12lts_2024011623inlined_vector_internal7StorageINS0_19str_format_internal13FormatArgImplELm4ENSt3__19allocatorIS4_EEE10InitializeINS1_20IteratorValueAdapterIS7_PKS4_EEEEvT_m.cold.1, symObjAddr: 0x1E00, symBinAddr: 0x605E4, symSize: 0x28 }
  - { offset: 0x39D33, size: 0x8, addend: 0x0, symName: __ZN4absl12lts_2024011623inlined_vector_internal7StorageINS0_19str_format_internal13FormatArgImplELm4ENSt3__19allocatorIS4_EEE10InitializeINS1_20IteratorValueAdapterIS7_PKS4_EEEEvT_m.cold.2, symObjAddr: 0x1E28, symBinAddr: 0x6060C, symSize: 0x28 }
  - { offset: 0x39EEC, size: 0x8, addend: 0x0, symName: __ZNSt3__112basic_stringIcNS_11char_traitsIcEENS_9allocatorIcEEE16__init_with_sizeB8ne200100IPcS7_EEvT_T0_m, symObjAddr: 0x1BB0, symBinAddr: 0x9060, symSize: 0x9C }
  - { offset: 0x3A14A, size: 0x8, addend: 0x0, symName: __ZNSt3__112basic_stringIcNS_11char_traitsIcEENS_9allocatorIcEEEC2B8ne200100ILi0EEEPKc, symObjAddr: 0x1C4C, symBinAddr: 0x90FC, symSize: 0xA4 }
  - { offset: 0x3A2A0, size: 0x8, addend: 0x0, symName: __ZN4absl12lts_2024011619str_format_internal17FormatRawSinkImpl5FlushINSt3__113basic_ostreamIcNS4_11char_traitsIcEEEEEEvPvNS0_11string_viewE, symObjAddr: 0x1D58, symBinAddr: 0x9208, symSize: 0x4 }
  - { offset: 0x3A2CF, size: 0x8, addend: 0x0, symName: __ZN4absl12lts_2024011619str_format_internal17FormatRawSinkImpl5FlushINSt3__113basic_ostreamIcNS4_11char_traitsIcEEEEEEvPvNS0_11string_viewE, symObjAddr: 0x1D58, symBinAddr: 0x9208, symSize: 0x4 }
  - { offset: 0x3A2EA, size: 0x8, addend: 0x0, symName: __ZN4absl12lts_2024011619str_format_internal17FormatRawSinkImpl5FlushINSt3__113basic_ostreamIcNS4_11char_traitsIcEEEEEEvPvNS0_11string_viewE, symObjAddr: 0x1D58, symBinAddr: 0x9208, symSize: 0x4 }
  - { offset: 0x3A317, size: 0x8, addend: 0x0, symName: __ZN4absl12lts_2024011619str_format_internal17FormatRawSinkImpl5FlushINS1_11FILERawSinkEEEvPvNS0_11string_viewE, symObjAddr: 0x1D5C, symBinAddr: 0x920C, symSize: 0x4 }
  - { offset: 0x3A346, size: 0x8, addend: 0x0, symName: __ZN4absl12lts_2024011619str_format_internal17FormatRawSinkImpl5FlushINS1_11FILERawSinkEEEvPvNS0_11string_viewE, symObjAddr: 0x1D5C, symBinAddr: 0x920C, symSize: 0x4 }
  - { offset: 0x3A361, size: 0x8, addend: 0x0, symName: __ZN4absl12lts_2024011619str_format_internal17FormatRawSinkImpl5FlushINS1_11FILERawSinkEEEvPvNS0_11string_viewE, symObjAddr: 0x1D5C, symBinAddr: 0x920C, symSize: 0x4 }
  - { offset: 0x3A385, size: 0x8, addend: 0x0, symName: __ZN4absl12lts_2024011619str_format_internal17FormatRawSinkImpl5FlushINS1_13BufferRawSinkEEEvPvNS0_11string_viewE, symObjAddr: 0x1D60, symBinAddr: 0x9210, symSize: 0x4 }
  - { offset: 0x3A3B4, size: 0x8, addend: 0x0, symName: __ZN4absl12lts_2024011619str_format_internal17FormatRawSinkImpl5FlushINS1_13BufferRawSinkEEEvPvNS0_11string_viewE, symObjAddr: 0x1D60, symBinAddr: 0x9210, symSize: 0x4 }
  - { offset: 0x3A3CF, size: 0x8, addend: 0x0, symName: __ZN4absl12lts_2024011619str_format_internal17FormatRawSinkImpl5FlushINS1_13BufferRawSinkEEEvPvNS0_11string_viewE, symObjAddr: 0x1D60, symBinAddr: 0x9210, symSize: 0x4 }
  - { offset: 0x3C2C0, size: 0x8, addend: 0x0, symName: __ZN4absl12lts_2024011612_GLOBAL__N_16IsDoneEPv, symObjAddr: 0x228, symBinAddr: 0x943C, symSize: 0x8 }
  - { offset: 0x3D1A4, size: 0x8, addend: 0x0, symName: __ZN4absl12lts_2024011615BlockingCounterC2Ei, symObjAddr: 0x0, symBinAddr: 0x9214, symSize: 0xA8 }
  - { offset: 0x3D46E, size: 0x8, addend: 0x0, symName: __ZN4absl12lts_2024011615BlockingCounterC1Ei, symObjAddr: 0xA8, symBinAddr: 0x92BC, symSize: 0x4 }
  - { offset: 0x3D4A8, size: 0x8, addend: 0x0, symName: __ZN4absl12lts_2024011615BlockingCounterC1Ei, symObjAddr: 0xA8, symBinAddr: 0x92BC, symSize: 0x4 }
  - { offset: 0x3D573, size: 0x8, addend: 0x0, symName: __ZN4absl12lts_2024011615BlockingCounter14DecrementCountEv, symObjAddr: 0xAC, symBinAddr: 0x92C0, symSize: 0x68 }
  - { offset: 0x3D691, size: 0x8, addend: 0x0, symName: __ZN4absl12lts_2024011615BlockingCounter14DecrementCountEv.cold.1, symObjAddr: 0x240, symBinAddr: 0x60634, symSize: 0x5C }
  - { offset: 0x3D6CB, size: 0x8, addend: 0x0, symName: __ZN4absl12lts_2024011615BlockingCounter4WaitEv, symObjAddr: 0x114, symBinAddr: 0x9328, symSize: 0x114 }
  - { offset: 0x3F6E2, size: 0x8, addend: 0x0, symName: __ZN4absl12lts_2024011610from_charsEPKcS2_RdNS0_12chars_formatE, symObjAddr: 0x0, symBinAddr: 0x9444, symSize: 0x528 }
  - { offset: 0x426DC, size: 0x8, addend: 0x0, symName: __ZN4absl12lts_2024011612_GLOBAL__N_125kPower10MantissaHighTableE, symObjAddr: 0x10C8, symBinAddr: 0x67350, symSize: 0x0 }
  - { offset: 0x426F7, size: 0x8, addend: 0x0, symName: __ZN4absl12lts_2024011612_GLOBAL__N_124kPower10MantissaLowTableE, symObjAddr: 0x2520, symBinAddr: 0x687A8, symSize: 0x0 }
  - { offset: 0x42C50, size: 0x8, addend: 0x0, symName: __ZN4absl12lts_2024011612_GLOBAL__N_114HandleEdgeCaseIdEEbRKNS0_16strings_internal11ParsedFloatEbPT_, symObjAddr: 0x998, symBinAddr: 0x9DDC, symSize: 0x10C }
  - { offset: 0x42E8E, size: 0x8, addend: 0x0, symName: __ZN4absl12lts_2024011612_GLOBAL__N_130CalculateFromParsedHexadecimalIdEENS1_15CalculatedFloatERKNS0_16strings_internal11ParsedFloatE, symObjAddr: 0xAA4, symBinAddr: 0x9EE8, symSize: 0x94 }
  - { offset: 0x4300F, size: 0x8, addend: 0x0, symName: __ZN4absl12lts_2024011612_GLOBAL__N_118ShiftRightAndRoundENS0_7uint128EibPb, symObjAddr: 0xB38, symBinAddr: 0x9F7C, symSize: 0xEC }
  - { offset: 0x431B4, size: 0x8, addend: 0x0, symName: __ZN4absl12lts_2024011612_GLOBAL__N_111MustRoundUpEyiRKNS0_16strings_internal11ParsedFloatE, symObjAddr: 0xC24, symBinAddr: 0xA068, symSize: 0x268 }
  - { offset: 0x436F7, size: 0x8, addend: 0x0, symName: __ZN4absl12lts_2024011612_GLOBAL__N_114HandleEdgeCaseIfEEbRKNS0_16strings_internal11ParsedFloatEbPT_, symObjAddr: 0xE8C, symBinAddr: 0xA2D0, symSize: 0x108 }
  - { offset: 0x43935, size: 0x8, addend: 0x0, symName: __ZN4absl12lts_2024011612_GLOBAL__N_130CalculateFromParsedHexadecimalIfEENS1_15CalculatedFloatERKNS0_16strings_internal11ParsedFloatE, symObjAddr: 0xF94, symBinAddr: 0xA3D8, symSize: 0x94 }
  - { offset: 0x43AB6, size: 0x8, addend: 0x0, symName: __ZN4absl12lts_2024011612_GLOBAL__N_112EncodeResultIfEEvRKNS1_15CalculatedFloatEbPNS0_17from_chars_resultEPT_, symObjAddr: 0x1028, symBinAddr: 0xA46C, symSize: 0xA0 }
  - { offset: 0x4400D, size: 0x8, addend: 0x0, symName: __ZN4absl12lts_2024011610from_charsEPKcS2_RdNS0_12chars_formatE, symObjAddr: 0x0, symBinAddr: 0x9444, symSize: 0x528 }
  - { offset: 0x4464A, size: 0x8, addend: 0x0, symName: __ZN4absl12lts_2024011610from_charsEPKcS2_RfNS0_12chars_formatE, symObjAddr: 0x528, symBinAddr: 0x996C, symSize: 0x470 }
  - { offset: 0x47098, size: 0x8, addend: 0x0, symName: __ZN4absl12lts_2024011616strings_internal11BigUnsignedILi4EEC2Ev, symObjAddr: 0x0, symBinAddr: 0xA50C, symSize: 0xC }
  - { offset: 0x470FC, size: 0x8, addend: 0x0, symName: __ZN4absl12lts_2024011616strings_internal12_GLOBAL__N_118kLargePowersOfFiveE, symObjAddr: 0x1CE8, symBinAddr: 0x69C60, symSize: 0x0 }
  - { offset: 0x47133, size: 0x8, addend: 0x0, symName: __ZN4absl12lts_2024011616strings_internal10kFiveToNthE, symObjAddr: 0x1C88, symBinAddr: 0x69C00, symSize: 0x0 }
  - { offset: 0x4714D, size: 0x8, addend: 0x0, symName: __ZN4absl12lts_2024011616strings_internal9kTenToNthE, symObjAddr: 0x1CC0, symBinAddr: 0x69C38, symSize: 0x0 }
  - { offset: 0x4AC96, size: 0x8, addend: 0x0, symName: __ZN4absl12lts_2024011616strings_internal11BigUnsignedILi4EEC2Ev, symObjAddr: 0x0, symBinAddr: 0xA50C, symSize: 0xC }
  - { offset: 0x4ACD5, size: 0x8, addend: 0x0, symName: __ZN4absl12lts_2024011616strings_internal11BigUnsignedILi4EEC1Ev, symObjAddr: 0xC, symBinAddr: 0xA518, symSize: 0xC }
  - { offset: 0x4AD00, size: 0x8, addend: 0x0, symName: __ZN4absl12lts_2024011616strings_internal11BigUnsignedILi4EEC1Ev, symObjAddr: 0xC, symBinAddr: 0xA518, symSize: 0xC }
  - { offset: 0x4AD1A, size: 0x8, addend: 0x0, symName: __ZN4absl12lts_2024011616strings_internal11BigUnsignedILi4EEC2Ey, symObjAddr: 0x18, symBinAddr: 0xA524, symSize: 0x28 }
  - { offset: 0x4AD66, size: 0x8, addend: 0x0, symName: __ZN4absl12lts_2024011616strings_internal11BigUnsignedILi4EEC1Ey, symObjAddr: 0x40, symBinAddr: 0xA54C, symSize: 0x28 }
  - { offset: 0x4AD8F, size: 0x8, addend: 0x0, symName: __ZN4absl12lts_2024011616strings_internal11BigUnsignedILi4EEC1Ey, symObjAddr: 0x40, symBinAddr: 0xA54C, symSize: 0x28 }
  - { offset: 0x4ADC1, size: 0x8, addend: 0x0, symName: __ZN4absl12lts_2024011616strings_internal11BigUnsignedILi4EEC2ENS0_11string_viewE, symObjAddr: 0x68, symBinAddr: 0xA574, symSize: 0x88 }
  - { offset: 0x4AE81, size: 0x8, addend: 0x0, symName: __ZN4absl12lts_2024011616strings_internal11BigUnsignedILi4EE10ReadDigitsEPKcS5_i, symObjAddr: 0xF0, symBinAddr: 0xA5FC, symSize: 0x2D8 }
  - { offset: 0x4B362, size: 0x8, addend: 0x0, symName: __ZN4absl12lts_2024011616strings_internal11BigUnsignedILi4EE8Digits10Ev, symObjAddr: 0x3C8, symBinAddr: 0xA8D4, symSize: 0x8 }
  - { offset: 0x4B36D, size: 0x8, addend: 0x0, symName: __ZN4absl12lts_2024011616strings_internal11BigUnsignedILi4EE21MultiplyByTenToTheNthEi, symObjAddr: 0x3D0, symBinAddr: 0xA8DC, symSize: 0x6C }
  - { offset: 0x4B4BB, size: 0x8, addend: 0x0, symName: __ZN4absl12lts_2024011616strings_internal11BigUnsignedILi4EE10MultiplyByEj, symObjAddr: 0x668, symBinAddr: 0xAB74, symSize: 0x9C }
  - { offset: 0x4B562, size: 0x8, addend: 0x0, symName: __ZN4absl12lts_2024011616strings_internal11BigUnsignedILi4EE10ReadDigitsEPKcS5_i.cold.1, symObjAddr: 0x1B48, symBinAddr: 0x60690, symSize: 0x28 }
  - { offset: 0x4B57A, size: 0x8, addend: 0x0, symName: __ZN4absl12lts_2024011616strings_internal11BigUnsignedILi4EE8Digits10Ev, symObjAddr: 0x3C8, symBinAddr: 0xA8D4, symSize: 0x8 }
  - { offset: 0x4B58E, size: 0x8, addend: 0x0, symName: __ZN4absl12lts_2024011616strings_internal11BigUnsignedILi4EE22MultiplyByFiveToTheNthEi, symObjAddr: 0x7FC, symBinAddr: 0xAD08, symSize: 0x74 }
  - { offset: 0x4B5E5, size: 0x8, addend: 0x0, symName: __ZN4absl12lts_2024011616strings_internal11BigUnsignedILi4EE9ShiftLeftEi, symObjAddr: 0x518, symBinAddr: 0xAA24, symSize: 0x150 }
  - { offset: 0x4B7EE, size: 0x8, addend: 0x0, symName: __ZN4absl12lts_2024011616strings_internal11BigUnsignedILi4EEC1ENS0_11string_viewE, symObjAddr: 0x43C, symBinAddr: 0xA948, symSize: 0x4 }
  - { offset: 0x4B824, size: 0x8, addend: 0x0, symName: __ZN4absl12lts_2024011616strings_internal11BigUnsignedILi4EEC1ENS0_11string_viewE, symObjAddr: 0x43C, symBinAddr: 0xA948, symSize: 0x4 }
  - { offset: 0x4B845, size: 0x8, addend: 0x0, symName: __ZN4absl12lts_2024011616strings_internal11BigUnsignedILi4EE17ReadFloatMantissaERKNS1_11ParsedFloatEi, symObjAddr: 0x440, symBinAddr: 0xA94C, symSize: 0xA0 }
  - { offset: 0x4B91F, size: 0x8, addend: 0x0, symName: __ZN4absl12lts_2024011616strings_internal11BigUnsignedILi4EE9SetToZeroEv, symObjAddr: 0x4E0, symBinAddr: 0xA9EC, symSize: 0x38 }
  - { offset: 0x4B92A, size: 0x8, addend: 0x0, symName: __ZN4absl12lts_2024011616strings_internal11BigUnsignedILi4EE17ReadFloatMantissaERKNS1_11ParsedFloatEi.cold.1, symObjAddr: 0x1B70, symBinAddr: 0x606B8, symSize: 0x28 }
  - { offset: 0x4B942, size: 0x8, addend: 0x0, symName: __ZN4absl12lts_2024011616strings_internal11BigUnsignedILi4EE9SetToZeroEv, symObjAddr: 0x4E0, symBinAddr: 0xA9EC, symSize: 0x38 }
  - { offset: 0x4BA2A, size: 0x8, addend: 0x0, symName: __ZN4absl12lts_2024011616strings_internal11BigUnsignedILi4EE10MultiplyByEy, symObjAddr: 0x704, symBinAddr: 0xAC10, symSize: 0x80 }
  - { offset: 0x4BA95, size: 0x8, addend: 0x0, symName: __ZN4absl12lts_2024011616strings_internal11BigUnsignedILi4EE10MultiplyByEiPKj, symObjAddr: 0x784, symBinAddr: 0xAC90, symSize: 0x78 }
  - { offset: 0x4BB3A, size: 0x8, addend: 0x0, symName: __ZN4absl12lts_2024011616strings_internal11BigUnsignedILi4EE12MultiplyStepEiPKjii, symObjAddr: 0xB50, symBinAddr: 0xB05C, symSize: 0xD0 }
  - { offset: 0x4BCD7, size: 0x8, addend: 0x0, symName: __ZN4absl12lts_2024011616strings_internal11BigUnsignedILi4EE12FiveToTheNthEi, symObjAddr: 0x870, symBinAddr: 0xAD7C, symSize: 0xE0 }
  - { offset: 0x4BF02, size: 0x8, addend: 0x0, symName: __ZNK4absl12lts_2024011616strings_internal11BigUnsignedILi4EE7GetWordEi, symObjAddr: 0x950, symBinAddr: 0xAE5C, symSize: 0x24 }
  - { offset: 0x4C0F5, size: 0x8, addend: 0x0, symName: __ZNK4absl12lts_2024011616strings_internal11BigUnsignedILi4EE8ToStringEv, symObjAddr: 0x974, symBinAddr: 0xAE80, symSize: 0x100 }
  - { offset: 0x4C454, size: 0x8, addend: 0x0, symName: __ZN4absl12lts_2024011616strings_internal11BigUnsignedILi4EE6DivModILj10EEEjv, symObjAddr: 0xA7C, symBinAddr: 0xAF88, symSize: 0x78 }
  - { offset: 0x4C489, size: 0x8, addend: 0x0, symName: __ZN4absl12lts_2024011616strings_internal11BigUnsignedILi4EE6DivModILj10EEEjv, symObjAddr: 0xA7C, symBinAddr: 0xAF88, symSize: 0x78 }
  - { offset: 0x4C4B3, size: 0x8, addend: 0x0, symName: __ZNK4absl12lts_2024011616strings_internal11BigUnsignedILi4EE4sizeEv, symObjAddr: 0xA74, symBinAddr: 0xAF80, symSize: 0x8 }
  - { offset: 0x4C4D5, size: 0x8, addend: 0x0, symName: __ZNK4absl12lts_2024011616strings_internal11BigUnsignedILi4EE5wordsEv, symObjAddr: 0xAF4, symBinAddr: 0xB000, symSize: 0x8 }
  - { offset: 0x4C4FC, size: 0x8, addend: 0x0, symName: __ZN4absl12lts_2024011616strings_internal11BigUnsignedILi4EE12AddWithCarryEij, symObjAddr: 0xAFC, symBinAddr: 0xB008, symSize: 0x54 }
  - { offset: 0x4C5C0, size: 0x8, addend: 0x0, symName: __ZN4absl12lts_2024011616strings_internal11BigUnsignedILi4EE12AddWithCarryEiy, symObjAddr: 0xC20, symBinAddr: 0xB12C, symSize: 0xC8 }
  - { offset: 0x4C685, size: 0x8, addend: 0x0, symName: __ZN4absl12lts_2024011616strings_internal11BigUnsignedILi84EEC2Ev, symObjAddr: 0xCE8, symBinAddr: 0xB1F4, symSize: 0x38 }
  - { offset: 0x4C6C4, size: 0x8, addend: 0x0, symName: __ZN4absl12lts_2024011616strings_internal11BigUnsignedILi84EEC1Ev, symObjAddr: 0xD20, symBinAddr: 0xB22C, symSize: 0x38 }
  - { offset: 0x4C6EF, size: 0x8, addend: 0x0, symName: __ZN4absl12lts_2024011616strings_internal11BigUnsignedILi84EEC1Ev, symObjAddr: 0xD20, symBinAddr: 0xB22C, symSize: 0x38 }
  - { offset: 0x4C709, size: 0x8, addend: 0x0, symName: __ZN4absl12lts_2024011616strings_internal11BigUnsignedILi84EEC2Ey, symObjAddr: 0xD58, symBinAddr: 0xB264, symSize: 0x78 }
  - { offset: 0x4C755, size: 0x8, addend: 0x0, symName: __ZN4absl12lts_2024011616strings_internal11BigUnsignedILi84EEC1Ey, symObjAddr: 0xDD0, symBinAddr: 0xB2DC, symSize: 0x78 }
  - { offset: 0x4C77E, size: 0x8, addend: 0x0, symName: __ZN4absl12lts_2024011616strings_internal11BigUnsignedILi84EEC1Ey, symObjAddr: 0xDD0, symBinAddr: 0xB2DC, symSize: 0x78 }
  - { offset: 0x4C79F, size: 0x8, addend: 0x0, symName: __ZN4absl12lts_2024011616strings_internal11BigUnsignedILi84EEC2ENS0_11string_viewE, symObjAddr: 0xE48, symBinAddr: 0xB354, symSize: 0xB4 }
  - { offset: 0x4C860, size: 0x8, addend: 0x0, symName: __ZN4absl12lts_2024011616strings_internal11BigUnsignedILi84EE10ReadDigitsEPKcS5_i, symObjAddr: 0xEFC, symBinAddr: 0xB408, symSize: 0x2D8 }
  - { offset: 0x4CD41, size: 0x8, addend: 0x0, symName: __ZN4absl12lts_2024011616strings_internal11BigUnsignedILi84EE8Digits10Ev, symObjAddr: 0x11D4, symBinAddr: 0xB6E0, symSize: 0x8 }
  - { offset: 0x4CD4C, size: 0x8, addend: 0x0, symName: __ZN4absl12lts_2024011616strings_internal11BigUnsignedILi84EE21MultiplyByTenToTheNthEi, symObjAddr: 0x11DC, symBinAddr: 0xB6E8, symSize: 0x6C }
  - { offset: 0x4CDFA, size: 0x8, addend: 0x0, symName: __ZN4absl12lts_2024011616strings_internal11BigUnsignedILi84EE10MultiplyByEj, symObjAddr: 0x1474, symBinAddr: 0xB980, symSize: 0x9C }
  - { offset: 0x4CEAB, size: 0x8, addend: 0x0, symName: __ZN4absl12lts_2024011616strings_internal11BigUnsignedILi84EE8Digits10Ev, symObjAddr: 0x11D4, symBinAddr: 0xB6E0, symSize: 0x8 }
  - { offset: 0x4CEBF, size: 0x8, addend: 0x0, symName: __ZN4absl12lts_2024011616strings_internal11BigUnsignedILi84EE22MultiplyByFiveToTheNthEi, symObjAddr: 0x1608, symBinAddr: 0xBB14, symSize: 0x74 }
  - { offset: 0x4CF16, size: 0x8, addend: 0x0, symName: __ZN4absl12lts_2024011616strings_internal11BigUnsignedILi84EE9ShiftLeftEi, symObjAddr: 0x1324, symBinAddr: 0xB830, symSize: 0x150 }
  - { offset: 0x4D11F, size: 0x8, addend: 0x0, symName: __ZN4absl12lts_2024011616strings_internal11BigUnsignedILi84EEC1ENS0_11string_viewE, symObjAddr: 0x1248, symBinAddr: 0xB754, symSize: 0x4 }
  - { offset: 0x4D155, size: 0x8, addend: 0x0, symName: __ZN4absl12lts_2024011616strings_internal11BigUnsignedILi84EEC1ENS0_11string_viewE, symObjAddr: 0x1248, symBinAddr: 0xB754, symSize: 0x4 }
  - { offset: 0x4D176, size: 0x8, addend: 0x0, symName: __ZN4absl12lts_2024011616strings_internal11BigUnsignedILi84EE17ReadFloatMantissaERKNS1_11ParsedFloatEi, symObjAddr: 0x124C, symBinAddr: 0xB758, symSize: 0xA0 }
  - { offset: 0x4D250, size: 0x8, addend: 0x0, symName: __ZN4absl12lts_2024011616strings_internal11BigUnsignedILi84EE9SetToZeroEv, symObjAddr: 0x12EC, symBinAddr: 0xB7F8, symSize: 0x38 }
  - { offset: 0x4D265, size: 0x8, addend: 0x0, symName: __ZN4absl12lts_2024011616strings_internal11BigUnsignedILi84EE9SetToZeroEv, symObjAddr: 0x12EC, symBinAddr: 0xB7F8, symSize: 0x38 }
  - { offset: 0x4D2D3, size: 0x8, addend: 0x0, symName: __ZN4absl12lts_2024011616strings_internal11BigUnsignedILi84EE10MultiplyByEy, symObjAddr: 0x1510, symBinAddr: 0xBA1C, symSize: 0x80 }
  - { offset: 0x4D33E, size: 0x8, addend: 0x0, symName: __ZN4absl12lts_2024011616strings_internal11BigUnsignedILi84EE10MultiplyByEiPKj, symObjAddr: 0x1590, symBinAddr: 0xBA9C, symSize: 0x78 }
  - { offset: 0x4D3E3, size: 0x8, addend: 0x0, symName: __ZN4absl12lts_2024011616strings_internal11BigUnsignedILi84EE12MultiplyStepEiPKjii, symObjAddr: 0x19B0, symBinAddr: 0xBE44, symSize: 0xD0 }
  - { offset: 0x4D4EA, size: 0x8, addend: 0x0, symName: __ZN4absl12lts_2024011616strings_internal11BigUnsignedILi84EE12FiveToTheNthEi, symObjAddr: 0x167C, symBinAddr: 0xBB88, symSize: 0x12C }
  - { offset: 0x4D715, size: 0x8, addend: 0x0, symName: __ZNK4absl12lts_2024011616strings_internal11BigUnsignedILi84EE7GetWordEi, symObjAddr: 0x17A8, symBinAddr: 0xBCB4, symSize: 0x24 }
  - { offset: 0x4D764, size: 0x8, addend: 0x0, symName: __ZNK4absl12lts_2024011616strings_internal11BigUnsignedILi84EE8ToStringEv, symObjAddr: 0x17CC, symBinAddr: 0xBCD8, symSize: 0x108 }
  - { offset: 0x4DAFE, size: 0x8, addend: 0x0, symName: __ZNK4absl12lts_2024011616strings_internal11BigUnsignedILi84EE4sizeEv, symObjAddr: 0x18D4, symBinAddr: 0xBDE0, symSize: 0x8 }
  - { offset: 0x4DB20, size: 0x8, addend: 0x0, symName: __ZNK4absl12lts_2024011616strings_internal11BigUnsignedILi84EE5wordsEv, symObjAddr: 0x1954, symBinAddr: 0xBDE8, symSize: 0x8 }
  - { offset: 0x4DB47, size: 0x8, addend: 0x0, symName: __ZN4absl12lts_2024011616strings_internal11BigUnsignedILi84EE12AddWithCarryEij, symObjAddr: 0x195C, symBinAddr: 0xBDF0, symSize: 0x54 }
  - { offset: 0x4DC0B, size: 0x8, addend: 0x0, symName: __ZN4absl12lts_2024011616strings_internal11BigUnsignedILi84EE12AddWithCarryEiy, symObjAddr: 0x1A80, symBinAddr: 0xBF14, symSize: 0xC8 }
  - { offset: 0x4FBA0, size: 0x8, addend: 0x0, symName: __ZN4absl12lts_2024011616strings_internal10ParseFloatILi10EEENS1_11ParsedFloatEPKcS5_NS0_12chars_formatE, symObjAddr: 0x0, symBinAddr: 0xBFDC, symSize: 0x278 }
  - { offset: 0x4FC0C, size: 0x8, addend: 0x0, symName: __ZN4absl12lts_2024011612_GLOBAL__N_111kAsciiToIntE, symObjAddr: 0xB15, symBinAddr: 0x6A2F0, symSize: 0x0 }
  - { offset: 0x4FC71, size: 0x8, addend: 0x0, symName: __ZN4absl12lts_2024011612_GLOBAL__N_118ParseInfinityOrNanEPKcS3_PNS0_16strings_internal11ParsedFloatE, symObjAddr: 0x278, symBinAddr: 0xC254, symSize: 0x164 }
  - { offset: 0x4FD37, size: 0x8, addend: 0x0, symName: __ZN4absl12lts_2024011612_GLOBAL__N_113ConsumeDigitsILi10EyEEiPKcS4_iPT0_Pb, symObjAddr: 0x3DC, symBinAddr: 0xC3B8, symSize: 0x104 }
  - { offset: 0x4FE3E, size: 0x8, addend: 0x0, symName: __ZN4absl12lts_2024011612_GLOBAL__N_113ConsumeDigitsILi10EiEEiPKcS4_iPT0_Pb, symObjAddr: 0x4E0, symBinAddr: 0xC4BC, symSize: 0xD0 }
  - { offset: 0x4FE5B, size: 0x8, addend: 0x0, symName: __ZN4absl12lts_2024011612_GLOBAL__N_113ConsumeDigitsILi10EiEEiPKcS4_iPT0_Pb, symObjAddr: 0x4E0, symBinAddr: 0xC4BC, symSize: 0xD0 }
  - { offset: 0x4FF51, size: 0x8, addend: 0x0, symName: __ZN4absl12lts_2024011616strings_internal10ParseFloatILi16EEENS1_11ParsedFloatEPKcS5_NS0_12chars_formatE, symObjAddr: 0x5B0, symBinAddr: 0xC58C, symSize: 0x27C }
  - { offset: 0x4FFFF, size: 0x8, addend: 0x0, symName: __ZN4absl12lts_2024011612_GLOBAL__N_113ConsumeDigitsILi16EyEEiPKcS4_iPT0_Pb, symObjAddr: 0x82C, symBinAddr: 0xC808, symSize: 0x104 }
  - { offset: 0x5010A, size: 0x8, addend: 0x0, symName: __ZN4absl12lts_2024011612_GLOBAL__N_113ConsumeDigitsILi10EyEEiPKcS4_iPT0_Pb.cold.1, symObjAddr: 0x930, symBinAddr: 0x606E0, symSize: 0x28 }
  - { offset: 0x501BD, size: 0x8, addend: 0x0, symName: __ZN4absl12lts_2024011616strings_internal10ParseFloatILi10EEENS1_11ParsedFloatEPKcS5_NS0_12chars_formatE, symObjAddr: 0x0, symBinAddr: 0xBFDC, symSize: 0x278 }
  - { offset: 0x50298, size: 0x8, addend: 0x0, symName: __ZN4absl12lts_2024011616strings_internal10ParseFloatILi10EEENS1_11ParsedFloatEPKcS5_NS0_12chars_formatE, symObjAddr: 0x0, symBinAddr: 0xBFDC, symSize: 0x278 }
  - { offset: 0x502B4, size: 0x8, addend: 0x0, symName: __ZN4absl12lts_2024011616strings_internal10ParseFloatILi10EEENS1_11ParsedFloatEPKcS5_NS0_12chars_formatE, symObjAddr: 0x0, symBinAddr: 0xBFDC, symSize: 0x278 }
  - { offset: 0x50443, size: 0x8, addend: 0x0, symName: __ZN4absl12lts_2024011616strings_internal10ParseFloatILi16EEENS1_11ParsedFloatEPKcS5_NS0_12chars_formatE, symObjAddr: 0x5B0, symBinAddr: 0xC58C, symSize: 0x27C }
  - { offset: 0x5051E, size: 0x8, addend: 0x0, symName: __ZN4absl12lts_2024011616strings_internal10ParseFloatILi16EEENS1_11ParsedFloatEPKcS5_NS0_12chars_formatE, symObjAddr: 0x5B0, symBinAddr: 0xC58C, symSize: 0x27C }
  - { offset: 0x5053A, size: 0x8, addend: 0x0, symName: __ZN4absl12lts_2024011616strings_internal10ParseFloatILi16EEENS1_11ParsedFloatEPKcS5_NS0_12chars_formatE, symObjAddr: 0x5B0, symBinAddr: 0xC58C, symSize: 0x27C }
  - { offset: 0x512DC, size: 0x8, addend: 0x0, symName: __ZN4absl12lts_2024011612_GLOBAL__N_113ConsumeDigitsILi10EyEEiPKcS4_iPT0_Pb.cold.2, symObjAddr: 0x958, symBinAddr: 0x60708, symSize: 0x24 }
  - { offset: 0x512F4, size: 0x8, addend: 0x0, symName: __ZN4absl12lts_2024011612_GLOBAL__N_113ConsumeDigitsILi10EyEEiPKcS4_iPT0_Pb.cold.1, symObjAddr: 0x930, symBinAddr: 0x606E0, symSize: 0x28 }
  - { offset: 0x5130C, size: 0x8, addend: 0x0, symName: __ZN4absl12lts_2024011612_GLOBAL__N_113ConsumeDigitsILi10EyEEiPKcS4_iPT0_Pb.cold.3, symObjAddr: 0x97C, symBinAddr: 0x6072C, symSize: 0x28 }
  - { offset: 0x51342, size: 0x8, addend: 0x0, symName: __ZN4absl12lts_2024011612_GLOBAL__N_113ConsumeDigitsILi16EyEEiPKcS4_iPT0_Pb.cold.3, symObjAddr: 0xA14, symBinAddr: 0x60754, symSize: 0x28 }
  - { offset: 0x5135A, size: 0x8, addend: 0x0, symName: _OUTLINED_FUNCTION_0, symObjAddr: 0xA3C, symBinAddr: 0xC90C, symSize: 0x8 }
  - { offset: 0x57BBB, size: 0x8, addend: 0x0, symName: __ZN4absl12lts_2024011612log_internal17MakeCheckOpStringIbbEEPNSt3__112basic_stringIcNS3_11char_traitsIcEENS3_9allocatorIcEEEET_T0_PKc, symObjAddr: 0x0, symBinAddr: 0xC914, symSize: 0x94 }
  - { offset: 0x57DB0, size: 0x8, addend: 0x0, symName: __ZN4absl12lts_2024011612log_internal17MakeCheckOpStringIxxEEPNSt3__112basic_stringIcNS3_11char_traitsIcEENS3_9allocatorIcEEEET_T0_PKc, symObjAddr: 0x124, symBinAddr: 0xCA38, symSize: 0x94 }
  - { offset: 0x57FA5, size: 0x8, addend: 0x0, symName: __ZN4absl12lts_2024011612log_internal17MakeCheckOpStringIyyEEPNSt3__112basic_stringIcNS3_11char_traitsIcEENS3_9allocatorIcEEEET_T0_PKc, symObjAddr: 0x1B8, symBinAddr: 0xCACC, symSize: 0x94 }
  - { offset: 0x5819A, size: 0x8, addend: 0x0, symName: __ZN4absl12lts_2024011612log_internal17MakeCheckOpStringIffEEPNSt3__112basic_stringIcNS3_11char_traitsIcEENS3_9allocatorIcEEEET_T0_PKc, symObjAddr: 0x24C, symBinAddr: 0xCB60, symSize: 0x94 }
  - { offset: 0x5838F, size: 0x8, addend: 0x0, symName: __ZN4absl12lts_2024011612log_internal17MakeCheckOpStringIddEEPNSt3__112basic_stringIcNS3_11char_traitsIcEENS3_9allocatorIcEEEET_T0_PKc, symObjAddr: 0x2E0, symBinAddr: 0xCBF4, symSize: 0x94 }
  - { offset: 0x58557, size: 0x8, addend: 0x0, symName: __ZN4absl12lts_2024011612log_internal17MakeCheckOpStringIccEEPNSt3__112basic_stringIcNS3_11char_traitsIcEENS3_9allocatorIcEEEET_T0_PKc, symObjAddr: 0x374, symBinAddr: 0xCC88, symSize: 0x94 }
  - { offset: 0x58716, size: 0x8, addend: 0x0, symName: __ZN4absl12lts_2024011612log_internal22MakeCheckOpValueStringERNSt3__113basic_ostreamIcNS2_11char_traitsIcEEEEc, symObjAddr: 0x408, symBinAddr: 0xCD1C, symSize: 0x84 }
  - { offset: 0x5883F, size: 0x8, addend: 0x0, symName: __ZN4absl12lts_2024011612log_internal17MakeCheckOpStringIhhEEPNSt3__112basic_stringIcNS3_11char_traitsIcEENS3_9allocatorIcEEEET_T0_PKc, symObjAddr: 0x48C, symBinAddr: 0xCDA0, symSize: 0x94 }
  - { offset: 0x589FE, size: 0x8, addend: 0x0, symName: __ZN4absl12lts_2024011612log_internal22MakeCheckOpValueStringERNSt3__113basic_ostreamIcNS2_11char_traitsIcEEEEh, symObjAddr: 0x520, symBinAddr: 0xCE34, symSize: 0x84 }
  - { offset: 0x58B54, size: 0x8, addend: 0x0, symName: __ZN4absl12lts_2024011612log_internal17MakeCheckOpStringIRKNSt3__112basic_stringIcNS3_11char_traitsIcEENS3_9allocatorIcEEEESB_EEPS9_T_T0_PKc, symObjAddr: 0x5A4, symBinAddr: 0xCEB8, symSize: 0xBC }
  - { offset: 0x58E77, size: 0x8, addend: 0x0, symName: __ZN4absl12lts_2024011612log_internal17MakeCheckOpStringIRKNS0_11string_viewES5_EEPNSt3__112basic_stringIcNS6_11char_traitsIcEENS6_9allocatorIcEEEET_T0_PKc, symObjAddr: 0x660, symBinAddr: 0xCF74, symSize: 0x94 }
  - { offset: 0x590CA, size: 0x8, addend: 0x0, symName: __ZN4absl12lts_2024011612log_internal17MakeCheckOpStringIPKcS4_EEPNSt3__112basic_stringIcNS5_11char_traitsIcEENS5_9allocatorIcEEEET_T0_S4_, symObjAddr: 0x6F4, symBinAddr: 0xD008, symSize: 0xC4 }
  - { offset: 0x59437, size: 0x8, addend: 0x0, symName: __ZN4absl12lts_2024011612log_internal17MakeCheckOpStringIPKaS4_EEPNSt3__112basic_stringIcNS5_11char_traitsIcEENS5_9allocatorIcEEEET_T0_PKc, symObjAddr: 0x7B8, symBinAddr: 0xD0CC, symSize: 0xC4 }
  - { offset: 0x597B2, size: 0x8, addend: 0x0, symName: __ZN4absl12lts_2024011612log_internal17MakeCheckOpStringIPKhS4_EEPNSt3__112basic_stringIcNS5_11char_traitsIcEENS5_9allocatorIcEEEET_T0_PKc, symObjAddr: 0x87C, symBinAddr: 0xD190, symSize: 0xC4 }
  - { offset: 0x59AD8, size: 0x8, addend: 0x0, symName: __ZN4absl12lts_2024011612log_internal17MakeCheckOpStringIPKvS4_EEPNSt3__112basic_stringIcNS5_11char_traitsIcEENS5_9allocatorIcEEEET_T0_PKc, symObjAddr: 0x940, symBinAddr: 0xD254, symSize: 0x94 }
  - { offset: 0x59C97, size: 0x8, addend: 0x0, symName: __ZN4absl12lts_2024011612log_internal22MakeCheckOpValueStringERNSt3__113basic_ostreamIcNS2_11char_traitsIcEEEEPKv, symObjAddr: 0x9D4, symBinAddr: 0xD2E8, symSize: 0x18 }
  - { offset: 0x59D06, size: 0x8, addend: 0x0, symName: __ZN4absl12lts_2024011612log_internal22MakeCheckOpValueStringERNSt3__113basic_ostreamIcNS2_11char_traitsIcEEEEa, symObjAddr: 0xB90, symBinAddr: 0xD364, symSize: 0x84 }
  - { offset: 0x59E30, size: 0x8, addend: 0x0, symName: __ZN4absl12lts_2024011612log_internal19CheckstrcmptrueImplEPKcS3_S3_, symObjAddr: 0xC14, symBinAddr: 0xD3E8, symSize: 0x144 }
  - { offset: 0x5A0F7, size: 0x8, addend: 0x0, symName: __ZN4absl12lts_2024011612log_internal20CheckstrcmpfalseImplEPKcS3_S3_, symObjAddr: 0xD58, symBinAddr: 0xD52C, symSize: 0x148 }
  - { offset: 0x5A3BE, size: 0x8, addend: 0x0, symName: __ZN4absl12lts_2024011612log_internal23CheckstrcasecmptrueImplEPKcS3_S3_, symObjAddr: 0xEA0, symBinAddr: 0xD674, symSize: 0x144 }
  - { offset: 0x5A685, size: 0x8, addend: 0x0, symName: __ZN4absl12lts_2024011612log_internal24CheckstrcasecmpfalseImplEPKcS3_S3_, symObjAddr: 0xFE4, symBinAddr: 0xD7B8, symSize: 0x148 }
  - { offset: 0x5AECE, size: 0x8, addend: 0x0, symName: __ZN4absl12lts_2024011612log_internal21CheckOpMessageBuilderC2EPKc, symObjAddr: 0x9EC, symBinAddr: 0xD300, symSize: 0x64 }
  - { offset: 0x5AFF5, size: 0x8, addend: 0x0, symName: __ZN4absl12lts_2024011612log_internal21CheckOpMessageBuilder9NewStringEv, symObjAddr: 0xC8, symBinAddr: 0xC9DC, symSize: 0x5C }
  - { offset: 0x5B093, size: 0x8, addend: 0x0, symName: __ZN4absl12lts_2024011612log_internal21CheckOpMessageBuilderD2Ev, symObjAddr: 0x112C, symBinAddr: 0xD900, symSize: 0x8C }
  - { offset: 0x5B24A, size: 0x8, addend: 0x0, symName: __ZN4absl12lts_2024011612log_internal21CheckOpMessageBuilderC1EPKc, symObjAddr: 0x94, symBinAddr: 0xC9A8, symSize: 0x4 }
  - { offset: 0x5B273, size: 0x8, addend: 0x0, symName: __ZN4absl12lts_2024011612log_internal21CheckOpMessageBuilderC1EPKc, symObjAddr: 0x94, symBinAddr: 0xC9A8, symSize: 0x4 }
  - { offset: 0x5B28D, size: 0x8, addend: 0x0, symName: __ZN4absl12lts_2024011612log_internal21CheckOpMessageBuilder7ForVar2Ev, symObjAddr: 0x98, symBinAddr: 0xC9AC, symSize: 0x30 }
  - { offset: 0x5E441, size: 0x8, addend: 0x0, symName: __ZN4absl12lts_2024011613hash_internal10CityHash32EPKcm, symObjAddr: 0x0, symBinAddr: 0xD98C, symSize: 0x3C0 }
  - { offset: 0x5E649, size: 0x8, addend: 0x0, symName: __ZN4absl12lts_2024011613hash_internal10CityHash32EPKcm, symObjAddr: 0x0, symBinAddr: 0xD98C, symSize: 0x3C0 }
  - { offset: 0x5F638, size: 0x8, addend: 0x0, symName: __ZN4absl12lts_2024011613hash_internal10CityHash64EPKcm, symObjAddr: 0x3C0, symBinAddr: 0xDD4C, symSize: 0x3B8 }
  - { offset: 0x602F3, size: 0x8, addend: 0x0, symName: __ZN4absl12lts_2024011613hash_internal18CityHash64WithSeedEPKcmy, symObjAddr: 0x778, symBinAddr: 0xE104, symSize: 0x60 }
  - { offset: 0x6040E, size: 0x8, addend: 0x0, symName: __ZN4absl12lts_2024011613hash_internal19CityHash64WithSeedsEPKcmyy, symObjAddr: 0x7D8, symBinAddr: 0xE164, symSize: 0x54 }
  - { offset: 0x67F50, size: 0x8, addend: 0x0, symName: __ZN4absl12lts_2024011613time_internal4cctz6detail4impl5n_secExxxxxx, symObjAddr: 0x1E78, symBinAddr: 0x10030, symSize: 0x148 }
  - { offset: 0x680D9, size: 0x8, addend: 0x0, symName: __ZN4absl12lts_2024011613time_internal4cctz6detail4impl5n_minExxxxxxa, symObjAddr: 0x202C, symBinAddr: 0x101D4, symSize: 0xBC }
  - { offset: 0x681CD, size: 0x8, addend: 0x0, symName: __ZN4absl12lts_2024011613time_internal4cctz6detail4impl5n_monExxxxaaa, symObjAddr: 0x1FD0, symBinAddr: 0x10178, symSize: 0x5C }
  - { offset: 0x68261, size: 0x8, addend: 0x0, symName: __ZN4absl12lts_2024011613time_internal4cctz6detail4impl5n_dayExaxxaaa, symObjAddr: 0x20E8, symBinAddr: 0x10290, symSize: 0x3D0 }
  - { offset: 0x6887C, size: 0x8, addend: 0x0, symName: __ZN4absl12lts_2024011613time_internallsERNSt3__113basic_ostreamIcNS2_11char_traitsIcEEEENS1_4cctz6detail10civil_timeINS1_8year_tagEEE, symObjAddr: 0x1A2C, symBinAddr: 0xFBE4, symSize: 0x9C }
  - { offset: 0x68BD9, size: 0x8, addend: 0x0, symName: __ZN4absl12lts_2024011613time_internallsERNSt3__113basic_ostreamIcNS2_11char_traitsIcEEEENS1_4cctz6detail10civil_timeINS1_9month_tagEEE, symObjAddr: 0x1AC8, symBinAddr: 0xFC80, symSize: 0x9C }
  - { offset: 0x68F36, size: 0x8, addend: 0x0, symName: __ZN4absl12lts_2024011613time_internallsERNSt3__113basic_ostreamIcNS2_11char_traitsIcEEEENS1_4cctz6detail10civil_timeINS1_7day_tagEEE, symObjAddr: 0x1B64, symBinAddr: 0xFD1C, symSize: 0x9C }
  - { offset: 0x69293, size: 0x8, addend: 0x0, symName: __ZN4absl12lts_2024011613time_internallsERNSt3__113basic_ostreamIcNS2_11char_traitsIcEEEENS1_4cctz6detail10civil_timeINS1_8hour_tagEEE, symObjAddr: 0x1C00, symBinAddr: 0xFDB8, symSize: 0x9C }
  - { offset: 0x695F0, size: 0x8, addend: 0x0, symName: __ZN4absl12lts_2024011613time_internallsERNSt3__113basic_ostreamIcNS2_11char_traitsIcEEEENS1_4cctz6detail10civil_timeINS1_10minute_tagEEE, symObjAddr: 0x1C9C, symBinAddr: 0xFE54, symSize: 0x9C }
  - { offset: 0x6994D, size: 0x8, addend: 0x0, symName: __ZN4absl12lts_2024011613time_internallsERNSt3__113basic_ostreamIcNS2_11char_traitsIcEEEENS1_4cctz6detail10civil_timeINS1_10second_tagEEE, symObjAddr: 0x1D38, symBinAddr: 0xFEF0, symSize: 0x98 }
  - { offset: 0x69C60, size: 0x8, addend: 0x0, symName: __ZN4absl12lts_2024011613time_internal13AbslParseFlagENS0_11string_viewEPNS1_4cctz6detail10civil_timeINS1_10second_tagEEEPNSt3__112basic_stringIcNS9_11char_traitsIcEENS9_9allocatorIcEEEE, symObjAddr: 0x1DD0, symBinAddr: 0xFF88, symSize: 0x4 }
  - { offset: 0x69CA3, size: 0x8, addend: 0x0, symName: __ZN4absl12lts_2024011613time_internal13AbslParseFlagENS0_11string_viewEPNS1_4cctz6detail10civil_timeINS1_10second_tagEEEPNSt3__112basic_stringIcNS9_11char_traitsIcEENS9_9allocatorIcEEEE, symObjAddr: 0x1DD0, symBinAddr: 0xFF88, symSize: 0x4 }
  - { offset: 0x69CC3, size: 0x8, addend: 0x0, symName: __ZN4absl12lts_2024011613time_internal13AbslParseFlagENS0_11string_viewEPNS1_4cctz6detail10civil_timeINS1_10minute_tagEEEPNSt3__112basic_stringIcNS9_11char_traitsIcEENS9_9allocatorIcEEEE, symObjAddr: 0x1DD4, symBinAddr: 0xFF8C, symSize: 0x4 }
  - { offset: 0x69D06, size: 0x8, addend: 0x0, symName: __ZN4absl12lts_2024011613time_internal13AbslParseFlagENS0_11string_viewEPNS1_4cctz6detail10civil_timeINS1_10minute_tagEEEPNSt3__112basic_stringIcNS9_11char_traitsIcEENS9_9allocatorIcEEEE, symObjAddr: 0x1DD4, symBinAddr: 0xFF8C, symSize: 0x4 }
  - { offset: 0x69D26, size: 0x8, addend: 0x0, symName: __ZN4absl12lts_2024011613time_internal13AbslParseFlagENS0_11string_viewEPNS1_4cctz6detail10civil_timeINS1_8hour_tagEEEPNSt3__112basic_stringIcNS9_11char_traitsIcEENS9_9allocatorIcEEEE, symObjAddr: 0x1DD8, symBinAddr: 0xFF90, symSize: 0x4 }
  - { offset: 0x69D69, size: 0x8, addend: 0x0, symName: __ZN4absl12lts_2024011613time_internal13AbslParseFlagENS0_11string_viewEPNS1_4cctz6detail10civil_timeINS1_8hour_tagEEEPNSt3__112basic_stringIcNS9_11char_traitsIcEENS9_9allocatorIcEEEE, symObjAddr: 0x1DD8, symBinAddr: 0xFF90, symSize: 0x4 }
  - { offset: 0x69D89, size: 0x8, addend: 0x0, symName: __ZN4absl12lts_2024011613time_internal13AbslParseFlagENS0_11string_viewEPNS1_4cctz6detail10civil_timeINS1_7day_tagEEEPNSt3__112basic_stringIcNS9_11char_traitsIcEENS9_9allocatorIcEEEE, symObjAddr: 0x1DDC, symBinAddr: 0xFF94, symSize: 0x4 }
  - { offset: 0x69DCC, size: 0x8, addend: 0x0, symName: __ZN4absl12lts_2024011613time_internal13AbslParseFlagENS0_11string_viewEPNS1_4cctz6detail10civil_timeINS1_7day_tagEEEPNSt3__112basic_stringIcNS9_11char_traitsIcEENS9_9allocatorIcEEEE, symObjAddr: 0x1DDC, symBinAddr: 0xFF94, symSize: 0x4 }
  - { offset: 0x69DEC, size: 0x8, addend: 0x0, symName: __ZN4absl12lts_2024011613time_internal13AbslParseFlagENS0_11string_viewEPNS1_4cctz6detail10civil_timeINS1_9month_tagEEEPNSt3__112basic_stringIcNS9_11char_traitsIcEENS9_9allocatorIcEEEE, symObjAddr: 0x1DE0, symBinAddr: 0xFF98, symSize: 0x4 }
  - { offset: 0x69E2F, size: 0x8, addend: 0x0, symName: __ZN4absl12lts_2024011613time_internal13AbslParseFlagENS0_11string_viewEPNS1_4cctz6detail10civil_timeINS1_9month_tagEEEPNSt3__112basic_stringIcNS9_11char_traitsIcEENS9_9allocatorIcEEEE, symObjAddr: 0x1DE0, symBinAddr: 0xFF98, symSize: 0x4 }
  - { offset: 0x69E4F, size: 0x8, addend: 0x0, symName: __ZN4absl12lts_2024011613time_internal13AbslParseFlagENS0_11string_viewEPNS1_4cctz6detail10civil_timeINS1_8year_tagEEEPNSt3__112basic_stringIcNS9_11char_traitsIcEENS9_9allocatorIcEEEE, symObjAddr: 0x1DE4, symBinAddr: 0xFF9C, symSize: 0x4 }
  - { offset: 0x69E92, size: 0x8, addend: 0x0, symName: __ZN4absl12lts_2024011613time_internal13AbslParseFlagENS0_11string_viewEPNS1_4cctz6detail10civil_timeINS1_8year_tagEEEPNSt3__112basic_stringIcNS9_11char_traitsIcEENS9_9allocatorIcEEEE, symObjAddr: 0x1DE4, symBinAddr: 0xFF9C, symSize: 0x4 }
  - { offset: 0x69EB2, size: 0x8, addend: 0x0, symName: __ZN4absl12lts_2024011613time_internal15AbslUnparseFlagENS1_4cctz6detail10civil_timeINS1_10second_tagEEE, symObjAddr: 0x1DE8, symBinAddr: 0xFFA0, symSize: 0x18 }
  - { offset: 0x69F17, size: 0x8, addend: 0x0, symName: __ZN4absl12lts_2024011613time_internal15AbslUnparseFlagENS1_4cctz6detail10civil_timeINS1_10minute_tagEEE, symObjAddr: 0x1E00, symBinAddr: 0xFFB8, symSize: 0x18 }
  - { offset: 0x69FC5, size: 0x8, addend: 0x0, symName: __ZN4absl12lts_2024011613time_internal15AbslUnparseFlagENS1_4cctz6detail10civil_timeINS1_8hour_tagEEE, symObjAddr: 0x1E18, symBinAddr: 0xFFD0, symSize: 0x18 }
  - { offset: 0x6A073, size: 0x8, addend: 0x0, symName: __ZN4absl12lts_2024011613time_internal15AbslUnparseFlagENS1_4cctz6detail10civil_timeINS1_7day_tagEEE, symObjAddr: 0x1E30, symBinAddr: 0xFFE8, symSize: 0x18 }
  - { offset: 0x6A121, size: 0x8, addend: 0x0, symName: __ZN4absl12lts_2024011613time_internal15AbslUnparseFlagENS1_4cctz6detail10civil_timeINS1_9month_tagEEE, symObjAddr: 0x1E48, symBinAddr: 0x10000, symSize: 0x18 }
  - { offset: 0x6A1CF, size: 0x8, addend: 0x0, symName: __ZN4absl12lts_2024011613time_internal15AbslUnparseFlagENS1_4cctz6detail10civil_timeINS1_8year_tagEEE, symObjAddr: 0x1E60, symBinAddr: 0x10018, symSize: 0x18 }
  - { offset: 0x6AC25, size: 0x8, addend: 0x0, symName: __ZN4absl12lts_2024011615FormatCivilTimeENS0_13time_internal4cctz6detail10civil_timeINS1_10second_tagEEE, symObjAddr: 0x0, symBinAddr: 0xE1B8, symSize: 0x18 }
  - { offset: 0x6AC68, size: 0x8, addend: 0x0, symName: __ZN4absl12lts_2024011612_GLOBAL__N_113FormatYearAndENS0_11string_viewENS0_13time_internal4cctz6detail10civil_timeINS3_10second_tagEEE, symObjAddr: 0x18, symBinAddr: 0xE1D0, symSize: 0x1A0 }
  - { offset: 0x6B682, size: 0x8, addend: 0x0, symName: __ZN4absl12lts_2024011612_GLOBAL__N_17ParseAsINS0_13time_internal4cctz6detail10civil_timeINS3_8year_tagEEENS6_INS3_10second_tagEEEEEbNS0_11string_viewEPT0_, symObjAddr: 0x2960, symBinAddr: 0x10740, symSize: 0x5C }
  - { offset: 0x6B960, size: 0x8, addend: 0x0, symName: __ZN4absl12lts_2024011612_GLOBAL__N_17ParseAsINS0_13time_internal4cctz6detail10civil_timeINS3_8year_tagEEENS6_INS3_10minute_tagEEEEEbNS0_11string_viewEPT0_, symObjAddr: 0x29BC, symBinAddr: 0x1079C, symSize: 0x5C }
  - { offset: 0x6BC3E, size: 0x8, addend: 0x0, symName: __ZN4absl12lts_2024011612_GLOBAL__N_17ParseAsINS0_13time_internal4cctz6detail10civil_timeINS3_8year_tagEEENS6_INS3_8hour_tagEEEEEbNS0_11string_viewEPT0_, symObjAddr: 0x2A18, symBinAddr: 0x107F8, symSize: 0x60 }
  - { offset: 0x6BF47, size: 0x8, addend: 0x0, symName: __ZN4absl12lts_2024011612_GLOBAL__N_17ParseAsINS0_13time_internal4cctz6detail10civil_timeINS3_8year_tagEEENS6_INS3_7day_tagEEEEEbNS0_11string_viewEPT0_, symObjAddr: 0x2A78, symBinAddr: 0x10858, symSize: 0x5C }
  - { offset: 0x6C225, size: 0x8, addend: 0x0, symName: __ZN4absl12lts_2024011612_GLOBAL__N_17ParseAsINS0_13time_internal4cctz6detail10civil_timeINS3_8year_tagEEENS6_INS3_9month_tagEEEEEbNS0_11string_viewEPT0_, symObjAddr: 0x2AD4, symBinAddr: 0x108B4, symSize: 0x60 }
  - { offset: 0x6C52E, size: 0x8, addend: 0x0, symName: __ZN4absl12lts_2024011612_GLOBAL__N_17ParseAsINS0_13time_internal4cctz6detail10civil_timeINS3_8year_tagEEES8_EEbNS0_11string_viewEPT0_, symObjAddr: 0x2B34, symBinAddr: 0x10914, symSize: 0x50 }
  - { offset: 0x6C889, size: 0x8, addend: 0x0, symName: __ZN4absl12lts_2024011615FormatCivilTimeENS0_13time_internal4cctz6detail10civil_timeINS1_10minute_tagEEE, symObjAddr: 0x1B8, symBinAddr: 0xE370, symSize: 0x18 }
  - { offset: 0x6C90E, size: 0x8, addend: 0x0, symName: __ZN4absl12lts_2024011615FormatCivilTimeENS0_13time_internal4cctz6detail10civil_timeINS1_8hour_tagEEE, symObjAddr: 0x1D0, symBinAddr: 0xE388, symSize: 0x18 }
  - { offset: 0x6C993, size: 0x8, addend: 0x0, symName: __ZN4absl12lts_2024011615FormatCivilTimeENS0_13time_internal4cctz6detail10civil_timeINS1_7day_tagEEE, symObjAddr: 0x1E8, symBinAddr: 0xE3A0, symSize: 0x18 }
  - { offset: 0x6CA18, size: 0x8, addend: 0x0, symName: __ZN4absl12lts_2024011615FormatCivilTimeENS0_13time_internal4cctz6detail10civil_timeINS1_9month_tagEEE, symObjAddr: 0x200, symBinAddr: 0xE3B8, symSize: 0x18 }
  - { offset: 0x6CA9D, size: 0x8, addend: 0x0, symName: __ZN4absl12lts_2024011615FormatCivilTimeENS0_13time_internal4cctz6detail10civil_timeINS1_8year_tagEEE, symObjAddr: 0x218, symBinAddr: 0xE3D0, symSize: 0x18 }
  - { offset: 0x6CB6A, size: 0x8, addend: 0x0, symName: __ZN4absl12lts_2024011614ParseCivilTimeENS0_11string_viewEPNS0_13time_internal4cctz6detail10civil_timeINS2_10second_tagEEE, symObjAddr: 0x230, symBinAddr: 0xE3E8, symSize: 0x2BC }
  - { offset: 0x6D85A, size: 0x8, addend: 0x0, symName: __ZN4absl12lts_2024011614ParseCivilTimeENS0_11string_viewEPNS0_13time_internal4cctz6detail10civil_timeINS2_10minute_tagEEE, symObjAddr: 0x4EC, symBinAddr: 0xE6A4, symSize: 0x2B8 }
  - { offset: 0x6E520, size: 0x8, addend: 0x0, symName: __ZN4absl12lts_2024011614ParseCivilTimeENS0_11string_viewEPNS0_13time_internal4cctz6detail10civil_timeINS2_8hour_tagEEE, symObjAddr: 0x7A4, symBinAddr: 0xE95C, symSize: 0x2BC }
  - { offset: 0x6F213, size: 0x8, addend: 0x0, symName: __ZN4absl12lts_2024011614ParseCivilTimeENS0_11string_viewEPNS0_13time_internal4cctz6detail10civil_timeINS2_7day_tagEEE, symObjAddr: 0xA60, symBinAddr: 0xEC18, symSize: 0x2BC }
  - { offset: 0x6FF06, size: 0x8, addend: 0x0, symName: __ZN4absl12lts_2024011614ParseCivilTimeENS0_11string_viewEPNS0_13time_internal4cctz6detail10civil_timeINS2_9month_tagEEE, symObjAddr: 0xD1C, symBinAddr: 0xEED4, symSize: 0x2C0 }
  - { offset: 0x70BF9, size: 0x8, addend: 0x0, symName: __ZN4absl12lts_2024011614ParseCivilTimeENS0_11string_viewEPNS0_13time_internal4cctz6detail10civil_timeINS2_8year_tagEEE, symObjAddr: 0xFDC, symBinAddr: 0xF194, symSize: 0x2B8 }
  - { offset: 0x718BF, size: 0x8, addend: 0x0, symName: __ZN4absl12lts_2024011621ParseLenientCivilTimeENS0_11string_viewEPNS0_13time_internal4cctz6detail10civil_timeINS2_10second_tagEEE, symObjAddr: 0x1294, symBinAddr: 0xF44C, symSize: 0x150 }
  - { offset: 0x71E66, size: 0x8, addend: 0x0, symName: __ZN4absl12lts_2024011621ParseLenientCivilTimeENS0_11string_viewEPNS0_13time_internal4cctz6detail10civil_timeINS2_10minute_tagEEE, symObjAddr: 0x13E4, symBinAddr: 0xF59C, symSize: 0x150 }
  - { offset: 0x7240D, size: 0x8, addend: 0x0, symName: __ZN4absl12lts_2024011621ParseLenientCivilTimeENS0_11string_viewEPNS0_13time_internal4cctz6detail10civil_timeINS2_8hour_tagEEE, symObjAddr: 0x1534, symBinAddr: 0xF6EC, symSize: 0x154 }
  - { offset: 0x729B4, size: 0x8, addend: 0x0, symName: __ZN4absl12lts_2024011621ParseLenientCivilTimeENS0_11string_viewEPNS0_13time_internal4cctz6detail10civil_timeINS2_7day_tagEEE, symObjAddr: 0x1688, symBinAddr: 0xF840, symSize: 0x150 }
  - { offset: 0x72F5B, size: 0x8, addend: 0x0, symName: __ZN4absl12lts_2024011621ParseLenientCivilTimeENS0_11string_viewEPNS0_13time_internal4cctz6detail10civil_timeINS2_9month_tagEEE, symObjAddr: 0x17D8, symBinAddr: 0xF990, symSize: 0x154 }
  - { offset: 0x73502, size: 0x8, addend: 0x0, symName: __ZN4absl12lts_2024011621ParseLenientCivilTimeENS0_11string_viewEPNS0_13time_internal4cctz6detail10civil_timeINS2_8year_tagEEE, symObjAddr: 0x192C, symBinAddr: 0xFAE4, symSize: 0x100 }
  - { offset: 0x7427C, size: 0x8, addend: 0x0, symName: __ZN4absl12lts_202401168AlphaNumC2Ex, symObjAddr: 0x24B8, symBinAddr: 0x10660, symSize: 0x44 }
  - { offset: 0x7470A, size: 0x8, addend: 0x0, symName: __ZNSt3__112basic_stringIcNS_11char_traitsIcEENS_9allocatorIcEEEC2B8ne200100EPKcm, symObjAddr: 0x28C4, symBinAddr: 0x106A4, symSize: 0x9C }
  - { offset: 0x7492A, size: 0x8, addend: 0x0, symName: __ZN4absl12lts_2024011612_GLOBAL__N_17ParseAsINS0_13time_internal4cctz6detail10civil_timeINS3_8year_tagEEENS6_INS3_10second_tagEEEEEbNS0_11string_viewEPT0_, symObjAddr: 0x2960, symBinAddr: 0x10740, symSize: 0x5C }
  - { offset: 0x7B13B, size: 0x8, addend: 0x0, symName: __ZNSt3__1lsB8ne200100INS_11char_traitsIcEEEERNS_13basic_ostreamIcT_EES6_RKNS_8__iom_t4IcEE, symObjAddr: 0x428, symBinAddr: 0x10D8C, symSize: 0xA0 }
  - { offset: 0x7CFB7, size: 0x8, addend: 0x0, symName: __ZN4absl12lts_2024011613time_internal4cctz6detaillsERNSt3__113basic_ostreamIcNS4_11char_traitsIcEEEERKNS3_10civil_timeINS3_8year_tagEEE, symObjAddr: 0x0, symBinAddr: 0x10964, symSize: 0x138 }
  - { offset: 0x7D47E, size: 0x8, addend: 0x0, symName: __ZN4absl12lts_2024011613time_internal4cctz6detaillsERNSt3__113basic_ostreamIcNS4_11char_traitsIcEEEERKNS3_10civil_timeINS3_9month_tagEEE, symObjAddr: 0x28C, symBinAddr: 0x10BF0, symSize: 0x19C }
  - { offset: 0x7DA7D, size: 0x8, addend: 0x0, symName: __ZN4absl12lts_2024011613time_internal4cctz6detaillsERNSt3__113basic_ostreamIcNS4_11char_traitsIcEEEERKNS3_10civil_timeINS3_7day_tagEEE, symObjAddr: 0x4C8, symBinAddr: 0x10E2C, symSize: 0x1A0 }
  - { offset: 0x7E07C, size: 0x8, addend: 0x0, symName: __ZN4absl12lts_2024011613time_internal4cctz6detaillsERNSt3__113basic_ostreamIcNS4_11char_traitsIcEEEERKNS3_10civil_timeINS3_8hour_tagEEE, symObjAddr: 0x668, symBinAddr: 0x10FCC, symSize: 0x19C }
  - { offset: 0x7E67B, size: 0x8, addend: 0x0, symName: __ZN4absl12lts_2024011613time_internal4cctz6detaillsERNSt3__113basic_ostreamIcNS4_11char_traitsIcEEEERKNS3_10civil_timeINS3_10minute_tagEEE, symObjAddr: 0x804, symBinAddr: 0x11168, symSize: 0x1A0 }
  - { offset: 0x7EC7A, size: 0x8, addend: 0x0, symName: __ZN4absl12lts_2024011613time_internal4cctz6detaillsERNSt3__113basic_ostreamIcNS4_11char_traitsIcEEEERKNS3_10civil_timeINS3_10second_tagEEE, symObjAddr: 0x9A4, symBinAddr: 0x11308, symSize: 0x19C }
  - { offset: 0x7F278, size: 0x8, addend: 0x0, symName: __ZN4absl12lts_2024011613time_internal4cctz6detaillsERNSt3__113basic_ostreamIcNS4_11char_traitsIcEEEENS3_7weekdayE, symObjAddr: 0xB40, symBinAddr: 0x114A4, symSize: 0xAC }
  - { offset: 0x7F822, size: 0x8, addend: 0x0, symName: __ZNSt3__118basic_stringstreamIcNS_11char_traitsIcEENS_9allocatorIcEEEC1B8ne200100Ev, symObjAddr: 0x138, symBinAddr: 0x10A9C, symSize: 0xC0 }
  - { offset: 0x7F9D9, size: 0x8, addend: 0x0, symName: __ZNSt3__118basic_stringstreamIcNS_11char_traitsIcEENS_9allocatorIcEEED1Ev, symObjAddr: 0x1F8, symBinAddr: 0x10B5C, symSize: 0x94 }
  - { offset: 0x801AE, size: 0x8, addend: 0x0, symName: __ZThn16_NSt3__118basic_stringstreamIcNS_11char_traitsIcEENS_9allocatorIcEEED1Ev, symObjAddr: 0xBEC, symBinAddr: 0x11550, symSize: 0x98 }
  - { offset: 0x80354, size: 0x8, addend: 0x0, symName: __ZTv0_n24_NSt3__118basic_stringstreamIcNS_11char_traitsIcEENS_9allocatorIcEEED1Ev, symObjAddr: 0xC84, symBinAddr: 0x115E8, symSize: 0x94 }
  - { offset: 0x804F8, size: 0x8, addend: 0x0, symName: __ZNSt3__118basic_stringstreamIcNS_11char_traitsIcEENS_9allocatorIcEEED0Ev, symObjAddr: 0xD18, symBinAddr: 0x1167C, symSize: 0x94 }
  - { offset: 0x806C2, size: 0x8, addend: 0x0, symName: __ZThn16_NSt3__118basic_stringstreamIcNS_11char_traitsIcEENS_9allocatorIcEEED0Ev, symObjAddr: 0xDAC, symBinAddr: 0x11710, symSize: 0xA0 }
  - { offset: 0x80886, size: 0x8, addend: 0x0, symName: __ZTv0_n24_NSt3__118basic_stringstreamIcNS_11char_traitsIcEENS_9allocatorIcEEED0Ev, symObjAddr: 0xE4C, symBinAddr: 0x117B0, symSize: 0x9C }
  - { offset: 0x833A3, size: 0x8, addend: 0x0, symName: __ZN4absl12lts_202401163NowEv, symObjAddr: 0x0, symBinAddr: 0x1184C, symSize: 0xAC }
  - { offset: 0x83575, size: 0x8, addend: 0x0, symName: __ZN4absl12lts_202401163NowEv, symObjAddr: 0x0, symBinAddr: 0x1184C, symSize: 0xAC }
  - { offset: 0x8369A, size: 0x8, addend: 0x0, symName: __ZN4absl12lts_2024011619GetCurrentTimeNanosEv, symObjAddr: 0xAC, symBinAddr: 0x118F8, symSize: 0x34 }
  - { offset: 0x8468B, size: 0x8, addend: 0x0, symName: _AbslInternalSleepFor_lts_20240116, symObjAddr: 0xE0, symBinAddr: 0x1192C, symSize: 0xB4 }
  - { offset: 0x866A0, size: 0x8, addend: 0x0, symName: __ZNK4absl12lts_2024011615CommandLineFlag9IsRetiredEv, symObjAddr: 0x0, symBinAddr: 0x119E0, symSize: 0x8 }
  - { offset: 0x893B3, size: 0x8, addend: 0x0, symName: __ZNK4absl12lts_2024011615CommandLineFlag9IsRetiredEv, symObjAddr: 0x0, symBinAddr: 0x119E0, symSize: 0x8 }
  - { offset: 0x893D8, size: 0x8, addend: 0x0, symName: __ZN4absl12lts_2024011615CommandLineFlag9ParseFromENS0_11string_viewEPNSt3__112basic_stringIcNS3_11char_traitsIcEENS3_9allocatorIcEEEE, symObjAddr: 0x8, symBinAddr: 0x119E8, symSize: 0x18 }
  - { offset: 0x8B31A, size: 0x8, addend: 0x0, symName: __ZN4absl12lts_2024011614flags_internal18FlagStateInterfaceD2Ev, symObjAddr: 0x0, symBinAddr: 0x11A00, symSize: 0x4 }
  - { offset: 0x8B3B1, size: 0x8, addend: 0x0, symName: __ZN4absl12lts_2024011614flags_internal18FlagStateInterfaceD2Ev, symObjAddr: 0x0, symBinAddr: 0x11A00, symSize: 0x4 }
  - { offset: 0x8B3DC, size: 0x8, addend: 0x0, symName: __ZN4absl12lts_2024011614flags_internal18FlagStateInterfaceD1Ev, symObjAddr: 0x4, symBinAddr: 0x11A04, symSize: 0x4 }
  - { offset: 0x8B405, size: 0x8, addend: 0x0, symName: __ZN4absl12lts_2024011614flags_internal18FlagStateInterfaceD0Ev, symObjAddr: 0x8, symBinAddr: 0x11A08, symSize: 0x4 }
  - { offset: 0x8B472, size: 0x8, addend: 0x0, symName: __ZN4absl12lts_2024011612log_internal14LogEveryNState9ShouldLogEi, symObjAddr: 0x0, symBinAddr: 0x11A0C, symSize: 0x30 }
  - { offset: 0x8CD2B, size: 0x8, addend: 0x0, symName: __ZN4absl12lts_2024011612log_internal14LogEveryNState9ShouldLogEi, symObjAddr: 0x0, symBinAddr: 0x11A0C, symSize: 0x30 }
  - { offset: 0x8CE21, size: 0x8, addend: 0x0, symName: __ZN4absl12lts_2024011612log_internal14LogFirstNState9ShouldLogEi, symObjAddr: 0x30, symBinAddr: 0x11A3C, symSize: 0x24 }
  - { offset: 0x8CE68, size: 0x8, addend: 0x0, symName: __ZN4absl12lts_2024011612log_internal14LogFirstNState9ShouldLogEi, symObjAddr: 0x30, symBinAddr: 0x11A3C, symSize: 0x24 }
  - { offset: 0x8CE89, size: 0x8, addend: 0x0, symName: __ZN4absl12lts_2024011612log_internal14LogFirstNState9ShouldLogEi, symObjAddr: 0x30, symBinAddr: 0x11A3C, symSize: 0x24 }
  - { offset: 0x8CF01, size: 0x8, addend: 0x0, symName: __ZN4absl12lts_2024011612log_internal17LogEveryPow2State9ShouldLogEv, symObjAddr: 0x54, symBinAddr: 0x11A60, symSize: 0x18 }
  - { offset: 0x8CF3B, size: 0x8, addend: 0x0, symName: __ZN4absl12lts_2024011612log_internal17LogEveryPow2State9ShouldLogEv, symObjAddr: 0x54, symBinAddr: 0x11A60, symSize: 0x18 }
  - { offset: 0x8CF5F, size: 0x8, addend: 0x0, symName: __ZN4absl12lts_2024011612log_internal17LogEveryPow2State9ShouldLogEv, symObjAddr: 0x54, symBinAddr: 0x11A60, symSize: 0x18 }
  - { offset: 0x8CF80, size: 0x8, addend: 0x0, symName: __ZN4absl12lts_2024011612log_internal17LogEveryPow2State9ShouldLogEv, symObjAddr: 0x54, symBinAddr: 0x11A60, symSize: 0x18 }
  - { offset: 0x8D0EC, size: 0x8, addend: 0x0, symName: __ZN4absl12lts_2024011612log_internal17LogEveryNSecState9ShouldLogEd, symObjAddr: 0x6C, symBinAddr: 0x11A78, symSize: 0xA4 }
  - { offset: 0x8E360, size: 0x8, addend: 0x0, symName: __ZN4absl12lts_202401164Cord9InlineRep10kMaxInlineE, symObjAddr: 0xEA18, symBinAddr: 0x6A4E0, symSize: 0x0 }
  - { offset: 0x91282, size: 0x8, addend: 0x0, symName: __ZN4absl12lts_2024011613cord_internal25InitializeCordRepExternalENS0_11string_viewEPNS1_15CordRepExternalE, symObjAddr: 0x33C, symBinAddr: 0x11E58, symSize: 0x28 }
  - { offset: 0x912CA, size: 0x8, addend: 0x0, symName: __ZN4absl12lts_20240116L10VerifyTreeEPNS0_13cord_internal7CordRepE, symObjAddr: 0x364, symBinAddr: 0x11E80, symSize: 0x86C }
  - { offset: 0x9157C, size: 0x8, addend: 0x0, symName: __ZN4absl12lts_2024011613cord_internal8EdgeDataEPKNS1_7CordRepE, symObjAddr: 0x8770, symBinAddr: 0x19340, symSize: 0x8C }
  - { offset: 0x916F3, size: 0x8, addend: 0x0, symName: __ZN4absl12lts_2024011613cord_internal21CordRepBtreeNavigator4InitILNS1_12CordRepBtree8EdgeTypeE0EEEPNS1_7CordRepEPS4_, symObjAddr: 0x87FC, symBinAddr: 0x193CC, symSize: 0xF4 }
  - { offset: 0x959F2, size: 0x8, addend: 0x0, symName: __ZN4absl12lts_20240116L17CordRepFromStringEONSt3__112basic_stringIcNS1_11char_traitsIcEENS1_9allocatorIcEEEE, symObjAddr: 0x68, symBinAddr: 0x11B84, symSize: 0x178 }
  - { offset: 0x9604F, size: 0x8, addend: 0x0, symName: __ZN4absl12lts_20240116L7NewTreeEPKcmm, symObjAddr: 0x1418, symBinAddr: 0x12F34, symSize: 0xF8 }
  - { offset: 0x96422, size: 0x8, addend: 0x0, symName: __ZN4absl12lts_202401164CordC1ENS0_11string_viewENS0_13cord_internal18CordzUpdateTracker16MethodIdentifierE, symObjAddr: 0x1510, symBinAddr: 0x1302C, symSize: 0x4 }
  - { offset: 0x9642D, size: 0x8, addend: 0x0, symName: __ZN4absl12lts_20240116L10VerifyTreeEPNS0_13cord_internal7CordRepE, symObjAddr: 0x364, symBinAddr: 0x11E80, symSize: 0x86C }
  - { offset: 0x98E4B, size: 0x8, addend: 0x0, symName: __ZN4absl12lts_20240116L11ReportErrorEPNS0_13cord_internal7CordRepES3_, symObjAddr: 0x677C, symBinAddr: 0x1824C, symSize: 0x7DC }
  - { offset: 0x9ADA2, size: 0x8, addend: 0x0, symName: __ZN4absl12lts_20240116L10ForceBtreeEPNS0_13cord_internal7CordRepE, symObjAddr: 0xE6C, symBinAddr: 0x12988, symSize: 0xF0 }
  - { offset: 0x9B1C2, size: 0x8, addend: 0x0, symName: __ZN4absl12lts_202401164Cord9InlineRep20PrependTreeToInlinedEPNS0_13cord_internal7CordRepENS3_18CordzUpdateTracker16MethodIdentifierE, symObjAddr: 0xF5C, symBinAddr: 0x12A78, symSize: 0x110 }
  - { offset: 0x9B430, size: 0x8, addend: 0x0, symName: __ZN4absl12lts_2024011614GenericCompareIbNS0_11string_viewEEET_RKNS0_4CordERKT0_m, symObjAddr: 0x4524, symBinAddr: 0x16040, symSize: 0xB8 }
  - { offset: 0x9B683, size: 0x8, addend: 0x0, symName: __ZNK4absl12lts_202401164Cord10EqualsImplERKS1_m, symObjAddr: 0x45DC, symBinAddr: 0x160F8, symSize: 0x4 }
  - { offset: 0x9B69F, size: 0x8, addend: 0x0, symName: __ZN4absl12lts_2024011614GenericCompareIbNS0_4CordEEET_RKS2_RKT0_m, symObjAddr: 0x45E0, symBinAddr: 0x160FC, symSize: 0xEC }
  - { offset: 0x9BA67, size: 0x8, addend: 0x0, symName: __ZNK4absl12lts_202401164Cord7CompareENS0_11string_viewE, symObjAddr: 0x46CC, symBinAddr: 0x161E8, symSize: 0x6C }
  - { offset: 0x9BAE8, size: 0x8, addend: 0x0, symName: __ZN4absl12lts_2024011614GenericCompareIiNS0_11string_viewEEET_RKNS0_4CordERKT0_m, symObjAddr: 0xA7A4, symBinAddr: 0x1B038, symSize: 0xC4 }
  - { offset: 0x9BD9E, size: 0x8, addend: 0x0, symName: __ZN4absl12lts_2024011614GenericCompareIiNS0_4CordEEET_RKS2_RKT0_m, symObjAddr: 0xA868, symBinAddr: 0x1B0FC, symSize: 0xF8 }
  - { offset: 0x9BE1F, size: 0x8, addend: 0x0, symName: __ZN4absl12lts_2024011614GenericCompareIiNS0_4CordEEET_RKS2_RKT0_m, symObjAddr: 0xA868, symBinAddr: 0x1B0FC, symSize: 0xF8 }
  - { offset: 0x9C24A, size: 0x8, addend: 0x0, symName: '__ZN4absl12lts_2024011613cord_internal19CordRepExternalImplIZNS0_4Cord15FlattenSlowPathEvE3$_0E7ReleaseEPNS1_15CordRepExternalE', symObjAddr: 0xA960, symBinAddr: 0x1B1F4, symSize: 0x68 }
  - { offset: 0x9C267, size: 0x8, addend: 0x0, symName: __ZN4absl12lts_2024011616CopyCordToStringERKNS0_4CordEPNSt3__112basic_stringIcNS4_11char_traitsIcEENS4_9allocatorIcEEEE, symObjAddr: 0x4A64, symBinAddr: 0x16580, symSize: 0x60 }
  - { offset: 0x9C589, size: 0x8, addend: 0x0, symName: __ZN4absl12lts_2024011612_GLOBAL__N_117IsSubcordInCordAtENS0_4Cord12CharIteratorES3_S3_, symObjAddr: 0x5E5C, symBinAddr: 0x1793C, symSize: 0x1C0 }
  - { offset: 0x9C9A7, size: 0x8, addend: 0x0, symName: __ZNK4absl12lts_202401164Cord8ContainsENS0_11string_viewE, symObjAddr: 0x601C, symBinAddr: 0x17AFC, symSize: 0x64 }
  - { offset: 0x9C9B1, size: 0x8, addend: 0x0, symName: __ZN4absl12lts_2024011612_GLOBAL__N_113CompareChunksEPNS0_11string_viewES3_Pm, symObjAddr: 0xA4E4, symBinAddr: 0x1AD78, symSize: 0x98 }
  - { offset: 0x9CB23, size: 0x8, addend: 0x0, symName: __ZNK4absl12lts_202401164Cord15CompareSlowPathERKS1_mm, symObjAddr: 0xA57C, symBinAddr: 0x1AE10, symSize: 0x228 }
  - { offset: 0x9CC8D, size: 0x8, addend: 0x0, symName: __ZN4absl12lts_20240116lsERNSt3__113basic_ostreamIcNS1_11char_traitsIcEEEERKNS0_4CordE, symObjAddr: 0x6448, symBinAddr: 0x17F28, symSize: 0xE4 }
  - { offset: 0xA6897, size: 0x8, addend: 0x0, symName: __ZNSt3__118__for_each_segmentB8ne200100INS_16__deque_iteratorIN4absl12lts_2024011612crc_internal12CrcCordState9PrefixCrcEPKS6_RS7_PKS8_lLl256EEENS_11__copy_impl12_CopySegmentISC_NS1_IS6_PS6_RS6_PSF_lLl256EEEEEEEvT_SK_T0_, symObjAddr: 0x9090, symBinAddr: 0x19C60, symSize: 0xC0 }
  - { offset: 0xA6C55, size: 0x8, addend: 0x0, symName: __ZNSt3__124__copy_move_unwrap_itersB8ne200100INS_11__copy_implEPKN4absl12lts_2024011612crc_internal12CrcCordState9PrefixCrcES8_NS_16__deque_iteratorIS6_PS6_RS6_PSA_lLl256EEELi0EEENS_4pairIT0_T2_EESF_T1_SG_, symObjAddr: 0x9150, symBinAddr: 0x19D20, symSize: 0xC8 }
  - { offset: 0xA7493, size: 0x8, addend: 0x0, symName: __ZNSt3__15dequeIN4absl12lts_2024011612crc_internal12CrcCordState9PrefixCrcENS_9allocatorIS5_EEE25__maybe_remove_back_spareB8ne200100Eb, symObjAddr: 0x9BB0, symBinAddr: 0x1A4E8, symSize: 0x6C }
  - { offset: 0xA9485, size: 0x8, addend: 0x0, symName: __ZN4absl12lts_202401164Cord15FlattenSlowPathEv, symObjAddr: 0x60FC, symBinAddr: 0x17BDC, symSize: 0x1F8 }
  - { offset: 0xA9E76, size: 0x8, addend: 0x0, symName: __ZN4absl12lts_202401164CordC2INSt3__112basic_stringIcNS3_11char_traitsIcEENS3_9allocatorIcEEEELi0EEEOT_, symObjAddr: 0x0, symBinAddr: 0x11B1C, symSize: 0x68 }
  - { offset: 0xAA02D, size: 0x8, addend: 0x0, symName: __ZN4absl12lts_20240116L17CordRepFromStringEONSt3__112basic_stringIcNS1_11char_traitsIcEENS1_9allocatorIcEEEE, symObjAddr: 0x68, symBinAddr: 0x11B84, symSize: 0x178 }
  - { offset: 0xAA047, size: 0x8, addend: 0x0, symName: __ZN4absl12lts_2024011613cord_internal10InlineData15set_inline_dataEPKcm, symObjAddr: 0x80B0, symBinAddr: 0x18C80, symSize: 0xA4 }
  - { offset: 0xAA145, size: 0x8, addend: 0x0, symName: __ZN4absl12lts_2024011613cord_internal16CordzUpdateScopeD2Ev, symObjAddr: 0x8154, symBinAddr: 0x18D24, symSize: 0x34 }
  - { offset: 0xAA150, size: 0x8, addend: 0x0, symName: __ZN4absl12lts_202401164CordC2INSt3__112basic_stringIcNS3_11char_traitsIcEENS3_9allocatorIcEEEELi0EEEOT_.cold.1, symObjAddr: 0xA9C8, symBinAddr: 0x6077C, symSize: 0x24 }
  - { offset: 0xAA614, size: 0x8, addend: 0x0, symName: __ZN4absl12lts_20240116L17CordRepFromStringEONSt3__112basic_stringIcNS1_11char_traitsIcEENS1_9allocatorIcEEEE.cold.1, symObjAddr: 0xA9EC, symBinAddr: 0x607A0, symSize: 0x28 }
  - { offset: 0xAA63D, size: 0x8, addend: 0x0, symName: __ZN4absl12lts_202401164CordC1INSt3__112basic_stringIcNS3_11char_traitsIcEENS3_9allocatorIcEEEELi0EEEOT_, symObjAddr: 0x1E0, symBinAddr: 0x11CFC, symSize: 0x4 }
  - { offset: 0xAA675, size: 0x8, addend: 0x0, symName: __ZN4absl12lts_202401164CordC1INSt3__112basic_stringIcNS3_11char_traitsIcEENS3_9allocatorIcEEEELi0EEEOT_, symObjAddr: 0x1E0, symBinAddr: 0x11CFC, symSize: 0x4 }
  - { offset: 0xAA6C7, size: 0x8, addend: 0x0, symName: __ZN4absl12lts_202401164Cord6AppendINSt3__112basic_stringIcNS3_11char_traitsIcEENS3_9allocatorIcEEEELi0EEEvOT_, symObjAddr: 0x1E4, symBinAddr: 0x11D00, symSize: 0x68 }
  - { offset: 0xAA813, size: 0x8, addend: 0x0, symName: __ZN4absl12lts_202401164Cord9InlineRep10AppendTreeEPNS0_13cord_internal7CordRepENS3_18CordzUpdateTracker16MethodIdentifierE, symObjAddr: 0x24C, symBinAddr: 0x11D68, symSize: 0x44 }
  - { offset: 0xAA8E5, size: 0x8, addend: 0x0, symName: __ZN4absl12lts_202401164Cord7PrependINSt3__112basic_stringIcNS3_11char_traitsIcEENS3_9allocatorIcEEEELi0EEEvOT_, symObjAddr: 0x290, symBinAddr: 0x11DAC, symSize: 0x68 }
  - { offset: 0xAA8F0, size: 0x8, addend: 0x0, symName: __ZN4absl12lts_202401164Cord9InlineRep11AppendArrayENS0_11string_viewENS0_13cord_internal18CordzUpdateTracker16MethodIdentifierE, symObjAddr: 0x1A48, symBinAddr: 0x13564, symSize: 0x558 }
  - { offset: 0xAB6DA, size: 0x8, addend: 0x0, symName: __ZN4absl12lts_202401164Cord9InlineRep19AppendTreeToInlinedEPNS0_13cord_internal7CordRepENS3_18CordzUpdateTracker16MethodIdentifierE, symObjAddr: 0xBD0, symBinAddr: 0x126EC, symSize: 0x110 }
  - { offset: 0xABB7F, size: 0x8, addend: 0x0, symName: __ZN4absl12lts_202401164Cord9InlineRep16AppendTreeToTreeEPNS0_13cord_internal7CordRepENS3_18CordzUpdateTracker16MethodIdentifierE, symObjAddr: 0xCE0, symBinAddr: 0x127FC, symSize: 0x160 }
  - { offset: 0xABECE, size: 0x8, addend: 0x0, symName: __ZN4absl12lts_202401164Cord9InlineRep10AppendTreeEPNS0_13cord_internal7CordRepENS3_18CordzUpdateTracker16MethodIdentifierE.cold.3, symObjAddr: 0xAA64, symBinAddr: 0x60818, symSize: 0x28 }
  - { offset: 0xABEE6, size: 0x8, addend: 0x0, symName: __ZN4absl12lts_202401164Cord9InlineRep10AppendTreeEPNS0_13cord_internal7CordRepENS3_18CordzUpdateTracker16MethodIdentifierE.cold.2, symObjAddr: 0xAA3C, symBinAddr: 0x607F0, symSize: 0x28 }
  - { offset: 0xABEFE, size: 0x8, addend: 0x0, symName: __ZN4absl12lts_202401164Cord9InlineRep10AppendTreeEPNS0_13cord_internal7CordRepENS3_18CordzUpdateTracker16MethodIdentifierE.cold.1, symObjAddr: 0xAA14, symBinAddr: 0x607C8, symSize: 0x28 }
  - { offset: 0xABF3A, size: 0x8, addend: 0x0, symName: __ZN4absl12lts_202401164Cord7PrependINSt3__112basic_stringIcNS3_11char_traitsIcEENS3_9allocatorIcEEEELi0EEEvOT_, symObjAddr: 0x290, symBinAddr: 0x11DAC, symSize: 0x68 }
  - { offset: 0xAC086, size: 0x8, addend: 0x0, symName: __ZN4absl12lts_202401164Cord9InlineRep11PrependTreeEPNS0_13cord_internal7CordRepENS3_18CordzUpdateTracker16MethodIdentifierE, symObjAddr: 0x2F8, symBinAddr: 0x11E14, symSize: 0x44 }
  - { offset: 0xAC15A, size: 0x8, addend: 0x0, symName: __ZN4absl12lts_2024011613cord_internal25InitializeCordRepExternalENS0_11string_viewEPNS1_15CordRepExternalE, symObjAddr: 0x33C, symBinAddr: 0x11E58, symSize: 0x28 }
  - { offset: 0xAC165, size: 0x8, addend: 0x0, symName: __ZN4absl12lts_202401164Cord12PrependArrayENS0_11string_viewENS0_13cord_internal18CordzUpdateTracker16MethodIdentifierE, symObjAddr: 0x2C5C, symBinAddr: 0x14778, symSize: 0xF4 }
  - { offset: 0xAC4CE, size: 0x8, addend: 0x0, symName: __ZN4absl12lts_202401164Cord9InlineRep20PrependTreeToInlinedEPNS0_13cord_internal7CordRepENS3_18CordzUpdateTracker16MethodIdentifierE, symObjAddr: 0xF5C, symBinAddr: 0x12A78, symSize: 0x110 }
  - { offset: 0xAC973, size: 0x8, addend: 0x0, symName: __ZN4absl12lts_202401164Cord9InlineRep17PrependTreeToTreeEPNS0_13cord_internal7CordRepENS3_18CordzUpdateTracker16MethodIdentifierE, symObjAddr: 0x106C, symBinAddr: 0x12B88, symSize: 0x160 }
  - { offset: 0xACCC2, size: 0x8, addend: 0x0, symName: __ZN4absl12lts_202401164Cord9InlineRep11PrependTreeEPNS0_13cord_internal7CordRepENS3_18CordzUpdateTracker16MethodIdentifierE.cold.3, symObjAddr: 0xAADC, symBinAddr: 0x60890, symSize: 0x28 }
  - { offset: 0xACCDA, size: 0x8, addend: 0x0, symName: __ZN4absl12lts_202401164Cord9InlineRep11PrependTreeEPNS0_13cord_internal7CordRepENS3_18CordzUpdateTracker16MethodIdentifierE.cold.2, symObjAddr: 0xAAB4, symBinAddr: 0x60868, symSize: 0x28 }
  - { offset: 0xACCF2, size: 0x8, addend: 0x0, symName: __ZN4absl12lts_202401164Cord9InlineRep11PrependTreeEPNS0_13cord_internal7CordRepENS3_18CordzUpdateTracker16MethodIdentifierE.cold.1, symObjAddr: 0xAA8C, symBinAddr: 0x60840, symSize: 0x28 }
  - { offset: 0xACD0A, size: 0x8, addend: 0x0, symName: __ZN4absl12lts_2024011613cord_internal25InitializeCordRepExternalENS0_11string_viewEPNS1_15CordRepExternalE.cold.1, symObjAddr: 0xAB04, symBinAddr: 0x608B8, symSize: 0x28 }
  - { offset: 0xAD2EA, size: 0x8, addend: 0x0, symName: __ZN4absl12lts_2024011623inlined_vector_internal7StorageIPNS0_13cord_internal7CordRepELm2ENSt3__19allocatorIS5_EEE11EmplaceBackIJRKS5_EEERS5_DpOT_, symObjAddr: 0x6F58, symBinAddr: 0x18A28, symSize: 0x44 }
  - { offset: 0xAD341, size: 0x8, addend: 0x0, symName: __ZN4absl12lts_2024011623inlined_vector_internal7StorageIPNS0_13cord_internal7CordRepELm2ENSt3__19allocatorIS5_EEE11EmplaceBackIJRKS5_EEERS5_DpOT_, symObjAddr: 0x6F58, symBinAddr: 0x18A28, symSize: 0x44 }
  - { offset: 0xAD35D, size: 0x8, addend: 0x0, symName: __ZN4absl12lts_2024011623inlined_vector_internal7StorageIPNS0_13cord_internal7CordRepELm2ENSt3__19allocatorIS5_EEE11EmplaceBackIJRKS5_EEERS5_DpOT_, symObjAddr: 0x6F58, symBinAddr: 0x18A28, symSize: 0x44 }
  - { offset: 0xAD445, size: 0x8, addend: 0x0, symName: __ZN4absl12lts_2024011613InlinedVectorIPNS0_13cord_internal7CordRepELm2ENSt3__19allocatorIS4_EEE8pop_backEv, symObjAddr: 0x6730, symBinAddr: 0x18200, symSize: 0x4C }
  - { offset: 0xAD69D, size: 0x8, addend: 0x0, symName: __ZNSt3__15dequeIN4absl12lts_2024011612crc_internal12CrcCordState9PrefixCrcENS_9allocatorIS5_EEE19__add_back_capacityEv, symObjAddr: 0xA044, symBinAddr: 0x1A8D8, symSize: 0x1B0 }
  - { offset: 0xAD874, size: 0x8, addend: 0x0, symName: __ZN4absl12lts_2024011613cord_internal11CordRepFlat7NewImplILm4096EJEEEPS2_mDpT0_, symObjAddr: 0x83AC, symBinAddr: 0x18F7C, symSize: 0xA4 }
  - { offset: 0xADAE7, size: 0x8, addend: 0x0, symName: __ZN4absl12lts_2024011613cord_internal11CordRepFlat7NewImplILm262144EJEEEPS2_mDpT0_, symObjAddr: 0x8450, symBinAddr: 0x19020, symSize: 0xC0 }
  - { offset: 0xADB03, size: 0x8, addend: 0x0, symName: __ZN4absl12lts_202401164Cord9InlineRep19AppendTreeToInlinedEPNS0_13cord_internal7CordRepENS3_18CordzUpdateTracker16MethodIdentifierE.cold.3, symObjAddr: 0xAB78, symBinAddr: 0x6092C, symSize: 0x24 }
  - { offset: 0xADB46, size: 0x8, addend: 0x0, symName: __ZN4absl12lts_202401164Cord9InlineRep19AppendTreeToInlinedEPNS0_13cord_internal7CordRepENS3_18CordzUpdateTracker16MethodIdentifierE.cold.1, symObjAddr: 0xAB2C, symBinAddr: 0x608E0, symSize: 0x28 }
  - { offset: 0xADB72, size: 0x8, addend: 0x0, symName: __ZN4absl12lts_202401164Cord9InlineRep19AppendTreeToInlinedEPNS0_13cord_internal7CordRepENS3_18CordzUpdateTracker16MethodIdentifierE.cold.2, symObjAddr: 0xAB54, symBinAddr: 0x60908, symSize: 0x24 }
  - { offset: 0xADD36, size: 0x8, addend: 0x0, symName: __ZNK4absl12lts_2024011613cord_internal10InlineData10cordz_infoEv, symObjAddr: 0xE40, symBinAddr: 0x1295C, symSize: 0x2C }
  - { offset: 0xADDD3, size: 0x8, addend: 0x0, symName: __ZN4absl12lts_20240116L10ForceBtreeEPNS0_13cord_internal7CordRepE, symObjAddr: 0xE6C, symBinAddr: 0x12988, symSize: 0xF0 }
  - { offset: 0xADDDE, size: 0x8, addend: 0x0, symName: __ZN4absl12lts_2024011613cord_internal16CordzUpdateScopeD2Ev, symObjAddr: 0x8154, symBinAddr: 0x18D24, symSize: 0x34 }
  - { offset: 0xADE09, size: 0x8, addend: 0x0, symName: __ZN4absl12lts_202401164Cord9InlineRep16AppendTreeToTreeEPNS0_13cord_internal7CordRepENS3_18CordzUpdateTracker16MethodIdentifierE.cold.1, symObjAddr: 0xABC0, symBinAddr: 0x60950, symSize: 0x28 }
  - { offset: 0xADE37, size: 0x8, addend: 0x0, symName: __ZNK4absl12lts_2024011613cord_internal10InlineData10cordz_infoEv.cold.2, symObjAddr: 0xAC10, symBinAddr: 0x609A0, symSize: 0x28 }
  - { offset: 0xADE4F, size: 0x8, addend: 0x0, symName: __ZNK4absl12lts_2024011613cord_internal10InlineData10cordz_infoEv.cold.1, symObjAddr: 0xABE8, symBinAddr: 0x60978, symSize: 0x28 }
  - { offset: 0xADF8E, size: 0x8, addend: 0x0, symName: __ZN4absl12lts_2024011613cord_internal7CordRep5UnrefEPS2_, symObjAddr: 0x12F4, symBinAddr: 0x12E10, symSize: 0x50 }
  - { offset: 0xAE034, size: 0x8, addend: 0x0, symName: __ZN4absl12lts_20240116L10ForceBtreeEPNS0_13cord_internal7CordRepE.cold.2, symObjAddr: 0xAC5C, symBinAddr: 0x609EC, symSize: 0x24 }
  - { offset: 0xAE076, size: 0x8, addend: 0x0, symName: __ZN4absl12lts_20240116L10ForceBtreeEPNS0_13cord_internal7CordRepE.cold.1, symObjAddr: 0xAC38, symBinAddr: 0x609C8, symSize: 0x24 }
  - { offset: 0xAE0F9, size: 0x8, addend: 0x0, symName: __ZN4absl12lts_202401164Cord9InlineRep20PrependTreeToInlinedEPNS0_13cord_internal7CordRepENS3_18CordzUpdateTracker16MethodIdentifierE.cold.1, symObjAddr: 0xACA4, symBinAddr: 0x60A10, symSize: 0x28 }
  - { offset: 0xAE144, size: 0x8, addend: 0x0, symName: __ZN4absl12lts_202401164Cord9InlineRep17PrependTreeToTreeEPNS0_13cord_internal7CordRepENS3_18CordzUpdateTracker16MethodIdentifierE.cold.1, symObjAddr: 0xAD38, symBinAddr: 0x60A38, symSize: 0x28 }
  - { offset: 0xAE22D, size: 0x8, addend: 0x0, symName: __ZN4absl12lts_202401164Cord9InlineRep10AssignSlowERKS2_, symObjAddr: 0x11CC, symBinAddr: 0x12CE8, symSize: 0x128 }
  - { offset: 0xAE7D6, size: 0x8, addend: 0x0, symName: __ZN4absl12lts_2024011613cord_internal7CordRep5UnrefEPS2_, symObjAddr: 0x12F4, symBinAddr: 0x12E10, symSize: 0x50 }
  - { offset: 0xAE7E1, size: 0x8, addend: 0x0, symName: __ZN4absl12lts_2024011613cord_internal10InlineData18is_either_profiledERKS2_S4_, symObjAddr: 0x8188, symBinAddr: 0x18D58, symSize: 0x34 }
  - { offset: 0xAE818, size: 0x8, addend: 0x0, symName: __ZN4absl12lts_2024011613cord_internal10InlineData18is_either_profiledERKS2_S4_, symObjAddr: 0x8188, symBinAddr: 0x18D58, symSize: 0x34 }
  - { offset: 0xAE834, size: 0x8, addend: 0x0, symName: __ZN4absl12lts_2024011613cord_internal10InlineData18is_either_profiledERKS2_S4_, symObjAddr: 0x8188, symBinAddr: 0x18D58, symSize: 0x34 }
  - { offset: 0xAE8C6, size: 0x8, addend: 0x0, symName: __ZN4absl12lts_2024011613cord_internal12CordRepBtree15GetAppendBufferEm, symObjAddr: 0x81BC, symBinAddr: 0x18D8C, symSize: 0x1F0 }
  - { offset: 0xAE8D1, size: 0x8, addend: 0x0, symName: __ZN4absl12lts_202401164Cord9InlineRep10AssignSlowERKS2_.cold.4, symObjAddr: 0xADD4, symBinAddr: 0x60AB0, symSize: 0x28 }
  - { offset: 0xAE8E9, size: 0x8, addend: 0x0, symName: __ZN4absl12lts_202401164Cord9InlineRep10AssignSlowERKS2_.cold.3, symObjAddr: 0xADAC, symBinAddr: 0x60A88, symSize: 0x28 }
  - { offset: 0xAE916, size: 0x8, addend: 0x0, symName: __ZN4absl12lts_202401164Cord9InlineRep10AssignSlowERKS2_.cold.1, symObjAddr: 0xAD60, symBinAddr: 0x60A60, symSize: 0x28 }
  - { offset: 0xAE991, size: 0x8, addend: 0x0, symName: __ZN4absl12lts_2024011613cord_internal7CordRep5UnrefEPS2_.cold.2, symObjAddr: 0xAE20, symBinAddr: 0x60AFC, symSize: 0x24 }
  - { offset: 0xAE9A9, size: 0x8, addend: 0x0, symName: __ZN4absl12lts_2024011613cord_internal7CordRep5UnrefEPS2_.cold.1, symObjAddr: 0xADFC, symBinAddr: 0x60AD8, symSize: 0x24 }
  - { offset: 0xAE9ED, size: 0x8, addend: 0x0, symName: __ZN4absl12lts_202401164Cord9InlineRep9UnrefTreeEv, symObjAddr: 0x1344, symBinAddr: 0x12E60, symSize: 0x84 }
  - { offset: 0xAEBF3, size: 0x8, addend: 0x0, symName: __ZN4absl12lts_202401164CordC2ENS0_11string_viewENS0_13cord_internal18CordzUpdateTracker16MethodIdentifierE, symObjAddr: 0x13C8, symBinAddr: 0x12EE4, symSize: 0x50 }
  - { offset: 0xAEC33, size: 0x8, addend: 0x0, symName: __ZN4absl12lts_202401164CordC2ENS0_11string_viewENS0_13cord_internal18CordzUpdateTracker16MethodIdentifierE, symObjAddr: 0x13C8, symBinAddr: 0x12EE4, symSize: 0x50 }
  - { offset: 0xAED5F, size: 0x8, addend: 0x0, symName: __ZN4absl12lts_20240116L7NewTreeEPKcmm, symObjAddr: 0x1418, symBinAddr: 0x12F34, symSize: 0xF8 }
  - { offset: 0xAEE70, size: 0x8, addend: 0x0, symName: __ZN4absl12lts_202401164CordC1ENS0_11string_viewENS0_13cord_internal18CordzUpdateTracker16MethodIdentifierE, symObjAddr: 0x1510, symBinAddr: 0x1302C, symSize: 0x4 }
  - { offset: 0xAEE9E, size: 0x8, addend: 0x0, symName: __ZN4absl12lts_202401164CordC1ENS0_11string_viewENS0_13cord_internal18CordzUpdateTracker16MethodIdentifierE, symObjAddr: 0x1510, symBinAddr: 0x1302C, symSize: 0x4 }
  - { offset: 0xAEED5, size: 0x8, addend: 0x0, symName: __ZN4absl12lts_202401164Cord15DestroyCordSlowEv, symObjAddr: 0x1514, symBinAddr: 0x13030, symSize: 0x90 }
  - { offset: 0xAF0EA, size: 0x8, addend: 0x0, symName: __ZN4absl12lts_202401164Cord15DestroyCordSlowEv.cold.4, symObjAddr: 0xAF44, symBinAddr: 0x60B48, symSize: 0x28 }
  - { offset: 0xAF102, size: 0x8, addend: 0x0, symName: __ZN4absl12lts_202401164Cord15DestroyCordSlowEv.cold.3, symObjAddr: 0xAF1C, symBinAddr: 0x60B20, symSize: 0x28 }
  - { offset: 0xAF19F, size: 0x8, addend: 0x0, symName: __ZN4absl12lts_202401164Cord5ClearEv, symObjAddr: 0x15A4, symBinAddr: 0x130C0, symSize: 0x90 }
  - { offset: 0xAF445, size: 0x8, addend: 0x0, symName: __ZN4absl12lts_202401164Cord17AssignLargeStringEONSt3__112basic_stringIcNS2_11char_traitsIcEENS2_9allocatorIcEEEE, symObjAddr: 0x1634, symBinAddr: 0x13150, symSize: 0x168 }
  - { offset: 0xAF8F4, size: 0x8, addend: 0x0, symName: __ZN4absl12lts_202401164Cord17AssignLargeStringEONSt3__112basic_stringIcNS2_11char_traitsIcEENS2_9allocatorIcEEEE.cold.2, symObjAddr: 0xAFB4, symBinAddr: 0x60B70, symSize: 0x28 }
  - { offset: 0xAF937, size: 0x8, addend: 0x0, symName: __ZN4absl12lts_202401164CordaSENS0_11string_viewE, symObjAddr: 0x179C, symBinAddr: 0x132B8, symSize: 0x2AC }
  - { offset: 0xB0240, size: 0x8, addend: 0x0, symName: __ZN4absl12lts_2024011613cord_internal12CordRepBtree15GetAppendBufferEm, symObjAddr: 0x81BC, symBinAddr: 0x18D8C, symSize: 0x1F0 }
  - { offset: 0xB0759, size: 0x8, addend: 0x0, symName: __ZN4absl12lts_2024011613cord_internal11CordRepFlat7NewImplILm4096EJEEEPS2_mDpT0_, symObjAddr: 0x83AC, symBinAddr: 0x18F7C, symSize: 0xA4 }
  - { offset: 0xB0764, size: 0x8, addend: 0x0, symName: __ZN4absl12lts_202401164Cord9InlineRep11AppendArrayENS0_11string_viewENS0_13cord_internal18CordzUpdateTracker16MethodIdentifierE.cold.1, symObjAddr: 0xB024, symBinAddr: 0x60B98, symSize: 0x74 }
  - { offset: 0xB0B1B, size: 0x8, addend: 0x0, symName: __ZN4absl12lts_202401164Cord23GetAppendBufferSlowPathEmmm, symObjAddr: 0x1FA0, symBinAddr: 0x13ABC, symSize: 0x4A8 }
  - { offset: 0xB1836, size: 0x8, addend: 0x0, symName: __ZN4absl12lts_2024011613cord_internal11CordRepFlat7NewImplILm262144EJEEEPS2_mDpT0_, symObjAddr: 0x8450, symBinAddr: 0x19020, symSize: 0xC0 }
  - { offset: 0xB1AAB, size: 0x8, addend: 0x0, symName: __ZN4absl12lts_2024011610CordBufferD1Ev, symObjAddr: 0x8510, symBinAddr: 0x190E0, symSize: 0x34 }
  - { offset: 0xB1AC8, size: 0x8, addend: 0x0, symName: __ZN4absl12lts_202401164Cord23GetAppendBufferSlowPathEmmm.cold.2, symObjAddr: 0xB0BC, symBinAddr: 0x60C30, symSize: 0x28 }
  - { offset: 0xB1B22, size: 0x8, addend: 0x0, symName: __ZN4absl12lts_202401164Cord23GetAppendBufferSlowPathEmmm.cold.1, symObjAddr: 0xB098, symBinAddr: 0x60C0C, symSize: 0x24 }
  - { offset: 0xB1B92, size: 0x8, addend: 0x0, symName: __ZN4absl12lts_2024011610CordBufferD1Ev, symObjAddr: 0x8510, symBinAddr: 0x190E0, symSize: 0x34 }
  - { offset: 0xB1C23, size: 0x8, addend: 0x0, symName: __ZN4absl12lts_202401164Cord6AppendERKS1_, symObjAddr: 0x2448, symBinAddr: 0x13F64, symSize: 0x4 }
  - { offset: 0xB1C5B, size: 0x8, addend: 0x0, symName: __ZN4absl12lts_202401164Cord6AppendERKS1_, symObjAddr: 0x2448, symBinAddr: 0x13F64, symSize: 0x4 }
  - { offset: 0xB1C75, size: 0x8, addend: 0x0, symName: __ZN4absl12lts_202401164Cord10AppendImplIRKS1_EEvOT_, symObjAddr: 0x244C, symBinAddr: 0x13F68, symSize: 0x3C8 }
  - { offset: 0xB2C28, size: 0x8, addend: 0x0, symName: __ZN4absl12lts_202401164Cord13ChunkIteratorC2EPKS1_, symObjAddr: 0x85A8, symBinAddr: 0x19178, symSize: 0x118 }
  - { offset: 0xB3057, size: 0x8, addend: 0x0, symName: __ZN4absl12lts_2024011613cord_internal18CordRepBtreeReader4InitEPNS1_12CordRepBtreeE, symObjAddr: 0x86C0, symBinAddr: 0x19290, symSize: 0xB0 }
  - { offset: 0xB3062, size: 0x8, addend: 0x0, symName: __ZN4absl12lts_2024011613cord_internal18CordRepBtreeReader4NextEv, symObjAddr: 0x5278, symBinAddr: 0x16D58, symSize: 0x110 }
  - { offset: 0xB32CC, size: 0x8, addend: 0x0, symName: __ZNK4absl12lts_202401164CordixEm, symObjAddr: 0x5388, symBinAddr: 0x16E68, symSize: 0xD0 }
  - { offset: 0xB32D7, size: 0x8, addend: 0x0, symName: __ZN4absl12lts_202401164CordC1ERKS1_, symObjAddr: 0x489C, symBinAddr: 0x163B8, symSize: 0x7C }
  - { offset: 0xB35B5, size: 0x8, addend: 0x0, symName: __ZN4absl12lts_202401164Cord10AppendImplIS1_EEvOT_, symObjAddr: 0x2818, symBinAddr: 0x14334, symSize: 0x320 }
  - { offset: 0xB4056, size: 0x8, addend: 0x0, symName: __ZN4absl12lts_202401164CordD2Ev, symObjAddr: 0x8BB4, symBinAddr: 0x19784, symSize: 0x34 }
  - { offset: 0xB40EB, size: 0x8, addend: 0x0, symName: __ZN4absl12lts_202401164Cord10AppendImplIRKS1_EEvOT_.cold.6, symObjAddr: 0xB1E8, symBinAddr: 0x60CA0, symSize: 0x24 }
  - { offset: 0xB412F, size: 0x8, addend: 0x0, symName: __ZN4absl12lts_202401164Cord10AppendImplIRKS1_EEvOT_.cold.5, symObjAddr: 0xB1C4, symBinAddr: 0x60C7C, symSize: 0x24 }
  - { offset: 0xB4198, size: 0x8, addend: 0x0, symName: __ZN4absl12lts_202401164Cord10AppendImplIRKS1_EEvOT_.cold.4, symObjAddr: 0xB1A0, symBinAddr: 0x60C58, symSize: 0x24 }
  - { offset: 0xB41DB, size: 0x8, addend: 0x0, symName: __ZN4absl12lts_202401164Cord10AppendImplIRKS1_EEvOT_.cold.7, symObjAddr: 0xB20C, symBinAddr: 0x60CC4, symSize: 0x24 }
  - { offset: 0xB42C5, size: 0x8, addend: 0x0, symName: __ZN4absl12lts_202401164Cord6AppendEOS1_, symObjAddr: 0x2814, symBinAddr: 0x14330, symSize: 0x4 }
  - { offset: 0xB42EE, size: 0x8, addend: 0x0, symName: __ZN4absl12lts_202401164Cord6AppendEOS1_, symObjAddr: 0x2814, symBinAddr: 0x14330, symSize: 0x4 }
  - { offset: 0xB43B6, size: 0x8, addend: 0x0, symName: __ZN4absl12lts_202401164Cord10AppendImplIS1_EEvOT_.cold.9, symObjAddr: 0xB560, symBinAddr: 0x60E60, symSize: 0x28 }
  - { offset: 0xB43E4, size: 0x8, addend: 0x0, symName: __ZN4absl12lts_202401164Cord10AppendImplIS1_EEvOT_.cold.8, symObjAddr: 0xB4AC, symBinAddr: 0x60DAC, symSize: 0xB4 }
  - { offset: 0xB4528, size: 0x8, addend: 0x0, symName: __ZN4absl12lts_202401164Cord10AppendImplIS1_EEvOT_.cold.2, symObjAddr: 0xB358, symBinAddr: 0x60CE8, symSize: 0x98 }
  - { offset: 0xB4650, size: 0x8, addend: 0x0, symName: __ZN4absl12lts_202401164Cord10AppendImplIS1_EEvOT_.cold.7, symObjAddr: 0xB480, symBinAddr: 0x60D80, symSize: 0x2C }
  - { offset: 0xB46DC, size: 0x8, addend: 0x0, symName: __ZN4absl12lts_202401164Cord7PrependERKS1_, symObjAddr: 0x2B38, symBinAddr: 0x14654, symSize: 0x124 }
  - { offset: 0xB4C32, size: 0x8, addend: 0x0, symName: __ZN4absl12lts_202401164Cord12PrependArrayENS0_11string_viewENS0_13cord_internal18CordzUpdateTracker16MethodIdentifierE, symObjAddr: 0x2C5C, symBinAddr: 0x14778, symSize: 0xF4 }
  - { offset: 0xB4DC1, size: 0x8, addend: 0x0, symName: __ZN4absl12lts_202401164Cord13AppendPreciseENS0_11string_viewENS0_13cord_internal18CordzUpdateTracker16MethodIdentifierE, symObjAddr: 0x2D50, symBinAddr: 0x1486C, symSize: 0xA8 }
  - { offset: 0xB4FEE, size: 0x8, addend: 0x0, symName: __ZN4absl12lts_2024011613cord_internal11CordRepFlat6CreateENS0_11string_viewEm, symObjAddr: 0x2DF8, symBinAddr: 0x14914, symSize: 0x64 }
  - { offset: 0xB4FF9, size: 0x8, addend: 0x0, symName: __ZN4absl12lts_2024011613cord_internal11CordRepFlat6CreateENS0_11string_viewEm, symObjAddr: 0x2DF8, symBinAddr: 0x14914, symSize: 0x64 }
  - { offset: 0xB5076, size: 0x8, addend: 0x0, symName: __ZN4absl12lts_202401164Cord14PrependPreciseENS0_11string_viewENS0_13cord_internal18CordzUpdateTracker16MethodIdentifierE, symObjAddr: 0x2E5C, symBinAddr: 0x14978, symSize: 0xEC }
  - { offset: 0xB5081, size: 0x8, addend: 0x0, symName: __ZN4absl12lts_202401164Cord13AppendPreciseENS0_11string_viewENS0_13cord_internal18CordzUpdateTracker16MethodIdentifierE.cold.4, symObjAddr: 0xB724, symBinAddr: 0x60ED0, symSize: 0x28 }
  - { offset: 0xB5099, size: 0x8, addend: 0x0, symName: __ZN4absl12lts_202401164Cord13AppendPreciseENS0_11string_viewENS0_13cord_internal18CordzUpdateTracker16MethodIdentifierE.cold.3, symObjAddr: 0xB700, symBinAddr: 0x60EAC, symSize: 0x24 }
  - { offset: 0xB50E7, size: 0x8, addend: 0x0, symName: __ZN4absl12lts_202401164Cord13AppendPreciseENS0_11string_viewENS0_13cord_internal18CordzUpdateTracker16MethodIdentifierE.cold.2, symObjAddr: 0xB6DC, symBinAddr: 0x60E88, symSize: 0x24 }
  - { offset: 0xB5157, size: 0x8, addend: 0x0, symName: __ZN4absl12lts_2024011613cord_internal11CordRepFlat6CreateENS0_11string_viewEm.cold.1, symObjAddr: 0xB74C, symBinAddr: 0x60EF8, symSize: 0x28 }
  - { offset: 0xB516F, size: 0x8, addend: 0x0, symName: __ZN4absl12lts_202401164Cord14PrependPreciseENS0_11string_viewENS0_13cord_internal18CordzUpdateTracker16MethodIdentifierE, symObjAddr: 0x2E5C, symBinAddr: 0x14978, symSize: 0xEC }
  - { offset: 0xB5429, size: 0x8, addend: 0x0, symName: __ZN4absl12lts_202401164Cord12RemovePrefixEm, symObjAddr: 0x2F48, symBinAddr: 0x14A64, symSize: 0x5C8 }
  - { offset: 0xB5434, size: 0x8, addend: 0x0, symName: __ZN4absl12lts_202401164Cord14PrependPreciseENS0_11string_viewENS0_13cord_internal18CordzUpdateTracker16MethodIdentifierE.cold.4, symObjAddr: 0xB7E4, symBinAddr: 0x60F48, symSize: 0x28 }
  - { offset: 0xB544C, size: 0x8, addend: 0x0, symName: __ZN4absl12lts_202401164Cord14PrependPreciseENS0_11string_viewENS0_13cord_internal18CordzUpdateTracker16MethodIdentifierE.cold.3, symObjAddr: 0xB7BC, symBinAddr: 0x60F20, symSize: 0x28 }
  - { offset: 0xB55EE, size: 0x8, addend: 0x0, symName: __ZN4absl12lts_202401164Cord12RemovePrefixEm, symObjAddr: 0x2F48, symBinAddr: 0x14A64, symSize: 0x5C8 }
  - { offset: 0xB6927, size: 0x8, addend: 0x0, symName: __ZN4absl12lts_202401168AlphaNumC2Em, symObjAddr: 0x8564, symBinAddr: 0x19134, symSize: 0x44 }
  - { offset: 0xB6A12, size: 0x8, addend: 0x0, symName: __ZN4absl12lts_202401164Cord13ChunkIteratorC2EPKS1_, symObjAddr: 0x85A8, symBinAddr: 0x19178, symSize: 0x118 }
  - { offset: 0xB6A58, size: 0x8, addend: 0x0, symName: __ZN4absl12lts_202401164Cord9InlineRep13remove_prefixEm, symObjAddr: 0x3510, symBinAddr: 0x1502C, symSize: 0xF4 }
  - { offset: 0xB6D19, size: 0x8, addend: 0x0, symName: __ZN4absl12lts_2024011613cord_internal16CordRepSubstring9SubstringEPNS1_7CordRepEmm, symObjAddr: 0x3604, symBinAddr: 0x15120, symSize: 0xD0 }
  - { offset: 0xB6DDC, size: 0x8, addend: 0x0, symName: __ZN4absl12lts_202401164Cord9InlineRep13remove_prefixEm.cold.5, symObjAddr: 0xB914, symBinAddr: 0x60F98, symSize: 0x28 }
  - { offset: 0xB6E09, size: 0x8, addend: 0x0, symName: __ZN4absl12lts_202401164Cord9InlineRep13remove_prefixEm.cold.4, symObjAddr: 0xB8EC, symBinAddr: 0x60F70, symSize: 0x28 }
  - { offset: 0xB6E75, size: 0x8, addend: 0x0, symName: __ZN4absl12lts_202401164Cord9InlineRep13remove_prefixEm.cold.6, symObjAddr: 0xB93C, symBinAddr: 0x60FC0, symSize: 0x28 }
  - { offset: 0xB6EA1, size: 0x8, addend: 0x0, symName: __ZN4absl12lts_2024011613cord_internal16CordRepSubstring9SubstringEPNS1_7CordRepEmm, symObjAddr: 0x3604, symBinAddr: 0x15120, symSize: 0xD0 }
  - { offset: 0xB71DE, size: 0x8, addend: 0x0, symName: __ZN4absl12lts_202401164Cord12RemoveSuffixEm, symObjAddr: 0x36D4, symBinAddr: 0x151F0, symSize: 0x594 }
  - { offset: 0xB71E9, size: 0x8, addend: 0x0, symName: __ZN4absl12lts_2024011613cord_internal16CordRepSubstring9SubstringEPNS1_7CordRepEmm.cold.5, symObjAddr: 0xBA00, symBinAddr: 0x61060, symSize: 0x28 }
  - { offset: 0xB7201, size: 0x8, addend: 0x0, symName: __ZN4absl12lts_2024011613cord_internal16CordRepSubstring9SubstringEPNS1_7CordRepEmm.cold.4, symObjAddr: 0xB9D8, symBinAddr: 0x61038, symSize: 0x28 }
  - { offset: 0xB7219, size: 0x8, addend: 0x0, symName: __ZN4absl12lts_2024011613cord_internal16CordRepSubstring9SubstringEPNS1_7CordRepEmm.cold.1, symObjAddr: 0xB964, symBinAddr: 0x60FE8, symSize: 0x28 }
  - { offset: 0xB7231, size: 0x8, addend: 0x0, symName: __ZN4absl12lts_2024011613cord_internal16CordRepSubstring9SubstringEPNS1_7CordRepEmm.cold.3, symObjAddr: 0xB9B0, symBinAddr: 0x61010, symSize: 0x28 }
  - { offset: 0xB725E, size: 0x8, addend: 0x0, symName: __ZN4absl12lts_202401164Cord12RemoveSuffixEm, symObjAddr: 0x36D4, symBinAddr: 0x151F0, symSize: 0x594 }
  - { offset: 0xB86FB, size: 0x8, addend: 0x0, symName: __ZNK4absl12lts_202401164Cord7SubcordEmm, symObjAddr: 0x3C68, symBinAddr: 0x15784, symSize: 0x43C }
  - { offset: 0xB8ECC, size: 0x8, addend: 0x0, symName: __ZN4absl12lts_202401164Cord13ChunkIterator17AdvanceBytesBtreeEm, symObjAddr: 0x88F0, symBinAddr: 0x194C0, symSize: 0x84 }
  - { offset: 0xB8F9B, size: 0x8, addend: 0x0, symName: __ZN4absl12lts_2024011613cord_internal18CordRepBtreeReader4SeekEm, symObjAddr: 0x8974, symBinAddr: 0x19544, symSize: 0xEC }
  - { offset: 0xB8FA6, size: 0x8, addend: 0x0, symName: __ZN4absl12lts_202401164Cord15SetCrcCordStateENS0_12crc_internal12CrcCordStateE, symObjAddr: 0x40A4, symBinAddr: 0x15BC0, symSize: 0x228 }
  - { offset: 0xB9667, size: 0x8, addend: 0x0, symName: __ZN4absl12lts_202401164Cord15SetCrcCordStateENS0_12crc_internal12CrcCordStateE.cold.1, symObjAddr: 0xBB10, symBinAddr: 0x61088, symSize: 0x24 }
  - { offset: 0xB9695, size: 0x8, addend: 0x0, symName: __ZN4absl12lts_202401164Cord15SetCrcCordStateENS0_12crc_internal12CrcCordStateE.cold.2, symObjAddr: 0xBB34, symBinAddr: 0x610AC, symSize: 0x24 }
  - { offset: 0xB9723, size: 0x8, addend: 0x0, symName: __ZN4absl12lts_202401164Cord19SetExpectedChecksumEj, symObjAddr: 0x42CC, symBinAddr: 0x15DE8, symSize: 0xB4 }
  - { offset: 0xB994F, size: 0x8, addend: 0x0, symName: __ZN4absl12lts_2024011612crc_internal12CrcCordState11mutable_repEv, symObjAddr: 0x4380, symBinAddr: 0x15E9C, symSize: 0x84 }
  - { offset: 0xB9BCB, size: 0x8, addend: 0x0, symName: __ZNSt3__15dequeIN4absl12lts_2024011612crc_internal12CrcCordState9PrefixCrcENS_9allocatorIS5_EEE9push_backEOS5_, symObjAddr: 0x4404, symBinAddr: 0x15F20, symSize: 0x88 }
  - { offset: 0xB9DCB, size: 0x8, addend: 0x0, symName: __ZNSt3__15dequeIN4absl12lts_2024011612crc_internal12CrcCordState9PrefixCrcENS_9allocatorIS5_EEEaSERKS8_, symObjAddr: 0x8C38, symBinAddr: 0x19808, symSize: 0x88 }
  - { offset: 0xB9EA3, size: 0x8, addend: 0x0, symName: __ZN4absl12lts_2024011612crc_internal12CrcCordState5UnrefEPNS2_13RefcountedRepE, symObjAddr: 0x8BE8, symBinAddr: 0x197B8, symSize: 0x50 }
  - { offset: 0xB9F9B, size: 0x8, addend: 0x0, symName: __ZNSt3__15dequeIN4absl12lts_2024011612crc_internal12CrcCordState9PrefixCrcENS_9allocatorIS5_EEEaSERKS8_, symObjAddr: 0x8C38, symBinAddr: 0x19808, symSize: 0x88 }
  - { offset: 0xBA0CC, size: 0x8, addend: 0x0, symName: __ZNSt3__15dequeIN4absl12lts_2024011612crc_internal12CrcCordState9PrefixCrcENS_9allocatorIS5_EEE19__add_back_capacityEv, symObjAddr: 0xA044, symBinAddr: 0x1A8D8, symSize: 0x1B0 }
  - { offset: 0xBA89F, size: 0x8, addend: 0x0, symName: __ZNK4absl12lts_202401164Cord20MaybeGetCrcCordStateEv, symObjAddr: 0x448C, symBinAddr: 0x15FA8, symSize: 0x28 }
  - { offset: 0xBA8CB, size: 0x8, addend: 0x0, symName: __ZNK4absl12lts_202401164Cord20MaybeGetCrcCordStateEv, symObjAddr: 0x448C, symBinAddr: 0x15FA8, symSize: 0x28 }
  - { offset: 0xBA8E7, size: 0x8, addend: 0x0, symName: __ZNK4absl12lts_202401164Cord20MaybeGetCrcCordStateEv, symObjAddr: 0x448C, symBinAddr: 0x15FA8, symSize: 0x28 }
  - { offset: 0xBA903, size: 0x8, addend: 0x0, symName: __ZNK4absl12lts_202401164Cord20MaybeGetCrcCordStateEv, symObjAddr: 0x448C, symBinAddr: 0x15FA8, symSize: 0x28 }
  - { offset: 0xBA9B1, size: 0x8, addend: 0x0, symName: __ZNK4absl12lts_202401164Cord16ExpectedChecksumEv, symObjAddr: 0x44B4, symBinAddr: 0x15FD0, symSize: 0x48 }
  - { offset: 0xBA9DD, size: 0x8, addend: 0x0, symName: __ZNK4absl12lts_202401164Cord16ExpectedChecksumEv, symObjAddr: 0x44B4, symBinAddr: 0x15FD0, symSize: 0x48 }
  - { offset: 0xBA9F9, size: 0x8, addend: 0x0, symName: __ZNK4absl12lts_202401164Cord16ExpectedChecksumEv, symObjAddr: 0x44B4, symBinAddr: 0x15FD0, symSize: 0x48 }
  - { offset: 0xBAA15, size: 0x8, addend: 0x0, symName: __ZNK4absl12lts_202401164Cord16ExpectedChecksumEv, symObjAddr: 0x44B4, symBinAddr: 0x15FD0, symSize: 0x48 }
  - { offset: 0xBAAC3, size: 0x8, addend: 0x0, symName: __ZNK4absl12lts_202401164Cord10EqualsImplENS0_11string_viewEm, symObjAddr: 0x44FC, symBinAddr: 0x16018, symSize: 0x28 }
  - { offset: 0xBAB2F, size: 0x8, addend: 0x0, symName: __ZNK4absl12lts_202401164Cord9InlineRep18FindFlatStartPieceEv, symObjAddr: 0xA38C, symBinAddr: 0x1AC20, symSize: 0x158 }
  - { offset: 0xBB0BD, size: 0x8, addend: 0x0, symName: __ZN4absl12lts_2024011612_GLOBAL__N_113CompareChunksEPNS0_11string_viewES3_Pm, symObjAddr: 0xA4E4, symBinAddr: 0x1AD78, symSize: 0x98 }
  - { offset: 0xBB0E4, size: 0x8, addend: 0x0, symName: __ZNK4absl12lts_202401164Cord15CompareSlowPathENS0_11string_viewEmm, symObjAddr: 0xA1F4, symBinAddr: 0x1AA88, symSize: 0x198 }
  - { offset: 0xBB3FC, size: 0x8, addend: 0x0, symName: __ZN4absl12lts_2024011614GenericCompareIbNS0_11string_viewEEET_RKNS0_4CordERKT0_m.cold.1, symObjAddr: 0xBBC4, symBinAddr: 0x610D0, symSize: 0x24 }
  - { offset: 0xBB414, size: 0x8, addend: 0x0, symName: __ZNK4absl12lts_202401164Cord10EqualsImplERKS1_m, symObjAddr: 0x45DC, symBinAddr: 0x160F8, symSize: 0x4 }
  - { offset: 0xBB444, size: 0x8, addend: 0x0, symName: __ZNK4absl12lts_202401164Cord10EqualsImplERKS1_m, symObjAddr: 0x45DC, symBinAddr: 0x160F8, symSize: 0x4 }
  - { offset: 0xBB465, size: 0x8, addend: 0x0, symName: __ZNK4absl12lts_202401164Cord15CompareSlowPathERKS1_mm, symObjAddr: 0xA57C, symBinAddr: 0x1AE10, symSize: 0x228 }
  - { offset: 0xBB920, size: 0x8, addend: 0x0, symName: __ZNK4absl12lts_202401164Cord7CompareENS0_11string_viewE, symObjAddr: 0x46CC, symBinAddr: 0x161E8, symSize: 0x6C }
  - { offset: 0xBBB17, size: 0x8, addend: 0x0, symName: __ZNK4absl12lts_202401164Cord11CompareImplERKS1_, symObjAddr: 0x4738, symBinAddr: 0x16254, symSize: 0x74 }
  - { offset: 0xBBF2F, size: 0x8, addend: 0x0, symName: __ZNK4absl12lts_202401164Cord8EndsWithENS0_11string_viewE, symObjAddr: 0x47AC, symBinAddr: 0x162C8, symSize: 0xF0 }
  - { offset: 0xBC3B8, size: 0x8, addend: 0x0, symName: __ZNK4absl12lts_202401164Cord8EndsWithERKS1_, symObjAddr: 0x4918, symBinAddr: 0x16434, symSize: 0x104 }
  - { offset: 0xBCA1A, size: 0x8, addend: 0x0, symName: __ZNK4absl12lts_202401164CordcvNSt3__112basic_stringIcNS2_11char_traitsIcEENS2_9allocatorIcEEEEEv, symObjAddr: 0x4A1C, symBinAddr: 0x16538, symSize: 0x48 }
  - { offset: 0xBCBDB, size: 0x8, addend: 0x0, symName: __ZNK4absl12lts_202401164Cord9InlineRep6CopyToEPNSt3__112basic_stringIcNS3_11char_traitsIcEENS3_9allocatorIcEEEE, symObjAddr: 0x4AC4, symBinAddr: 0x165E0, symSize: 0x70 }
  - { offset: 0xBCDA9, size: 0x8, addend: 0x0, symName: __ZNK4absl12lts_202401164Cord19CopyToArraySlowPathEPc, symObjAddr: 0x4B34, symBinAddr: 0x16650, symSize: 0x128 }
  - { offset: 0xBCDB4, size: 0x8, addend: 0x0, symName: __ZN4absl12lts_2024011616strings_internal25ResizeUninitializedTraitsINSt3__112basic_stringIcNS3_11char_traitsIcEENS3_9allocatorIcEEEEvE6ResizeEPS9_m, symObjAddr: 0x9EC8, symBinAddr: 0x1A800, symSize: 0xD8 }
  - { offset: 0xBD108, size: 0x8, addend: 0x0, symName: __ZNK4absl12lts_202401164Cord19CopyToArraySlowPathEPc, symObjAddr: 0x4B34, symBinAddr: 0x16650, symSize: 0x128 }
  - { offset: 0xBD4AB, size: 0x8, addend: 0x0, symName: __ZN4absl12lts_202401164Cord10GetFlatAuxEPNS0_13cord_internal7CordRepEPNS0_11string_viewE, symObjAddr: 0x4C5C, symBinAddr: 0x16778, symSize: 0x134 }
  - { offset: 0xBD788, size: 0x8, addend: 0x0, symName: __ZN4absl12lts_202401164Cord13ChunkIterator19AdvanceAndReadBytesEm, symObjAddr: 0x4D90, symBinAddr: 0x168AC, symSize: 0x4AC }
  - { offset: 0xBD7BD, size: 0x8, addend: 0x0, symName: __ZNK4absl12lts_202401164Cord19CopyToArraySlowPathEPc.cold.3, symObjAddr: 0xBC9C, symBinAddr: 0x610F4, symSize: 0x28 }
  - { offset: 0xBD7D5, size: 0x8, addend: 0x0, symName: __ZN4absl12lts_202401164Cord10GetFlatAuxEPNS0_13cord_internal7CordRepEPNS0_11string_viewE.cold.7, symObjAddr: 0xBD9C, symBinAddr: 0x6111C, symSize: 0x28 }
  - { offset: 0xBD99D, size: 0x8, addend: 0x0, symName: __ZN4absl12lts_202401164Cord13ChunkIterator19AdvanceAndReadBytesEm, symObjAddr: 0x4D90, symBinAddr: 0x168AC, symSize: 0x4AC }
  - { offset: 0xBE43D, size: 0x8, addend: 0x0, symName: __ZN4absl12lts_2024011613cord_internal18CordRepBtreeReader4NextEv, symObjAddr: 0x5278, symBinAddr: 0x16D58, symSize: 0x110 }
  - { offset: 0xBE448, size: 0x8, addend: 0x0, symName: __ZN4absl12lts_202401164Cord13ChunkIterator19AdvanceAndReadBytesEm.cold.1, symObjAddr: 0xBDC4, symBinAddr: 0x61144, symSize: 0x28 }
  - { offset: 0xBE579, size: 0x8, addend: 0x0, symName: __ZN4absl12lts_2024011613cord_internal21CordRepBtreeNavigator6NextUpEv, symObjAddr: 0x9D00, symBinAddr: 0x1A638, symSize: 0xEC }
  - { offset: 0xBE711, size: 0x8, addend: 0x0, symName: __ZN4absl12lts_202401164Cord13ChunkIteratorC2EPNS0_13cord_internal7CordRepE, symObjAddr: 0x9DEC, symBinAddr: 0x1A724, symSize: 0xDC }
  - { offset: 0xBE71C, size: 0x8, addend: 0x0, symName: __ZN4absl12lts_2024011613cord_internal18CordRepBtreeReader4NextEv.cold.7, symObjAddr: 0xBEFC, symBinAddr: 0x611FC, symSize: 0x28 }
  - { offset: 0xBE734, size: 0x8, addend: 0x0, symName: __ZN4absl12lts_2024011613cord_internal18CordRepBtreeReader4NextEv.cold.3, symObjAddr: 0xBE6C, symBinAddr: 0x611B4, symSize: 0x24 }
  - { offset: 0xBE761, size: 0x8, addend: 0x0, symName: __ZN4absl12lts_2024011613cord_internal18CordRepBtreeReader4NextEv.cold.2, symObjAddr: 0xBE48, symBinAddr: 0x61190, symSize: 0x24 }
  - { offset: 0xBE7A3, size: 0x8, addend: 0x0, symName: __ZN4absl12lts_2024011613cord_internal18CordRepBtreeReader4NextEv.cold.1, symObjAddr: 0xBE24, symBinAddr: 0x6116C, symSize: 0x24 }
  - { offset: 0xBE7E5, size: 0x8, addend: 0x0, symName: __ZN4absl12lts_2024011613cord_internal18CordRepBtreeReader4NextEv.cold.6, symObjAddr: 0xBED8, symBinAddr: 0x611D8, symSize: 0x24 }
  - { offset: 0xBE8CF, size: 0x8, addend: 0x0, symName: __ZNK4absl12lts_202401164CordixEm, symObjAddr: 0x5388, symBinAddr: 0x16E68, symSize: 0xD0 }
  - { offset: 0xBEB09, size: 0x8, addend: 0x0, symName: __ZNK4absl12lts_202401164Cord8FindImplENS1_12CharIteratorENS0_11string_viewE, symObjAddr: 0x5458, symBinAddr: 0x16F38, symSize: 0x3D4 }
  - { offset: 0xBEB3D, size: 0x8, addend: 0x0, symName: __ZNK4absl12lts_202401164CordixEm.cold.5, symObjAddr: 0xBFC0, symBinAddr: 0x6129C, symSize: 0x28 }
  - { offset: 0xBEB6B, size: 0x8, addend: 0x0, symName: __ZNK4absl12lts_202401164CordixEm.cold.1, symObjAddr: 0xBF24, symBinAddr: 0x61224, symSize: 0x28 }
  - { offset: 0xBEB83, size: 0x8, addend: 0x0, symName: __ZNK4absl12lts_202401164CordixEm.cold.4, symObjAddr: 0xBF98, symBinAddr: 0x61274, symSize: 0x28 }
  - { offset: 0xBEB9B, size: 0x8, addend: 0x0, symName: __ZNK4absl12lts_202401164CordixEm.cold.2, symObjAddr: 0xBF4C, symBinAddr: 0x6124C, symSize: 0x28 }
  - { offset: 0xBED67, size: 0x8, addend: 0x0, symName: __ZNK4absl12lts_202401164Cord8FindImplENS1_12CharIteratorENS0_11string_viewE, symObjAddr: 0x5458, symBinAddr: 0x16F38, symSize: 0x3D4 }
  - { offset: 0xBF58F, size: 0x8, addend: 0x0, symName: __ZN4absl12lts_2024011613cord_internal18CordRepBtreeReader4SeekEm, symObjAddr: 0x8974, symBinAddr: 0x19544, symSize: 0xEC }
  - { offset: 0xBF7C4, size: 0x8, addend: 0x0, symName: __ZN4absl12lts_2024011613cord_internal21CordRepBtreeNavigator4SeekEm, symObjAddr: 0x8A60, symBinAddr: 0x19630, symSize: 0x154 }
  - { offset: 0xBF7CF, size: 0x8, addend: 0x0, symName: __ZNK4absl12lts_202401164Cord8FindImplENS1_12CharIteratorENS0_11string_viewE.cold.5, symObjAddr: 0xC078, symBinAddr: 0x61330, symSize: 0x28 }
  - { offset: 0xBF7FD, size: 0x8, addend: 0x0, symName: __ZNK4absl12lts_202401164Cord8FindImplENS1_12CharIteratorENS0_11string_viewE.cold.4, symObjAddr: 0xC054, symBinAddr: 0x6130C, symSize: 0x24 }
  - { offset: 0xBF897, size: 0x8, addend: 0x0, symName: __ZNK4absl12lts_202401164Cord8FindImplENS1_12CharIteratorENS0_11string_viewE.cold.9, symObjAddr: 0xC10C, symBinAddr: 0x61358, symSize: 0x28 }
  - { offset: 0xBF925, size: 0x8, addend: 0x0, symName: __ZNK4absl12lts_202401164Cord8FindImplENS1_12CharIteratorENS0_11string_viewE.cold.1, symObjAddr: 0xBFE8, symBinAddr: 0x612C4, symSize: 0x24 }
  - { offset: 0xBF969, size: 0x8, addend: 0x0, symName: __ZNK4absl12lts_202401164Cord8FindImplENS1_12CharIteratorENS0_11string_viewE.cold.11, symObjAddr: 0xC15C, symBinAddr: 0x613A8, symSize: 0x28 }
  - { offset: 0xBF981, size: 0x8, addend: 0x0, symName: __ZNK4absl12lts_202401164Cord8FindImplENS1_12CharIteratorENS0_11string_viewE.cold.10, symObjAddr: 0xC134, symBinAddr: 0x61380, symSize: 0x28 }
  - { offset: 0xBF999, size: 0x8, addend: 0x0, symName: __ZNK4absl12lts_202401164Cord8FindImplENS1_12CharIteratorENS0_11string_viewE.cold.2, symObjAddr: 0xC00C, symBinAddr: 0x612E8, symSize: 0x24 }
  - { offset: 0xBFA6D, size: 0x8, addend: 0x0, symName: __ZNK4absl12lts_202401164Cord4FindENS0_11string_viewE, symObjAddr: 0x582C, symBinAddr: 0x1730C, symSize: 0x13C }
  - { offset: 0xBFF1A, size: 0x8, addend: 0x0, symName: __ZNK4absl12lts_202401164Cord4FindERKS1_, symObjAddr: 0x5968, symBinAddr: 0x17448, symSize: 0x4F4 }
  - { offset: 0xC0F6C, size: 0x8, addend: 0x0, symName: __ZN4absl12lts_2024011612_GLOBAL__N_117IsSubcordInCordAtENS0_4Cord12CharIteratorES3_S3_.cold.4, symObjAddr: 0xC280, symBinAddr: 0x613D0, symSize: 0x28 }
  - { offset: 0xC0FEF, size: 0x8, addend: 0x0, symName: __ZNK4absl12lts_202401164Cord8ContainsENS0_11string_viewE, symObjAddr: 0x601C, symBinAddr: 0x17AFC, symSize: 0x64 }
  - { offset: 0xC1094, size: 0x8, addend: 0x0, symName: __ZNK4absl12lts_202401164Cord8ContainsERKS1_, symObjAddr: 0x6080, symBinAddr: 0x17B60, symSize: 0x7C }
  - { offset: 0xC1314, size: 0x8, addend: 0x0, symName: __ZN4absl12lts_202401164Cord15FlattenSlowPathEv.cold.3, symObjAddr: 0xC314, symBinAddr: 0x613F8, symSize: 0x28 }
  - { offset: 0xC13C3, size: 0x8, addend: 0x0, symName: __ZN4absl12lts_202401164Cord15ForEachChunkAuxEPNS0_13cord_internal7CordRepENS0_11FunctionRefIFvNS0_11string_viewEEEE, symObjAddr: 0x62F4, symBinAddr: 0x17DD4, symSize: 0x154 }
  - { offset: 0xC16BD, size: 0x8, addend: 0x0, symName: __ZN4absl12lts_202401164Cord13ChunkIteratorC2EPNS0_13cord_internal7CordRepE, symObjAddr: 0x9DEC, symBinAddr: 0x1A724, symSize: 0xDC }
  - { offset: 0xC1934, size: 0x8, addend: 0x0, symName: __ZN4absl12lts_2024011616strings_internal25ResizeUninitializedTraitsINSt3__112basic_stringIcNS3_11char_traitsIcEENS3_9allocatorIcEEEEvE6ResizeEPS9_m, symObjAddr: 0x9EC8, symBinAddr: 0x1A800, symSize: 0xD8 }
  - { offset: 0xC1989, size: 0x8, addend: 0x0, symName: __ZN4absl12lts_202401164Cord15ForEachChunkAuxEPNS0_13cord_internal7CordRepENS0_11FunctionRefIFvNS0_11string_viewEEEE.cold.5, symObjAddr: 0xC3D0, symBinAddr: 0x61448, symSize: 0x28 }
  - { offset: 0xC19A1, size: 0x8, addend: 0x0, symName: __ZN4absl12lts_202401164Cord15ForEachChunkAuxEPNS0_13cord_internal7CordRepENS0_11FunctionRefIFvNS0_11string_viewEEEE.cold.4, symObjAddr: 0xC3A8, symBinAddr: 0x61420, symSize: 0x28 }
  - { offset: 0xC1A03, size: 0x8, addend: 0x0, symName: __ZN4absl12lts_2024011616strings_internal14CordTestAccess12FlatOverheadEv, symObjAddr: 0x652C, symBinAddr: 0x1800C, symSize: 0x8 }
  - { offset: 0xC1A1A, size: 0x8, addend: 0x0, symName: __ZN4absl12lts_2024011616strings_internal14CordTestAccess13MaxFlatLengthEv, symObjAddr: 0x6534, symBinAddr: 0x18014, symSize: 0x8 }
  - { offset: 0xC1A31, size: 0x8, addend: 0x0, symName: __ZN4absl12lts_2024011616strings_internal14CordTestAccess15FlatTagToLengthEh, symObjAddr: 0x653C, symBinAddr: 0x1801C, symSize: 0x44 }
  - { offset: 0xC1A5B, size: 0x8, addend: 0x0, symName: __ZN4absl12lts_2024011616strings_internal14CordTestAccess15FlatTagToLengthEh, symObjAddr: 0x653C, symBinAddr: 0x1801C, symSize: 0x44 }
  - { offset: 0xC1A77, size: 0x8, addend: 0x0, symName: __ZN4absl12lts_2024011616strings_internal14CordTestAccess15FlatTagToLengthEh, symObjAddr: 0x653C, symBinAddr: 0x1801C, symSize: 0x44 }
  - { offset: 0xC1A92, size: 0x8, addend: 0x0, symName: __ZN4absl12lts_2024011616strings_internal14CordTestAccess11LengthToTagEm, symObjAddr: 0x6580, symBinAddr: 0x18060, symSize: 0x190 }
  - { offset: 0xC20DF, size: 0x8, addend: 0x0, symName: __ZN4absl12lts_2024011616strings_internal14CordTestAccess11LengthToTagEm.cold.1, symObjAddr: 0xC464, symBinAddr: 0x61470, symSize: 0x24 }
  - { offset: 0xC210D, size: 0x8, addend: 0x0, symName: __ZN4absl12lts_2024011616strings_internal14CordTestAccess21SizeofCordRepExternalEv, symObjAddr: 0x6710, symBinAddr: 0x181F0, symSize: 0x8 }
  - { offset: 0xC2124, size: 0x8, addend: 0x0, symName: __ZN4absl12lts_2024011616strings_internal14CordTestAccess22SizeofCordRepSubstringEv, symObjAddr: 0x6718, symBinAddr: 0x181F8, symSize: 0x8 }
  - { offset: 0xC309C, size: 0x8, addend: 0x0, symName: __ZN4absl12lts_2024011613InlinedVectorIPNS0_13cord_internal7CordRepELm47ENSt3__19allocatorIS4_EEE8pop_backEv, symObjAddr: 0x7D04, symBinAddr: 0x18B78, symSize: 0x4C }
  - { offset: 0xC317E, size: 0x8, addend: 0x0, symName: __ZN4absl12lts_2024011613InlinedVectorIiLm47ENSt3__19allocatorIiEEE8pop_backEv, symObjAddr: 0x7D50, symBinAddr: 0x18BC4, symSize: 0x4C }
  - { offset: 0xC34CF, size: 0x8, addend: 0x0, symName: __ZN4absl12lts_2024011623inlined_vector_internal7StorageIPNS0_13cord_internal7CordRepELm2ENSt3__19allocatorIS5_EEE15EmplaceBackSlowIJRKS5_EEERS5_DpOT_, symObjAddr: 0x6F9C, symBinAddr: 0x18A6C, symSize: 0xD8 }
  - { offset: 0xC3C33, size: 0x8, addend: 0x0, symName: __ZN4absl12lts_2024011623inlined_vector_internal13MallocAdapterINSt3__19allocatorIPNS0_13cord_internal7CordRepEEELb0EE8AllocateERS8_m, symObjAddr: 0x7074, symBinAddr: 0x18B44, symSize: 0x34 }
  - { offset: 0xC4F8D, size: 0x8, addend: 0x0, symName: __ZN4absl12lts_2024011613cord_internal19CordRepExternalImplIZNS0_L17CordRepFromStringEONSt3__112basic_stringIcNS3_11char_traitsIcEENS3_9allocatorIcEEEEE14StringReleaserE7ReleaseEPNS1_15CordRepExternalE, symObjAddr: 0x8040, symBinAddr: 0x18C10, symSize: 0x70 }
  - { offset: 0xC5070, size: 0x8, addend: 0x0, symName: __ZN4absl12lts_2024011613cord_internal19CordRepExternalImplIZNS0_L17CordRepFromStringEONSt3__112basic_stringIcNS3_11char_traitsIcEENS3_9allocatorIcEEEEE14StringReleaserE7ReleaseEPNS1_15CordRepExternalE, symObjAddr: 0x8040, symBinAddr: 0x18C10, symSize: 0x70 }
  - { offset: 0xC530F, size: 0x8, addend: 0x0, symName: __ZN4absl12lts_2024011613cord_internal10InlineData15set_inline_dataEPKcm.cold.1, symObjAddr: 0xC4D8, symBinAddr: 0x61494, symSize: 0x28 }
  - { offset: 0xC533D, size: 0x8, addend: 0x0, symName: __ZN4absl12lts_2024011613cord_internal10InlineData18is_either_profiledERKS2_S4_.cold.1, symObjAddr: 0xC500, symBinAddr: 0x614BC, symSize: 0x28 }
  - { offset: 0xC538F, size: 0x8, addend: 0x0, symName: __ZN4absl12lts_2024011613cord_internal12CordRepBtree15GetAppendBufferEm.cold.1, symObjAddr: 0xC528, symBinAddr: 0x614E4, symSize: 0x28 }
  - { offset: 0xC53D1, size: 0x8, addend: 0x0, symName: __ZN4absl12lts_2024011613cord_internal12CordRepBtree15GetAppendBufferEm.cold.2, symObjAddr: 0xC550, symBinAddr: 0x6150C, symSize: 0x24 }
  - { offset: 0xC5490, size: 0x8, addend: 0x0, symName: __ZN4absl12lts_2024011613cord_internal11CordRepFlat6DeleteEPNS1_7CordRepE, symObjAddr: 0x8544, symBinAddr: 0x19114, symSize: 0x20 }
  - { offset: 0xC54C3, size: 0x8, addend: 0x0, symName: __ZN4absl12lts_202401168AlphaNumC2Em, symObjAddr: 0x8564, symBinAddr: 0x19134, symSize: 0x44 }
  - { offset: 0xC54CE, size: 0x8, addend: 0x0, symName: __ZN4absl12lts_2024011613cord_internal11CordRepFlat6DeleteEPNS1_7CordRepE.cold.1, symObjAddr: 0xC628, symBinAddr: 0x61530, symSize: 0x28 }
  - { offset: 0xC553E, size: 0x8, addend: 0x0, symName: __ZN4absl12lts_2024011613cord_internal18CordRepBtreeReader4InitEPNS1_12CordRepBtreeE, symObjAddr: 0x86C0, symBinAddr: 0x19290, symSize: 0xB0 }
  - { offset: 0xC571E, size: 0x8, addend: 0x0, symName: __ZN4absl12lts_2024011613cord_internal8EdgeDataEPKNS1_7CordRepE, symObjAddr: 0x8770, symBinAddr: 0x19340, symSize: 0x8C }
  - { offset: 0xC585D, size: 0x8, addend: 0x0, symName: __ZN4absl12lts_2024011613cord_internal21CordRepBtreeNavigator4InitILNS1_12CordRepBtree8EdgeTypeE0EEEPNS1_7CordRepEPS4_, symObjAddr: 0x87FC, symBinAddr: 0x193CC, symSize: 0xF4 }
  - { offset: 0xC5ADB, size: 0x8, addend: 0x0, symName: __ZN4absl12lts_202401164Cord13ChunkIterator17AdvanceBytesBtreeEm, symObjAddr: 0x88F0, symBinAddr: 0x194C0, symSize: 0x84 }
  - { offset: 0xC5AF0, size: 0x8, addend: 0x0, symName: __ZN4absl12lts_2024011613cord_internal18CordRepBtreeReader4InitEPNS1_12CordRepBtreeE.cold.5, symObjAddr: 0xC7B8, symBinAddr: 0x61558, symSize: 0x28 }
  - { offset: 0xC5CC0, size: 0x8, addend: 0x0, symName: __ZN4absl12lts_2024011613cord_internal21CordRepBtreeNavigator4InitILNS1_12CordRepBtree8EdgeTypeE0EEEPNS1_7CordRepEPS4_.cold.8, symObjAddr: 0xC998, symBinAddr: 0x615D0, symSize: 0x28 }
  - { offset: 0xC5CD8, size: 0x8, addend: 0x0, symName: __ZN4absl12lts_2024011613cord_internal21CordRepBtreeNavigator4InitILNS1_12CordRepBtree8EdgeTypeE0EEEPNS1_7CordRepEPS4_.cold.7, symObjAddr: 0xC970, symBinAddr: 0x615A8, symSize: 0x28 }
  - { offset: 0xC5CF0, size: 0x8, addend: 0x0, symName: __ZN4absl12lts_2024011613cord_internal21CordRepBtreeNavigator4InitILNS1_12CordRepBtree8EdgeTypeE0EEEPNS1_7CordRepEPS4_.cold.6, symObjAddr: 0xC948, symBinAddr: 0x61580, symSize: 0x28 }
  - { offset: 0xC5D46, size: 0x8, addend: 0x0, symName: __ZN4absl12lts_202401164Cord13ChunkIterator17AdvanceBytesBtreeEm.cold.2, symObjAddr: 0xC9E8, symBinAddr: 0x61620, symSize: 0x28 }
  - { offset: 0xC5D5E, size: 0x8, addend: 0x0, symName: __ZN4absl12lts_202401164Cord13ChunkIterator17AdvanceBytesBtreeEm.cold.1, symObjAddr: 0xC9C0, symBinAddr: 0x615F8, symSize: 0x28 }
  - { offset: 0xC5D8C, size: 0x8, addend: 0x0, symName: __ZN4absl12lts_2024011613cord_internal21CordRepBtreeNavigator4SeekEm, symObjAddr: 0x8A60, symBinAddr: 0x19630, symSize: 0x154 }
  - { offset: 0xC5FCF, size: 0x8, addend: 0x0, symName: __ZN4absl12lts_202401164CordD2Ev, symObjAddr: 0x8BB4, symBinAddr: 0x19784, symSize: 0x34 }
  - { offset: 0xC6106, size: 0x8, addend: 0x0, symName: __ZN4absl12lts_2024011613cord_internal21CordRepBtreeNavigator4SeekEm.cold.3, symObjAddr: 0xCB10, symBinAddr: 0x61648, symSize: 0x28 }
  - { offset: 0xC615B, size: 0x8, addend: 0x0, symName: __ZN4absl12lts_2024011613cord_internal21CordRepBtreeNavigator4SeekEm.cold.7, symObjAddr: 0xCBA4, symBinAddr: 0x61670, symSize: 0x28 }
  - { offset: 0xC61FD, size: 0x8, addend: 0x0, symName: __ZNSt3__15dequeIN4absl12lts_2024011612crc_internal12CrcCordState9PrefixCrcENS_9allocatorIS5_EEED2B8ne200100Ev, symObjAddr: 0x9C1C, symBinAddr: 0x1A554, symSize: 0x98 }
  - { offset: 0xC64BC, size: 0x8, addend: 0x0, symName: __ZN4absl12lts_2024011612crc_internal12CrcCordState5UnrefEPNS2_13RefcountedRepE.cold.1, symObjAddr: 0xCBCC, symBinAddr: 0x61698, symSize: 0x28 }
  - { offset: 0xC6550, size: 0x8, addend: 0x0, symName: __ZNSt3__15dequeIN4absl12lts_2024011612crc_internal12CrcCordState9PrefixCrcENS_9allocatorIS5_EEE6assignINS_16__deque_iteratorIS5_PKS5_RSB_PKSC_lLl256EEELi0EEEvT_SH_, symObjAddr: 0x8CC0, symBinAddr: 0x19890, symSize: 0x34 }
  - { offset: 0xC65D8, size: 0x8, addend: 0x0, symName: __ZNSt3__15dequeIN4absl12lts_2024011612crc_internal12CrcCordState9PrefixCrcENS_9allocatorIS5_EEE32__assign_with_size_random_accessB8ne200100INS_16__deque_iteratorIS5_PKS5_RSB_PKSC_lLl256EEEEEvT_l, symObjAddr: 0x8CF4, symBinAddr: 0x198C4, symSize: 0x11C }
  - { offset: 0xC6A2E, size: 0x8, addend: 0x0, symName: __ZNKSt3__116__deque_iteratorIN4absl12lts_2024011612crc_internal12CrcCordState9PrefixCrcEPKS5_RS6_PKS7_lLl256EEplB8ne200100El, symObjAddr: 0x8E10, symBinAddr: 0x199E0, symSize: 0x5C }
  - { offset: 0xC6AA3, size: 0x8, addend: 0x0, symName: __ZNSt3__15dequeIN4absl12lts_2024011612crc_internal12CrcCordState9PrefixCrcENS_9allocatorIS5_EEE18__append_with_sizeB8ne200100INS_16__deque_iteratorIS5_PKS5_RSB_PKSC_lLl256EEEEEvT_m, symObjAddr: 0x8E6C, symBinAddr: 0x19A3C, symSize: 0x134 }
  - { offset: 0xC6D1F, size: 0x8, addend: 0x0, symName: __ZNSt3__15dequeIN4absl12lts_2024011612crc_internal12CrcCordState9PrefixCrcENS_9allocatorIS5_EEE14__erase_to_endENS_16__deque_iteratorIS5_PKS5_RSA_PKSB_lLl256EEE, symObjAddr: 0x8FA0, symBinAddr: 0x19B70, symSize: 0xF0 }
  - { offset: 0xC7030, size: 0x8, addend: 0x0, symName: __ZNSt3__15dequeIN4absl12lts_2024011612crc_internal12CrcCordState9PrefixCrcENS_9allocatorIS5_EEE19__add_back_capacityEm, symObjAddr: 0x9218, symBinAddr: 0x19DE8, symSize: 0x2E8 }
  - { offset: 0xC7A73, size: 0x8, addend: 0x0, symName: __ZNSt3__15dequeIN4absl12lts_2024011612crc_internal12CrcCordState9PrefixCrcENS_9allocatorIS5_EEE25__maybe_remove_back_spareB8ne200100Eb, symObjAddr: 0x9BB0, symBinAddr: 0x1A4E8, symSize: 0x6C }
  - { offset: 0xC81DD, size: 0x8, addend: 0x0, symName: __ZNSt3__114__split_bufferIPN4absl12lts_2024011612crc_internal12CrcCordState9PrefixCrcENS_9allocatorIS6_EEE12emplace_backIJRS6_EEEvDpOT_, symObjAddr: 0x955C, symBinAddr: 0x1A0D0, symSize: 0x104 }
  - { offset: 0xC881D, size: 0x8, addend: 0x0, symName: __ZNSt3__114__split_bufferIPN4absl12lts_2024011612crc_internal12CrcCordState9PrefixCrcERNS_9allocatorIS6_EEE12emplace_backIJS6_EEEvDpOT_, symObjAddr: 0x986C, symBinAddr: 0x1A2DC, symSize: 0x104 }
  - { offset: 0xC8E3E, size: 0x8, addend: 0x0, symName: __ZNSt3__114__split_bufferIPN4absl12lts_2024011612crc_internal12CrcCordState9PrefixCrcERNS_9allocatorIS6_EEE13emplace_frontIJRS6_EEEvDpOT_, symObjAddr: 0x9A74, symBinAddr: 0x1A3E0, symSize: 0x108 }
  - { offset: 0xC923B, size: 0x8, addend: 0x0, symName: __ZNSt3__114__split_bufferIPN4absl12lts_2024011612crc_internal12CrcCordState9PrefixCrcENS_9allocatorIS6_EEE13emplace_frontIJS6_EEEvDpOT_, symObjAddr: 0x9764, symBinAddr: 0x1A1D4, symSize: 0x108 }
  - { offset: 0xC99E6, size: 0x8, addend: 0x0, symName: __ZNSt3__114__split_bufferIPN4absl12lts_2024011612crc_internal12CrcCordState9PrefixCrcENS_9allocatorIS6_EEED2Ev, symObjAddr: 0x9CB4, symBinAddr: 0x1A5EC, symSize: 0x4C }
  - { offset: 0xC9B5F, size: 0x8, addend: 0x0, symName: __ZN4absl12lts_2024011613cord_internal21CordRepBtreeNavigator6NextUpEv.cold.1, symObjAddr: 0xCBF4, symBinAddr: 0x616C0, symSize: 0x28 }
  - { offset: 0xC9F98, size: 0x8, addend: 0x0, symName: __ZNK4absl12lts_202401164Cord15CompareSlowPathENS0_11string_viewEmm.cold.5, symObjAddr: 0xCDD0, symBinAddr: 0x61710, symSize: 0x28 }
  - { offset: 0xC9FB0, size: 0x8, addend: 0x0, symName: __ZNK4absl12lts_202401164Cord15CompareSlowPathENS0_11string_viewEmm.cold.4, symObjAddr: 0xCDA8, symBinAddr: 0x616E8, symSize: 0x28 }
  - { offset: 0xCA061, size: 0x8, addend: 0x0, symName: __ZNK4absl12lts_202401164Cord9InlineRep18FindFlatStartPieceEv.cold.12, symObjAddr: 0xCF8C, symBinAddr: 0x617AC, symSize: 0x28 }
  - { offset: 0xCA0D8, size: 0x8, addend: 0x0, symName: __ZNK4absl12lts_202401164Cord9InlineRep18FindFlatStartPieceEv.cold.9, symObjAddr: 0xCF1C, symBinAddr: 0x61784, symSize: 0x28 }
  - { offset: 0xCA0F0, size: 0x8, addend: 0x0, symName: __ZNK4absl12lts_202401164Cord9InlineRep18FindFlatStartPieceEv.cold.1, symObjAddr: 0xCDF8, symBinAddr: 0x61738, symSize: 0x24 }
  - { offset: 0xCA13E, size: 0x8, addend: 0x0, symName: __ZNK4absl12lts_202401164Cord9InlineRep18FindFlatStartPieceEv.cold.5, symObjAddr: 0xCE88, symBinAddr: 0x6175C, symSize: 0x28 }
  - { offset: 0xCA1D3, size: 0x8, addend: 0x0, symName: __ZN4absl12lts_2024011612_GLOBAL__N_113CompareChunksEPNS0_11string_viewES3_Pm.cold.3, symObjAddr: 0xCFFC, symBinAddr: 0x617D4, symSize: 0x28 }
  - { offset: 0xCA342, size: 0x8, addend: 0x0, symName: __ZNK4absl12lts_202401164Cord15CompareSlowPathERKS1_mm.cold.8, symObjAddr: 0xD124, symBinAddr: 0x61824, symSize: 0x28 }
  - { offset: 0xCA35A, size: 0x8, addend: 0x0, symName: __ZNK4absl12lts_202401164Cord15CompareSlowPathERKS1_mm.cold.7, symObjAddr: 0xD0FC, symBinAddr: 0x617FC, symSize: 0x28 }
  - { offset: 0xCA41C, size: 0x8, addend: 0x0, symName: '__ZN4absl12lts_2024011613cord_internal19CordRepExternalImplIZNS0_4Cord15FlattenSlowPathEvE3$_0E7ReleaseEPNS1_15CordRepExternalE', symObjAddr: 0xA960, symBinAddr: 0x1B1F4, symSize: 0x68 }
  - { offset: 0xCA5D5, size: 0x8, addend: 0x0, symName: _OUTLINED_FUNCTION_0, symObjAddr: 0xD194, symBinAddr: 0x1B25C, symSize: 0xC }
  - { offset: 0xCA5ED, size: 0x8, addend: 0x0, symName: _OUTLINED_FUNCTION_2, symObjAddr: 0xD1A8, symBinAddr: 0x1B268, symSize: 0x8 }
  - { offset: 0xCA605, size: 0x8, addend: 0x0, symName: _OUTLINED_FUNCTION_3, symObjAddr: 0xD1B0, symBinAddr: 0x1B270, symSize: 0x8 }
  - { offset: 0xCA61D, size: 0x8, addend: 0x0, symName: _OUTLINED_FUNCTION_4, symObjAddr: 0xD1B8, symBinAddr: 0x1B278, symSize: 0x8 }
  - { offset: 0xCA635, size: 0x8, addend: 0x0, symName: _OUTLINED_FUNCTION_5, symObjAddr: 0xD1C0, symBinAddr: 0x1B280, symSize: 0x8 }
  - { offset: 0xCA64D, size: 0x8, addend: 0x0, symName: _OUTLINED_FUNCTION_6, symObjAddr: 0xD1C8, symBinAddr: 0x1B288, symSize: 0x8 }
  - { offset: 0xCA665, size: 0x8, addend: 0x0, symName: _OUTLINED_FUNCTION_7, symObjAddr: 0xD1D0, symBinAddr: 0x1B290, symSize: 0x8 }
  - { offset: 0xCA67D, size: 0x8, addend: 0x0, symName: _OUTLINED_FUNCTION_8, symObjAddr: 0xD1D8, symBinAddr: 0x1B298, symSize: 0x8 }
  - { offset: 0xCA695, size: 0x8, addend: 0x0, symName: _OUTLINED_FUNCTION_9, symObjAddr: 0xD1E0, symBinAddr: 0x1B2A0, symSize: 0x8 }
  - { offset: 0xCA6AD, size: 0x8, addend: 0x0, symName: _OUTLINED_FUNCTION_10, symObjAddr: 0xD1E8, symBinAddr: 0x1B2A8, symSize: 0x8 }
  - { offset: 0xCA6C5, size: 0x8, addend: 0x0, symName: _OUTLINED_FUNCTION_11, symObjAddr: 0xD1F0, symBinAddr: 0x1B2B0, symSize: 0x8 }
  - { offset: 0xCA6DD, size: 0x8, addend: 0x0, symName: _OUTLINED_FUNCTION_12, symObjAddr: 0xD1F8, symBinAddr: 0x1B2B8, symSize: 0x8 }
  - { offset: 0xCA6F5, size: 0x8, addend: 0x0, symName: _OUTLINED_FUNCTION_13, symObjAddr: 0xD200, symBinAddr: 0x1B2C0, symSize: 0x8 }
  - { offset: 0xCA70D, size: 0x8, addend: 0x0, symName: _OUTLINED_FUNCTION_14, symObjAddr: 0xD208, symBinAddr: 0x1B2C8, symSize: 0x8 }
  - { offset: 0xCA725, size: 0x8, addend: 0x0, symName: _OUTLINED_FUNCTION_15, symObjAddr: 0xD210, symBinAddr: 0x1B2D0, symSize: 0x8 }
  - { offset: 0xCA73D, size: 0x8, addend: 0x0, symName: _OUTLINED_FUNCTION_16, symObjAddr: 0xD218, symBinAddr: 0x1B2D8, symSize: 0x8 }
  - { offset: 0xCA755, size: 0x8, addend: 0x0, symName: _OUTLINED_FUNCTION_17, symObjAddr: 0xD220, symBinAddr: 0x1B2E0, symSize: 0x8 }
  - { offset: 0xCA76D, size: 0x8, addend: 0x0, symName: _OUTLINED_FUNCTION_18, symObjAddr: 0xD228, symBinAddr: 0x1B2E8, symSize: 0x8 }
  - { offset: 0xCA785, size: 0x8, addend: 0x0, symName: _OUTLINED_FUNCTION_19, symObjAddr: 0xD230, symBinAddr: 0x1B2F0, symSize: 0x8 }
  - { offset: 0xCA79D, size: 0x8, addend: 0x0, symName: _OUTLINED_FUNCTION_20, symObjAddr: 0xD238, symBinAddr: 0x1B2F8, symSize: 0x8 }
  - { offset: 0xCA7B5, size: 0x8, addend: 0x0, symName: _OUTLINED_FUNCTION_21, symObjAddr: 0xD240, symBinAddr: 0x1B300, symSize: 0x8 }
  - { offset: 0xCA7CD, size: 0x8, addend: 0x0, symName: _OUTLINED_FUNCTION_22, symObjAddr: 0xD248, symBinAddr: 0x1B308, symSize: 0x8 }
  - { offset: 0xCA7E5, size: 0x8, addend: 0x0, symName: _OUTLINED_FUNCTION_23, symObjAddr: 0xD250, symBinAddr: 0x1B310, symSize: 0xC }
  - { offset: 0xCA7FD, size: 0x8, addend: 0x0, symName: _OUTLINED_FUNCTION_24, symObjAddr: 0xD25C, symBinAddr: 0x1B31C, symSize: 0xC }
  - { offset: 0xCA815, size: 0x8, addend: 0x0, symName: _OUTLINED_FUNCTION_25, symObjAddr: 0xD268, symBinAddr: 0x1B328, symSize: 0x8 }
  - { offset: 0xCA82D, size: 0x8, addend: 0x0, symName: _OUTLINED_FUNCTION_26, symObjAddr: 0xD270, symBinAddr: 0x1B330, symSize: 0x8 }
  - { offset: 0xCA845, size: 0x8, addend: 0x0, symName: _OUTLINED_FUNCTION_27, symObjAddr: 0xD278, symBinAddr: 0x1B338, symSize: 0x8 }
  - { offset: 0xCA85D, size: 0x8, addend: 0x0, symName: _OUTLINED_FUNCTION_28, symObjAddr: 0xD280, symBinAddr: 0x1B340, symSize: 0x1C }
  - { offset: 0xCA875, size: 0x8, addend: 0x0, symName: _OUTLINED_FUNCTION_29, symObjAddr: 0xD29C, symBinAddr: 0x1B35C, symSize: 0x8 }
  - { offset: 0xCA88D, size: 0x8, addend: 0x0, symName: _OUTLINED_FUNCTION_30, symObjAddr: 0xD2A4, symBinAddr: 0x1B364, symSize: 0x8 }
  - { offset: 0xCA8A5, size: 0x8, addend: 0x0, symName: _OUTLINED_FUNCTION_31, symObjAddr: 0xD2AC, symBinAddr: 0x1B36C, symSize: 0xC }
  - { offset: 0xCA8BD, size: 0x8, addend: 0x0, symName: _OUTLINED_FUNCTION_32, symObjAddr: 0xD2B8, symBinAddr: 0x1B378, symSize: 0x8 }
  - { offset: 0xCC787, size: 0x8, addend: 0x0, symName: __ZN4absl12lts_2024011613cord_internal23GetEstimatedMemoryUsageEPKNS1_7CordRepE, symObjAddr: 0x0, symBinAddr: 0x1B380, symSize: 0x80 }
  - { offset: 0xCC907, size: 0x8, addend: 0x0, symName: __ZN4absl12lts_2024011613cord_internal12_GLOBAL__N_115AnalyzeDataEdgeILNS2_4ModeE1EEEvNS2_10CordRepRefIXT_EEERNS2_8RawUsageIXT_EEE, symObjAddr: 0x298, symBinAddr: 0x1B618, symSize: 0xBC }
  - { offset: 0xCCA0F, size: 0x8, addend: 0x0, symName: __ZN4absl12lts_2024011613cord_internal12_GLOBAL__N_112AnalyzeBtreeILNS2_4ModeE1EEEvNS2_10CordRepRefIXT_EEERNS2_8RawUsageIXT_EEE, symObjAddr: 0x354, symBinAddr: 0x1B6D4, symSize: 0xA4 }
  - { offset: 0xCCA24, size: 0x8, addend: 0x0, symName: __ZN4absl12lts_2024011613cord_internal12_GLOBAL__N_112AnalyzeBtreeILNS2_4ModeE1EEEvNS2_10CordRepRefIXT_EEERNS2_8RawUsageIXT_EEE, symObjAddr: 0x354, symBinAddr: 0x1B6D4, symSize: 0xA4 }
  - { offset: 0xCCC20, size: 0x8, addend: 0x0, symName: __ZN4absl12lts_2024011613cord_internal12_GLOBAL__N_115AnalyzeDataEdgeILNS2_4ModeE0EEEvNS2_10CordRepRefIXT_EEERNS2_8RawUsageIXT_EEE, symObjAddr: 0x3F8, symBinAddr: 0x1B778, symSize: 0xF0 }
  - { offset: 0xCCD48, size: 0x8, addend: 0x0, symName: __ZN4absl12lts_2024011613cord_internal12_GLOBAL__N_115AnalyzeDataEdgeILNS2_4ModeE0EEEvNS2_10CordRepRefIXT_EEERNS2_8RawUsageIXT_EEE, symObjAddr: 0x3F8, symBinAddr: 0x1B778, symSize: 0xF0 }
  - { offset: 0xCCF2B, size: 0x8, addend: 0x0, symName: __ZN4absl12lts_2024011613cord_internal12_GLOBAL__N_112AnalyzeBtreeILNS2_4ModeE0EEEvNS2_10CordRepRefIXT_EEERNS2_8RawUsageIXT_EEE, symObjAddr: 0x4E8, symBinAddr: 0x1B868, symSize: 0x114 }
  - { offset: 0xCCF40, size: 0x8, addend: 0x0, symName: __ZN4absl12lts_2024011613cord_internal12_GLOBAL__N_112AnalyzeBtreeILNS2_4ModeE0EEEvNS2_10CordRepRefIXT_EEERNS2_8RawUsageIXT_EEE, symObjAddr: 0x4E8, symBinAddr: 0x1B868, symSize: 0x114 }
  - { offset: 0xCD2F6, size: 0x8, addend: 0x0, symName: __ZN4absl12lts_2024011613cord_internal12_GLOBAL__N_115AnalyzeDataEdgeILNS2_4ModeE2EEEvNS2_10CordRepRefIXT_EEERNS2_8RawUsageIXT_EEE, symObjAddr: 0x5FC, symBinAddr: 0x1B97C, symSize: 0x124 }
  - { offset: 0xCD3A7, size: 0x8, addend: 0x0, symName: __ZN4absl12lts_2024011613cord_internal12_GLOBAL__N_115AnalyzeDataEdgeILNS2_4ModeE2EEEvNS2_10CordRepRefIXT_EEERNS2_8RawUsageIXT_EEE, symObjAddr: 0x5FC, symBinAddr: 0x1B97C, symSize: 0x124 }
  - { offset: 0xCD5C0, size: 0x8, addend: 0x0, symName: __ZN4absl12lts_2024011613cord_internal12_GLOBAL__N_112AnalyzeBtreeILNS2_4ModeE2EEEvNS2_10CordRepRefIXT_EEERNS2_8RawUsageIXT_EEE, symObjAddr: 0x720, symBinAddr: 0x1BAA0, symSize: 0xC8 }
  - { offset: 0xCD5D5, size: 0x8, addend: 0x0, symName: __ZN4absl12lts_2024011613cord_internal12_GLOBAL__N_112AnalyzeBtreeILNS2_4ModeE2EEEvNS2_10CordRepRefIXT_EEERNS2_8RawUsageIXT_EEE, symObjAddr: 0x720, symBinAddr: 0x1BAA0, symSize: 0xC8 }
  - { offset: 0xCD829, size: 0x8, addend: 0x0, symName: __ZNSt3__112__hash_tableIPKN4absl12lts_2024011613cord_internal7CordRepENS_4hashIS6_EENS_8equal_toIS6_EENS_9allocatorIS6_EEE25__emplace_unique_key_argsIS6_JRKS6_EEENS_4pairINS_15__hash_iteratorIPNS_11__hash_nodeIS6_PvEEEEbEERKT_DpOT0_, symObjAddr: 0x7E8, symBinAddr: 0x1BB68, symSize: 0x250 }
  - { offset: 0xCD85B, size: 0x8, addend: 0x0, symName: __ZN4absl12lts_2024011613cord_internal23GetEstimatedMemoryUsageEPKNS1_7CordRepE, symObjAddr: 0x0, symBinAddr: 0x1B380, symSize: 0x80 }
  - { offset: 0xCD95F, size: 0x8, addend: 0x0, symName: __ZN4absl12lts_2024011613cord_internal32GetEstimatedFairShareMemoryUsageEPKNS1_7CordRepE, symObjAddr: 0x80, symBinAddr: 0x1B400, symSize: 0xE0 }
  - { offset: 0xCD96A, size: 0x8, addend: 0x0, symName: __ZN4absl12lts_2024011613cord_internal32GetEstimatedFairShareMemoryUsageEPKNS1_7CordRepE, symObjAddr: 0x80, symBinAddr: 0x1B400, symSize: 0xE0 }
  - { offset: 0xCDC1E, size: 0x8, addend: 0x0, symName: __ZN4absl12lts_2024011613cord_internal25GetMorePreciseMemoryUsageEPKNS1_7CordRepE, symObjAddr: 0x160, symBinAddr: 0x1B4E0, symSize: 0x138 }
  - { offset: 0xCDC29, size: 0x8, addend: 0x0, symName: __ZN4absl12lts_2024011613cord_internal25GetMorePreciseMemoryUsageEPKNS1_7CordRepE, symObjAddr: 0x160, symBinAddr: 0x1B4E0, symSize: 0x138 }
  - { offset: 0xD1AD5, size: 0x8, addend: 0x0, symName: __ZN4absl12lts_2024011613cord_internal23GetEstimatedMemoryUsageEPKNS1_7CordRepE.cold.1, symObjAddr: 0xCD4, symBinAddr: 0x6184C, symSize: 0x28 }
  - { offset: 0xD1EFE, size: 0x8, addend: 0x0, symName: __ZNSt3__112__hash_tableIPKN4absl12lts_2024011613cord_internal7CordRepENS_4hashIS6_EENS_8equal_toIS6_EENS_9allocatorIS6_EEE25__emplace_unique_key_argsIS6_JRKS6_EEENS_4pairINS_15__hash_iteratorIPNS_11__hash_nodeIS6_PvEEEEbEERKT_DpOT0_, symObjAddr: 0x7E8, symBinAddr: 0x1BB68, symSize: 0x250 }
  - { offset: 0xD259C, size: 0x8, addend: 0x0, symName: __ZNSt3__112__hash_tableIPKN4absl12lts_2024011613cord_internal7CordRepENS_4hashIS6_EENS_8equal_toIS6_EENS_9allocatorIS6_EEED2Ev, symObjAddr: 0xC8C, symBinAddr: 0x1BFE4, symSize: 0x48 }
  - { offset: 0xD2833, size: 0x8, addend: 0x0, symName: __ZN4absl12lts_2024011613cord_internal12_GLOBAL__N_115AnalyzeDataEdgeILNS2_4ModeE1EEEvNS2_10CordRepRefIXT_EEERNS2_8RawUsageIXT_EEE.cold.1, symObjAddr: 0xD24, symBinAddr: 0x61874, symSize: 0x24 }
  - { offset: 0xD28FE, size: 0x8, addend: 0x0, symName: __ZN4absl12lts_2024011613cord_internal12_GLOBAL__N_112AnalyzeBtreeILNS2_4ModeE1EEEvNS2_10CordRepRefIXT_EEERNS2_8RawUsageIXT_EEE.cold.1, symObjAddr: 0xD90, symBinAddr: 0x61898, symSize: 0x24 }
  - { offset: 0xD29D1, size: 0x8, addend: 0x0, symName: __ZN4absl12lts_2024011613cord_internal12_GLOBAL__N_115AnalyzeDataEdgeILNS2_4ModeE2EEEvNS2_10CordRepRefIXT_EEERNS2_8RawUsageIXT_EEE.cold.2, symObjAddr: 0xE68, symBinAddr: 0x618BC, symSize: 0x28 }
  - { offset: 0xD2F14, size: 0x8, addend: 0x0, symName: __ZNSt3__112__hash_tableIPKN4absl12lts_2024011613cord_internal7CordRepENS_4hashIS6_EENS_8equal_toIS6_EENS_9allocatorIS6_EEE8__rehashILb1EEEvm, symObjAddr: 0xA60, symBinAddr: 0x1BDB8, symSize: 0xDC }
  - { offset: 0xD3009, size: 0x8, addend: 0x0, symName: __ZNSt3__112__hash_tableIPKN4absl12lts_2024011613cord_internal7CordRepENS_4hashIS6_EENS_8equal_toIS6_EENS_9allocatorIS6_EEE11__do_rehashILb1EEEvm, symObjAddr: 0xB3C, symBinAddr: 0x1BE94, symSize: 0x150 }
  - { offset: 0xD3404, size: 0x8, addend: 0x0, symName: __ZNSt3__112__hash_tableIPKN4absl12lts_2024011613cord_internal7CordRepENS_4hashIS6_EENS_8equal_toIS6_EENS_9allocatorIS6_EEED2Ev, symObjAddr: 0xC8C, symBinAddr: 0x1BFE4, symSize: 0x48 }
  - { offset: 0xD35CC, size: 0x8, addend: 0x0, symName: _OUTLINED_FUNCTION_1, symObjAddr: 0xF04, symBinAddr: 0x1C02C, symSize: 0x8 }
  - { offset: 0xD35E4, size: 0x8, addend: 0x0, symName: _OUTLINED_FUNCTION_2, symObjAddr: 0xF0C, symBinAddr: 0x1C034, symSize: 0x8 }
  - { offset: 0xD54BA, size: 0x8, addend: 0x0, symName: __ZN4absl12lts_2024011610CordBuffer13kDefaultLimitE, symObjAddr: 0x0, symBinAddr: 0x6A4E8, symSize: 0x0 }
  - { offset: 0xD54CE, size: 0x8, addend: 0x0, symName: __ZN4absl12lts_2024011610CordBuffer12kCustomLimitE, symObjAddr: 0x8, symBinAddr: 0x6A4F0, symSize: 0x0 }
  - { offset: 0xD7F7B, size: 0x8, addend: 0x0, symName: __ZN4absl12lts_2024011613cord_internal16LogFatalNodeTypeEPNS1_7CordRepE, symObjAddr: 0x0, symBinAddr: 0x1C03C, symSize: 0xC0 }
  - { offset: 0xD7FA4, size: 0x8, addend: 0x0, symName: __ZN4absl12lts_2024011613cord_internal24shallow_subcords_enabledE, symObjAddr: 0x28E66, symBinAddr: 0x84300, symSize: 0x0 }
  - { offset: 0xD7FB2, size: 0x8, addend: 0x0, symName: __ZN4absl12lts_2024011613cord_internal16LogFatalNodeTypeEPNS1_7CordRepE, symObjAddr: 0x0, symBinAddr: 0x1C03C, symSize: 0xC0 }
  - { offset: 0xDB19D, size: 0x8, addend: 0x0, symName: __ZN4absl12lts_202401168AlphaNumC2Ei, symObjAddr: 0x1C4, symBinAddr: 0x1C1E0, symSize: 0x44 }
  - { offset: 0xDB256, size: 0x8, addend: 0x0, symName: __ZN4absl12lts_2024011613cord_internal7CordRep7DestroyEPS2_.cold.1, symObjAddr: 0x208, symBinAddr: 0x618E4, symSize: 0x28 }
  - { offset: 0xDB358, size: 0x8, addend: 0x0, symName: __ZN4absl12lts_2024011613cord_internal7CordRep7DestroyEPS2_, symObjAddr: 0xC0, symBinAddr: 0x1C0FC, symSize: 0xE4 }
  - { offset: 0xDB4F9, size: 0x8, addend: 0x0, symName: __ZN4absl12lts_2024011613cord_internal7CordRep7DestroyEPS2_.cold.1, symObjAddr: 0x208, symBinAddr: 0x618E4, symSize: 0x28 }
  - { offset: 0xDB532, size: 0x8, addend: 0x0, symName: __ZN4absl12lts_202401168AlphaNumC2Ei, symObjAddr: 0x1C4, symBinAddr: 0x1C1E0, symSize: 0x44 }
  - { offset: 0xDB53D, size: 0x8, addend: 0x0, symName: __ZN4absl12lts_2024011613cord_internal7CordRep7DestroyEPS2_.cold.2, symObjAddr: 0x230, symBinAddr: 0x6190C, symSize: 0x28 }
  - { offset: 0xDB56A, size: 0x8, addend: 0x0, symName: __ZN4absl12lts_2024011613cord_internal7CordRep7DestroyEPS2_.cold.5, symObjAddr: 0x2A8, symBinAddr: 0x61984, symSize: 0x28 }
  - { offset: 0xDB582, size: 0x8, addend: 0x0, symName: __ZN4absl12lts_2024011613cord_internal7CordRep7DestroyEPS2_.cold.3, symObjAddr: 0x258, symBinAddr: 0x61934, symSize: 0x28 }
  - { offset: 0xDB5AF, size: 0x8, addend: 0x0, symName: __ZN4absl12lts_2024011613cord_internal7CordRep7DestroyEPS2_.cold.4, symObjAddr: 0x280, symBinAddr: 0x6195C, symSize: 0x28 }
  - { offset: 0xDD57E, size: 0x8, addend: 0x0, symName: __ZN4absl12lts_2024011613cord_internal12CordRepBtree12kMaxCapacityE, symObjAddr: 0x8B40, symBinAddr: 0x6A4F8, symSize: 0x0 }
  - { offset: 0xDE1A0, size: 0x8, addend: 0x0, symName: __ZN4absl12lts_2024011613cord_internal12_GLOBAL__N_132cord_btree_exhaustive_validationE.0, symObjAddr: 0x74625, symBinAddr: 0x84340, symSize: 0x0 }
  - { offset: 0xDE55C, size: 0x8, addend: 0x0, symName: __ZN4absl12lts_2024011613cord_internal12_GLOBAL__N_17DumpAllEPKNS1_7CordRepEbRNSt3__113basic_ostreamIcNS6_11char_traitsIcEEEEm, symObjAddr: 0x1B08, symBinAddr: 0x1DD2C, symSize: 0x6A4 }
  - { offset: 0xE00B9, size: 0x8, addend: 0x0, symName: __ZN4absl12lts_2024011613cord_internal12_GLOBAL__N_114DeleteLeafEdgeEPNS1_7CordRepE, symObjAddr: 0x2468, symBinAddr: 0x1E68C, symSize: 0x10C }
  - { offset: 0xE02AA, size: 0x8, addend: 0x0, symName: __ZN4absl12lts_2024011613cord_internal12CordRepBtree7IsValidEPKS2_b, symObjAddr: 0x2574, symBinAddr: 0x1E798, symSize: 0x3C8 }
  - { offset: 0xE0331, size: 0x8, addend: 0x0, symName: __ZN4absl12lts_2024011613cord_internal12_GLOBAL__N_115CreateSubstringEPNS1_7CordRepEmm, symObjAddr: 0x5814, symBinAddr: 0x21358, symSize: 0xF4 }
  - { offset: 0xE06AB, size: 0x8, addend: 0x0, symName: __ZN4absl12lts_2024011613cord_internal12_GLOBAL__N_115StackOperationsILNS1_12CordRepBtree8EdgeTypeE1EE8FinalizeEPS4_NS4_8OpResultE, symObjAddr: 0x5908, symBinAddr: 0x2144C, symSize: 0xFC }
  - { offset: 0xE06B6, size: 0x8, addend: 0x0, symName: __ZN4absl12lts_2024011613cord_internal12_GLOBAL__N_110ResizeEdgeEPNS1_7CordRepEmb, symObjAddr: 0x374C, symBinAddr: 0x1F920, symSize: 0x84 }
  - { offset: 0xE074F, size: 0x8, addend: 0x0, symName: __ZN4absl12lts_2024011613cord_internal12CordRepBtree7SubTreeEmm, symObjAddr: 0x37D0, symBinAddr: 0x1F9A4, symSize: 0x47C }
  - { offset: 0xE07C5, size: 0x8, addend: 0x0, symName: __ZN4absl12lts_2024011613cord_internal32SetCordBtreeExhaustiveValidationEb, symObjAddr: 0x1A28, symBinAddr: 0x1DC4C, symSize: 0xC }
  - { offset: 0xE07F6, size: 0x8, addend: 0x0, symName: __ZN4absl12lts_2024011613cord_internal32SetCordBtreeExhaustiveValidationEb, symObjAddr: 0x1A28, symBinAddr: 0x1DC4C, symSize: 0xC }
  - { offset: 0xE081D, size: 0x8, addend: 0x0, symName: __ZN4absl12lts_2024011613cord_internal32SetCordBtreeExhaustiveValidationEb, symObjAddr: 0x1A28, symBinAddr: 0x1DC4C, symSize: 0xC }
  - { offset: 0xE083E, size: 0x8, addend: 0x0, symName: __ZN4absl12lts_2024011613cord_internal38IsCordBtreeExhaustiveValidationEnabledEv, symObjAddr: 0x1A34, symBinAddr: 0x1DC58, symSize: 0x10 }
  - { offset: 0xE0855, size: 0x8, addend: 0x0, symName: __ZN4absl12lts_2024011613cord_internal38IsCordBtreeExhaustiveValidationEnabledEv, symObjAddr: 0x1A34, symBinAddr: 0x1DC58, symSize: 0x10 }
  - { offset: 0xE0870, size: 0x8, addend: 0x0, symName: __ZN4absl12lts_2024011613cord_internal38IsCordBtreeExhaustiveValidationEnabledEv, symObjAddr: 0x1A34, symBinAddr: 0x1DC58, symSize: 0x10 }
  - { offset: 0xE15D4, size: 0x8, addend: 0x0, symName: __ZN4absl12lts_2024011613AbslStringifyINS0_16strings_internal13StringifySinkEEEvRT_NS0_3HexE, symObjAddr: 0x5308, symBinAddr: 0x21294, symSize: 0xC4 }
  - { offset: 0xE1800, size: 0x8, addend: 0x0, symName: '__ZN4absl12lts_2024011619functional_internal12InvokeObjectIZNS0_13cord_internal12CordRepBtree10CreateSlowEPNS3_7CordRepEE3$_0vJS6_mmEEET0_NS1_7VoidPtrEDpNS1_8ForwardTIT1_E4typeE', symObjAddr: 0x5B00, symBinAddr: 0x21644, symSize: 0x100 }
  - { offset: 0xE1C09, size: 0x8, addend: 0x0, symName: '__ZN4absl12lts_2024011619functional_internal12InvokeObjectIZNS0_13cord_internal12CordRepBtree10AppendSlowEPS4_PNS3_7CordRepEE3$_0vJS7_mmEEET0_NS1_7VoidPtrEDpNS1_8ForwardTIT1_E4typeE', symObjAddr: 0x5C00, symBinAddr: 0x21744, symSize: 0x98 }
  - { offset: 0xE1DC6, size: 0x8, addend: 0x0, symName: '__ZN4absl12lts_2024011619functional_internal12InvokeObjectIZNS0_13cord_internal12CordRepBtree11PrependSlowEPS4_PNS3_7CordRepEE3$_0vJS7_mmEEET0_NS1_7VoidPtrEDpNS1_8ForwardTIT1_E4typeE', symObjAddr: 0x5C98, symBinAddr: 0x217DC, symSize: 0x98 }
  - { offset: 0xE60B4, size: 0x8, addend: 0x0, symName: __ZN4absl12lts_2024011613cord_internal12CordRepBtree10CreateSlowEPNS1_7CordRepE, symObjAddr: 0x49A4, symBinAddr: 0x20AB0, symSize: 0x40 }
  - { offset: 0xE6131, size: 0x8, addend: 0x0, symName: __ZN4absl12lts_2024011613cord_internal12CordRepBtree10CreateSlowEPNS1_7CordRepE, symObjAddr: 0x49A4, symBinAddr: 0x20AB0, symSize: 0x40 }
  - { offset: 0xE6170, size: 0x8, addend: 0x0, symName: __ZN4absl12lts_2024011613cord_internal12CordRepBtree10AppendSlowEPS2_PNS1_7CordRepE, symObjAddr: 0x49E4, symBinAddr: 0x20AF0, symSize: 0x5C }
  - { offset: 0xE6233, size: 0x8, addend: 0x0, symName: __ZN4absl12lts_2024011613cord_internal12CordRepBtree11PrependSlowEPS2_PNS1_7CordRepE, symObjAddr: 0x4A40, symBinAddr: 0x20B4C, symSize: 0x60 }
  - { offset: 0xE649F, size: 0x8, addend: 0x0, symName: __ZN4absl12lts_2024011613cord_internal12CordRepBtree10AddCordRepILNS2_8EdgeTypeE0EEEPS2_S5_PNS1_7CordRepE, symObjAddr: 0x0, symBinAddr: 0x1C224, symSize: 0x1F0 }
  - { offset: 0xE6842, size: 0x8, addend: 0x0, symName: __ZN4absl12lts_2024011613cord_internal12CordRepBtree7AddEdgeILNS2_8EdgeTypeE0EEENS2_8OpResultEbPNS1_7CordRepEm, symObjAddr: 0x1F0, symBinAddr: 0x1C414, symSize: 0x1AC }
  - { offset: 0xE6F4A, size: 0x8, addend: 0x0, symName: __ZN4absl12lts_2024011613cord_internal12CordRepBtree10AddCordRepILNS2_8EdgeTypeE1EEEPS2_S5_PNS1_7CordRepE, symObjAddr: 0x39C, symBinAddr: 0x1C5C0, symSize: 0x1F0 }
  - { offset: 0xE6F5F, size: 0x8, addend: 0x0, symName: __ZN4absl12lts_2024011613cord_internal12CordRepBtree7SetEdgeILNS2_8EdgeTypeE0EEENS2_8OpResultEbPNS1_7CordRepEm, symObjAddr: 0x5D30, symBinAddr: 0x21874, symSize: 0x134 }
  - { offset: 0xE73FD, size: 0x8, addend: 0x0, symName: __ZN4absl12lts_2024011613cord_internal12_GLOBAL__N_115StackOperationsILNS1_12CordRepBtree8EdgeTypeE0EE8FinalizeEPS4_NS4_8OpResultE, symObjAddr: 0x5A04, symBinAddr: 0x21548, symSize: 0xFC }
  - { offset: 0xE7714, size: 0x8, addend: 0x0, symName: '__ZN4absl12lts_2024011619functional_internal12InvokeObjectIZNS0_13cord_internal12CordRepBtree10CreateSlowEPNS3_7CordRepEE3$_0vJS6_mmEEET0_NS1_7VoidPtrEDpNS1_8ForwardTIT1_E4typeE', symObjAddr: 0x5B00, symBinAddr: 0x21644, symSize: 0x100 }
  - { offset: 0xE7CAC, size: 0x8, addend: 0x0, symName: __ZN4absl12lts_2024011613cord_internal12CordRepBtree10AddCordRepILNS2_8EdgeTypeE1EEEPS2_S5_PNS1_7CordRepE, symObjAddr: 0x39C, symBinAddr: 0x1C5C0, symSize: 0x1F0 }
  - { offset: 0xE804F, size: 0x8, addend: 0x0, symName: __ZN4absl12lts_2024011613cord_internal12CordRepBtree7AddEdgeILNS2_8EdgeTypeE1EEENS2_8OpResultEbPNS1_7CordRepEm, symObjAddr: 0x58C, symBinAddr: 0x1C7B0, symSize: 0x178 }
  - { offset: 0xE86CE, size: 0x8, addend: 0x0, symName: __ZN4absl12lts_2024011613cord_internal12CordRepBtree7SetEdgeILNS2_8EdgeTypeE1EEENS2_8OpResultEbPNS1_7CordRepEm, symObjAddr: 0x5E64, symBinAddr: 0x219A8, symSize: 0x148 }
  - { offset: 0xE8B64, size: 0x8, addend: 0x0, symName: __ZN4absl12lts_2024011613cord_internal12_GLOBAL__N_115StackOperationsILNS1_12CordRepBtree8EdgeTypeE1EE8FinalizeEPS4_NS4_8OpResultE, symObjAddr: 0x5908, symBinAddr: 0x2144C, symSize: 0xFC }
  - { offset: 0xE8E7B, size: 0x8, addend: 0x0, symName: __ZN4absl12lts_2024011613cord_internal12_GLOBAL__N_115StackOperationsILNS1_12CordRepBtree8EdgeTypeE0EE8FinalizeEPS4_NS4_8OpResultE, symObjAddr: 0x5A04, symBinAddr: 0x21548, symSize: 0xFC }
  - { offset: 0xE8F4B, size: 0x8, addend: 0x0, symName: __ZN4absl12lts_2024011613cord_internal12CordRepBtree7AddEdgeILNS2_8EdgeTypeE1EEENS2_8OpResultEbPNS1_7CordRepEm.cold.2, symObjAddr: 0x6084, symBinAddr: 0x619AC, symSize: 0x54 }
  - { offset: 0xE90A8, size: 0x8, addend: 0x0, symName: __ZN4absl12lts_2024011613cord_internal12CordRepBtree7AddDataILNS2_8EdgeTypeE0EEEPS2_S5_NS0_11string_viewEm, symObjAddr: 0x704, symBinAddr: 0x1C928, symSize: 0x6FC }
  - { offset: 0xE9B8E, size: 0x8, addend: 0x0, symName: __ZN4absl12lts_2024011613cord_internal12CordRepBtree7AddDataILNS2_8EdgeTypeE0EEENS0_11string_viewES5_m, symObjAddr: 0xE00, symBinAddr: 0x1D024, symSize: 0x170 }
  - { offset: 0xE9BE1, size: 0x8, addend: 0x0, symName: __ZN4absl12lts_2024011613cord_internal12CordRepBtree7AddDataILNS2_8EdgeTypeE0EEENS0_11string_viewES5_m, symObjAddr: 0xE00, symBinAddr: 0x1D024, symSize: 0x170 }
  - { offset: 0xE9E7D, size: 0x8, addend: 0x0, symName: __ZN4absl12lts_2024011613cord_internal12CordRepBtree7NewLeafILNS2_8EdgeTypeE0EEEPS2_NS0_11string_viewEm, symObjAddr: 0xF70, symBinAddr: 0x1D194, symSize: 0x12C }
  - { offset: 0xE9E92, size: 0x8, addend: 0x0, symName: __ZN4absl12lts_2024011613cord_internal12CordRepBtree7NewLeafILNS2_8EdgeTypeE0EEEPS2_NS0_11string_viewEm, symObjAddr: 0xF70, symBinAddr: 0x1D194, symSize: 0x12C }
  - { offset: 0xEA2BE, size: 0x8, addend: 0x0, symName: __ZNK4absl12lts_2024011613cord_internal12CordRepBtree12GetCharacterEm, symObjAddr: 0x4714, symBinAddr: 0x20820, symSize: 0xF8 }
  - { offset: 0xEA2C9, size: 0x8, addend: 0x0, symName: __ZN4absl12lts_2024011613cord_internal12CordRepBtree7AddDataILNS2_8EdgeTypeE0EEEPS2_S5_NS0_11string_viewEm.cold.6, symObjAddr: 0x6190, symBinAddr: 0x61A4C, symSize: 0x28 }
  - { offset: 0xEA317, size: 0x8, addend: 0x0, symName: __ZN4absl12lts_2024011613cord_internal12CordRepBtree7AddDataILNS2_8EdgeTypeE0EEEPS2_S5_NS0_11string_viewEm.cold.9, symObjAddr: 0x6204, symBinAddr: 0x61A9C, symSize: 0x28 }
  - { offset: 0xEA345, size: 0x8, addend: 0x0, symName: __ZN4absl12lts_2024011613cord_internal12CordRepBtree7AddDataILNS2_8EdgeTypeE0EEEPS2_S5_NS0_11string_viewEm.cold.8, symObjAddr: 0x61DC, symBinAddr: 0x61A74, symSize: 0x28 }
  - { offset: 0xEA39E, size: 0x8, addend: 0x0, symName: __ZN4absl12lts_2024011613cord_internal12CordRepBtree7AddDataILNS2_8EdgeTypeE0EEEPS2_S5_NS0_11string_viewEm.cold.5, symObjAddr: 0x616C, symBinAddr: 0x61A28, symSize: 0x24 }
  - { offset: 0xEA3B6, size: 0x8, addend: 0x0, symName: __ZN4absl12lts_2024011613cord_internal12CordRepBtree7AddDataILNS2_8EdgeTypeE0EEEPS2_S5_NS0_11string_viewEm.cold.4, symObjAddr: 0x6144, symBinAddr: 0x61A00, symSize: 0x28 }
  - { offset: 0xEA5A6, size: 0x8, addend: 0x0, symName: __ZN4absl12lts_2024011613cord_internal12_GLOBAL__N_115CreateSubstringEPNS1_7CordRepEmm, symObjAddr: 0x5814, symBinAddr: 0x21358, symSize: 0xF4 }
  - { offset: 0xEA5C2, size: 0x8, addend: 0x0, symName: __ZN4absl12lts_2024011613cord_internal12CordRepBtree7AddDataILNS2_8EdgeTypeE0EEENS0_11string_viewES5_m.cold.2, symObjAddr: 0x6254, symBinAddr: 0x61AEC, symSize: 0x28 }
  - { offset: 0xEA5DA, size: 0x8, addend: 0x0, symName: __ZN4absl12lts_2024011613cord_internal12CordRepBtree7AddDataILNS2_8EdgeTypeE0EEENS0_11string_viewES5_m.cold.1, symObjAddr: 0x622C, symBinAddr: 0x61AC4, symSize: 0x28 }
  - { offset: 0xEA6FE, size: 0x8, addend: 0x0, symName: __ZN4absl12lts_2024011613cord_internal12CordRepBtree7AddDataILNS2_8EdgeTypeE1EEEPS2_S5_NS0_11string_viewEm, symObjAddr: 0x109C, symBinAddr: 0x1D2C0, symSize: 0x70C }
  - { offset: 0xEB1E5, size: 0x8, addend: 0x0, symName: __ZN4absl12lts_2024011613cord_internal12CordRepBtree7AddDataILNS2_8EdgeTypeE1EEENS0_11string_viewES5_m, symObjAddr: 0x17A8, symBinAddr: 0x1D9CC, symSize: 0x14C }
  - { offset: 0xEB238, size: 0x8, addend: 0x0, symName: __ZN4absl12lts_2024011613cord_internal12CordRepBtree7AddDataILNS2_8EdgeTypeE1EEENS0_11string_viewES5_m, symObjAddr: 0x17A8, symBinAddr: 0x1D9CC, symSize: 0x14C }
  - { offset: 0xEB4E5, size: 0x8, addend: 0x0, symName: __ZN4absl12lts_2024011613cord_internal12CordRepBtree7NewLeafILNS2_8EdgeTypeE1EEEPS2_NS0_11string_viewEm, symObjAddr: 0x18F4, symBinAddr: 0x1DB18, symSize: 0x134 }
  - { offset: 0xEB91D, size: 0x8, addend: 0x0, symName: __ZN4absl12lts_2024011613cord_internal12CordRepBtree7AddDataILNS2_8EdgeTypeE1EEENS0_11string_viewES5_m.cold.2, symObjAddr: 0x63F8, symBinAddr: 0x61B3C, symSize: 0x28 }
  - { offset: 0xEB935, size: 0x8, addend: 0x0, symName: __ZN4absl12lts_2024011613cord_internal12CordRepBtree7AddDataILNS2_8EdgeTypeE1EEENS0_11string_viewES5_m.cold.1, symObjAddr: 0x63D0, symBinAddr: 0x61B14, symSize: 0x28 }
  - { offset: 0xEB9B9, size: 0x8, addend: 0x0, symName: __ZN4absl12lts_2024011613cord_internal12CordRepBtree4DumpEPKNS1_7CordRepENS0_11string_viewEbRNSt3__113basic_ostreamIcNS7_11char_traitsIcEEEE, symObjAddr: 0x1A44, symBinAddr: 0x1DC68, symSize: 0xC4 }
  - { offset: 0xEC18E, size: 0x8, addend: 0x0, symName: __ZN4absl12lts_2024011613AbslStringifyINS0_16strings_internal13StringifySinkEEEvRT_NS0_3HexE, symObjAddr: 0x5308, symBinAddr: 0x21294, symSize: 0xC4 }
  - { offset: 0xEC39B, size: 0x8, addend: 0x0, symName: __ZN4absl12lts_2024011613cord_internal12_GLOBAL__N_17DumpAllEPKNS1_7CordRepEbRNSt3__113basic_ostreamIcNS6_11char_traitsIcEEEEm.cold.1, symObjAddr: 0x6420, symBinAddr: 0x61B64, symSize: 0x28 }
  - { offset: 0xEC3D0, size: 0x8, addend: 0x0, symName: __ZN4absl12lts_2024011613cord_internal12CordRepBtree4DumpEPKNS1_7CordRepENS0_11string_viewERNSt3__113basic_ostreamIcNS7_11char_traitsIcEEEE, symObjAddr: 0x21AC, symBinAddr: 0x1E3D0, symSize: 0xC }
  - { offset: 0xEC441, size: 0x8, addend: 0x0, symName: __ZN4absl12lts_2024011613cord_internal12CordRepBtree4DumpEPKNS1_7CordRepERNSt3__113basic_ostreamIcNS6_11char_traitsIcEEEE, symObjAddr: 0x21B8, symBinAddr: 0x1E3DC, symSize: 0x14 }
  - { offset: 0xEC502, size: 0x8, addend: 0x0, symName: __ZN4absl12lts_2024011613cord_internal12CordRepBtree7DestroyEPS2_, symObjAddr: 0x21CC, symBinAddr: 0x1E3F0, symSize: 0x29C }
  - { offset: 0xECC30, size: 0x8, addend: 0x0, symName: __ZN4absl12lts_2024011613cord_internal12_GLOBAL__N_114DeleteLeafEdgeEPNS1_7CordRepE, symObjAddr: 0x2468, symBinAddr: 0x1E68C, symSize: 0x10C }
  - { offset: 0xECC3B, size: 0x8, addend: 0x0, symName: __ZN4absl12lts_2024011613cord_internal12CordRepBtree7DestroyEPS2_.cold.3, symObjAddr: 0x6490, symBinAddr: 0x61B8C, symSize: 0x24 }
  - { offset: 0xECDFA, size: 0x8, addend: 0x0, symName: __ZN4absl12lts_2024011613cord_internal12_GLOBAL__N_114DeleteLeafEdgeEPNS1_7CordRepE.cold.8, symObjAddr: 0x66BC, symBinAddr: 0x61C00, symSize: 0x28 }
  - { offset: 0xECE27, size: 0x8, addend: 0x0, symName: __ZN4absl12lts_2024011613cord_internal12_GLOBAL__N_114DeleteLeafEdgeEPNS1_7CordRepE.cold.1, symObjAddr: 0x65B0, symBinAddr: 0x61BB0, symSize: 0x28 }
  - { offset: 0xECEA3, size: 0x8, addend: 0x0, symName: __ZN4absl12lts_2024011613cord_internal12_GLOBAL__N_114DeleteLeafEdgeEPNS1_7CordRepE.cold.2, symObjAddr: 0x65D8, symBinAddr: 0x61BD8, symSize: 0x28 }
  - { offset: 0xECF04, size: 0x8, addend: 0x0, symName: __ZN4absl12lts_2024011613cord_internal12CordRepBtree7IsValidEPKS2_b, symObjAddr: 0x2574, symBinAddr: 0x1E798, symSize: 0x3C8 }
  - { offset: 0xED827, size: 0x8, addend: 0x0, symName: __ZN4absl12lts_2024011613cord_internal12CordRepBtree11AssertValidEPS2_b, symObjAddr: 0x293C, symBinAddr: 0x1EB60, symSize: 0x30 }
  - { offset: 0xED87D, size: 0x8, addend: 0x0, symName: __ZN4absl12lts_2024011613cord_internal12CordRepBtree11AssertValidEPKS2_b, symObjAddr: 0x296C, symBinAddr: 0x1EB90, symSize: 0x30 }
  - { offset: 0xED88F, size: 0x8, addend: 0x0, symName: __ZN4absl12lts_2024011613cord_internal12CordRepBtree11AssertValidEPS2_b.cold.1, symObjAddr: 0x6708, symBinAddr: 0x61C28, symSize: 0x58 }
  - { offset: 0xED8A7, size: 0x8, addend: 0x0, symName: __ZN4absl12lts_2024011613cord_internal12CordRepBtree11AssertValidEPKS2_b, symObjAddr: 0x296C, symBinAddr: 0x1EB90, symSize: 0x30 }
  - { offset: 0xED8FD, size: 0x8, addend: 0x0, symName: __ZN4absl12lts_2024011613cord_internal12CordRepBtree10CopySuffixEm, symObjAddr: 0x299C, symBinAddr: 0x1EBC0, symSize: 0x364 }
  - { offset: 0xED90F, size: 0x8, addend: 0x0, symName: __ZN4absl12lts_2024011613cord_internal12CordRepBtree11AssertValidEPKS2_b.cold.1, symObjAddr: 0x6760, symBinAddr: 0x61C80, symSize: 0x58 }
  - { offset: 0xED9F1, size: 0x8, addend: 0x0, symName: __ZN4absl12lts_2024011613cord_internal12CordRepBtree10CopySuffixEm, symObjAddr: 0x299C, symBinAddr: 0x1EBC0, symSize: 0x364 }
  - { offset: 0xEE689, size: 0x8, addend: 0x0, symName: __ZN4absl12lts_2024011613cord_internal12CordRepBtree10CopyPrefixEmb, symObjAddr: 0x2D00, symBinAddr: 0x1EF24, symSize: 0x41C }
  - { offset: 0xEE6E9, size: 0x8, addend: 0x0, symName: __ZN4absl12lts_2024011613cord_internal12CordRepBtree10CopySuffixEm.cold.10, symObjAddr: 0x6908, symBinAddr: 0x61D50, symSize: 0x28 }
  - { offset: 0xEE740, size: 0x8, addend: 0x0, symName: __ZN4absl12lts_2024011613cord_internal12CordRepBtree10CopySuffixEm.cold.8, symObjAddr: 0x68BC, symBinAddr: 0x61D28, symSize: 0x28 }
  - { offset: 0xEE76E, size: 0x8, addend: 0x0, symName: __ZN4absl12lts_2024011613cord_internal12CordRepBtree10CopySuffixEm.cold.6, symObjAddr: 0x6870, symBinAddr: 0x61D00, symSize: 0x28 }
  - { offset: 0xEE79C, size: 0x8, addend: 0x0, symName: __ZN4absl12lts_2024011613cord_internal12CordRepBtree10CopySuffixEm.cold.1, symObjAddr: 0x67B8, symBinAddr: 0x61CD8, symSize: 0x28 }
  - { offset: 0xEE878, size: 0x8, addend: 0x0, symName: __ZN4absl12lts_2024011613cord_internal12CordRepBtree10CopyPrefixEmb, symObjAddr: 0x2D00, symBinAddr: 0x1EF24, symSize: 0x41C }
  - { offset: 0xEF57D, size: 0x8, addend: 0x0, symName: __ZN4absl12lts_2024011613cord_internal12CordRepBtree12ExtractFrontEPS2_, symObjAddr: 0x311C, symBinAddr: 0x1F340, symSize: 0x130 }
  - { offset: 0xEF61C, size: 0x8, addend: 0x0, symName: __ZN4absl12lts_2024011613cord_internal12CordRepBtree10CopyPrefixEmb.cold.11, symObjAddr: 0x6AE8, symBinAddr: 0x61DC0, symSize: 0x24 }
  - { offset: 0xEF64A, size: 0x8, addend: 0x0, symName: __ZN4absl12lts_2024011613cord_internal12CordRepBtree10CopyPrefixEmb.cold.10, symObjAddr: 0x6AC4, symBinAddr: 0x61D9C, symSize: 0x24 }
  - { offset: 0xEF68D, size: 0x8, addend: 0x0, symName: __ZN4absl12lts_2024011613cord_internal12CordRepBtree10CopyPrefixEmb.cold.17, symObjAddr: 0x6BC4, symBinAddr: 0x61E0C, symSize: 0x28 }
  - { offset: 0xEF6A5, size: 0x8, addend: 0x0, symName: __ZN4absl12lts_2024011613cord_internal12CordRepBtree10CopyPrefixEmb.cold.16, symObjAddr: 0x6B9C, symBinAddr: 0x61DE4, symSize: 0x28 }
  - { offset: 0xEF6BD, size: 0x8, addend: 0x0, symName: __ZN4absl12lts_2024011613cord_internal12CordRepBtree10CopyPrefixEmb.cold.2, symObjAddr: 0x69A4, symBinAddr: 0x61D78, symSize: 0x24 }
  - { offset: 0xEF805, size: 0x8, addend: 0x0, symName: __ZN4absl12lts_2024011613cord_internal12CordRepBtree12ExtractFrontEPS2_, symObjAddr: 0x311C, symBinAddr: 0x1F340, symSize: 0x130 }
  - { offset: 0xEFBA1, size: 0x8, addend: 0x0, symName: __ZN4absl12lts_2024011613cord_internal12CordRepBtree12ExtractFrontEPS2_.cold.4, symObjAddr: 0x6C58, symBinAddr: 0x61E34, symSize: 0x24 }
  - { offset: 0xEFC95, size: 0x8, addend: 0x0, symName: __ZN4absl12lts_2024011613cord_internal12CordRepBtree14ConsumeBeginToEPS2_mm, symObjAddr: 0x329C, symBinAddr: 0x1F470, symSize: 0x1CC }
  - { offset: 0xF030A, size: 0x8, addend: 0x0, symName: __ZN4absl12lts_2024011613cord_internal12CordRepBtree14ConsumeBeginToEPS2_mm.cold.9, symObjAddr: 0x6E0C, symBinAddr: 0x61E80, symSize: 0x28 }
  - { offset: 0xF034C, size: 0x8, addend: 0x0, symName: __ZN4absl12lts_2024011613cord_internal12CordRepBtree14ConsumeBeginToEPS2_mm.cold.7, symObjAddr: 0x6DC0, symBinAddr: 0x61E58, symSize: 0x28 }
  - { offset: 0xF0400, size: 0x8, addend: 0x0, symName: __ZN4absl12lts_2024011613cord_internal12CordRepBtree12RemoveSuffixEPS2_m, symObjAddr: 0x3468, symBinAddr: 0x1F63C, symSize: 0x2E4 }
  - { offset: 0xF0AE6, size: 0x8, addend: 0x0, symName: __ZN4absl12lts_2024011613cord_internal12CordRepBtree12RemoveSuffixEPS2_m.cold.3, symObjAddr: 0x6E7C, symBinAddr: 0x61EA8, symSize: 0x28 }
  - { offset: 0xF0B13, size: 0x8, addend: 0x0, symName: __ZN4absl12lts_2024011613cord_internal12CordRepBtree12RemoveSuffixEPS2_m.cold.9, symObjAddr: 0x6F58, symBinAddr: 0x61ED0, symSize: 0x24 }
  - { offset: 0xF0B6B, size: 0x8, addend: 0x0, symName: __ZN4absl12lts_2024011613cord_internal12CordRepBtree12RemoveSuffixEPS2_m.cold.14, symObjAddr: 0x7010, symBinAddr: 0x61F1C, symSize: 0x28 }
  - { offset: 0xF0B83, size: 0x8, addend: 0x0, symName: __ZN4absl12lts_2024011613cord_internal12CordRepBtree12RemoveSuffixEPS2_m.cold.13, symObjAddr: 0x6FE8, symBinAddr: 0x61EF4, symSize: 0x28 }
  - { offset: 0xF0C0F, size: 0x8, addend: 0x0, symName: __ZN4absl12lts_2024011613cord_internal12_GLOBAL__N_110ResizeEdgeEPNS1_7CordRepEmb.cold.3, symObjAddr: 0x7088, symBinAddr: 0x61F94, symSize: 0x28 }
  - { offset: 0xF0C27, size: 0x8, addend: 0x0, symName: __ZN4absl12lts_2024011613cord_internal12_GLOBAL__N_110ResizeEdgeEPNS1_7CordRepEmb.cold.2, symObjAddr: 0x7060, symBinAddr: 0x61F6C, symSize: 0x28 }
  - { offset: 0xF0C3F, size: 0x8, addend: 0x0, symName: __ZN4absl12lts_2024011613cord_internal12_GLOBAL__N_110ResizeEdgeEPNS1_7CordRepEmb.cold.1, symObjAddr: 0x7038, symBinAddr: 0x61F44, symSize: 0x28 }
  - { offset: 0xF0C93, size: 0x8, addend: 0x0, symName: __ZN4absl12lts_2024011613cord_internal12CordRepBtree7SubTreeEmm, symObjAddr: 0x37D0, symBinAddr: 0x1F9A4, symSize: 0x47C }
  - { offset: 0xF1A99, size: 0x8, addend: 0x0, symName: __ZN4absl12lts_2024011613cord_internal12CordRepBtree10MergeTreesEPS2_S3_, symObjAddr: 0x3C4C, symBinAddr: 0x1FE20, symSize: 0x28 }
  - { offset: 0xF1AE3, size: 0x8, addend: 0x0, symName: __ZN4absl12lts_2024011613cord_internal12CordRepBtree7SubTreeEmm.cold.13, symObjAddr: 0x726C, symBinAddr: 0x62030, symSize: 0x28 }
  - { offset: 0xF1AFB, size: 0x8, addend: 0x0, symName: __ZN4absl12lts_2024011613cord_internal12CordRepBtree7SubTreeEmm.cold.12, symObjAddr: 0x7244, symBinAddr: 0x62008, symSize: 0x28 }
  - { offset: 0xF1B52, size: 0x8, addend: 0x0, symName: __ZN4absl12lts_2024011613cord_internal12CordRepBtree7SubTreeEmm.cold.9, symObjAddr: 0x71D4, symBinAddr: 0x61FE4, symSize: 0x24 }
  - { offset: 0xF1BD4, size: 0x8, addend: 0x0, symName: __ZN4absl12lts_2024011613cord_internal12CordRepBtree7SubTreeEmm.cold.4, symObjAddr: 0x711C, symBinAddr: 0x61FBC, symSize: 0x28 }
  - { offset: 0xF1BEC, size: 0x8, addend: 0x0, symName: __ZN4absl12lts_2024011613cord_internal12CordRepBtree10MergeTreesEPS2_S3_, symObjAddr: 0x3C4C, symBinAddr: 0x1FE20, symSize: 0x28 }
  - { offset: 0xF1C78, size: 0x8, addend: 0x0, symName: __ZN4absl12lts_2024011613cord_internal12CordRepBtree5MergeILNS2_8EdgeTypeE0EEEPS2_S5_S5_, symObjAddr: 0x4058, symBinAddr: 0x2022C, symSize: 0x424 }
  - { offset: 0xF27DE, size: 0x8, addend: 0x0, symName: __ZN4absl12lts_2024011613cord_internal12CordRepBtree5MergeILNS2_8EdgeTypeE1EEEPS2_S5_S5_, symObjAddr: 0x3C74, symBinAddr: 0x1FE48, symSize: 0x3E4 }
  - { offset: 0xF3391, size: 0x8, addend: 0x0, symName: __ZN4absl12lts_2024011613cord_internal12CordRepBtree5MergeILNS2_8EdgeTypeE1EEEPS2_S5_S5_.cold.7, symObjAddr: 0x739C, symBinAddr: 0x62058, symSize: 0x28 }
  - { offset: 0xF352C, size: 0x8, addend: 0x0, symName: __ZNK4absl12lts_2024011613cord_internal12CordRepBtree6IsFlatEPNS0_11string_viewE, symObjAddr: 0x447C, symBinAddr: 0x20650, symSize: 0x64 }
  - { offset: 0xF3629, size: 0x8, addend: 0x0, symName: __ZNK4absl12lts_2024011613cord_internal12CordRepBtree6IsFlatEmmPNS0_11string_viewE, symObjAddr: 0x44E0, symBinAddr: 0x206B4, symSize: 0x16C }
  - { offset: 0xF3708, size: 0x8, addend: 0x0, symName: __ZNK4absl12lts_2024011613cord_internal12CordRepBtree6IsFlatEmmPNS0_11string_viewE, symObjAddr: 0x44E0, symBinAddr: 0x206B4, symSize: 0x16C }
  - { offset: 0xF3AAC, size: 0x8, addend: 0x0, symName: __ZNK4absl12lts_2024011613cord_internal12CordRepBtree6IsFlatEmmPNS0_11string_viewE.cold.10, symObjAddr: 0x7614, symBinAddr: 0x620F8, symSize: 0x28 }
  - { offset: 0xF3AC4, size: 0x8, addend: 0x0, symName: __ZNK4absl12lts_2024011613cord_internal12CordRepBtree6IsFlatEmmPNS0_11string_viewE.cold.9, symObjAddr: 0x75EC, symBinAddr: 0x620D0, symSize: 0x28 }
  - { offset: 0xF3ADC, size: 0x8, addend: 0x0, symName: __ZNK4absl12lts_2024011613cord_internal12CordRepBtree6IsFlatEmmPNS0_11string_viewE.cold.5, symObjAddr: 0x7554, symBinAddr: 0x62080, symSize: 0x28 }
  - { offset: 0xF3B0A, size: 0x8, addend: 0x0, symName: __ZNK4absl12lts_2024011613cord_internal12CordRepBtree6IsFlatEmmPNS0_11string_viewE.cold.8, symObjAddr: 0x75C4, symBinAddr: 0x620A8, symSize: 0x28 }
  - { offset: 0xF3D26, size: 0x8, addend: 0x0, symName: __ZNK4absl12lts_2024011613cord_internal12CordRepBtree12GetCharacterEm, symObjAddr: 0x4714, symBinAddr: 0x20820, symSize: 0xF8 }
  - { offset: 0xF3F91, size: 0x8, addend: 0x0, symName: __ZN4absl12lts_2024011613cord_internal12CordRepBtree19GetAppendBufferSlowEm, symObjAddr: 0x480C, symBinAddr: 0x20918, symSize: 0x198 }
  - { offset: 0xF3FF0, size: 0x8, addend: 0x0, symName: __ZNK4absl12lts_2024011613cord_internal12CordRepBtree12GetCharacterEm.cold.1, symObjAddr: 0x7734, symBinAddr: 0x62120, symSize: 0x28 }
  - { offset: 0xF4008, size: 0x8, addend: 0x0, symName: __ZNK4absl12lts_2024011613cord_internal12CordRepBtree12GetCharacterEm.cold.3, symObjAddr: 0x7780, symBinAddr: 0x62148, symSize: 0x28 }
  - { offset: 0xF4076, size: 0x8, addend: 0x0, symName: __ZNK4absl12lts_2024011613cord_internal12CordRepBtree12GetCharacterEm.cold.5, symObjAddr: 0x77CC, symBinAddr: 0x62170, symSize: 0x28 }
  - { offset: 0xF40BA, size: 0x8, addend: 0x0, symName: __ZN4absl12lts_2024011613cord_internal12CordRepBtree19GetAppendBufferSlowEm, symObjAddr: 0x480C, symBinAddr: 0x20918, symSize: 0x198 }
  - { offset: 0xF446B, size: 0x8, addend: 0x0, symName: __ZN4absl12lts_2024011613cord_internal12CordRepBtree19GetAppendBufferSlowEm.cold.4, symObjAddr: 0x78F4, symBinAddr: 0x621C0, symSize: 0x28 }
  - { offset: 0xF4483, size: 0x8, addend: 0x0, symName: __ZN4absl12lts_2024011613cord_internal12CordRepBtree19GetAppendBufferSlowEm.cold.1, symObjAddr: 0x7884, symBinAddr: 0x62198, symSize: 0x28 }
  - { offset: 0xF4500, size: 0x8, addend: 0x0, symName: __ZN4absl12lts_2024011613cord_internal12CordRepBtree6AppendEPS2_NS0_11string_viewEm, symObjAddr: 0x4AA0, symBinAddr: 0x20BAC, symSize: 0x4 }
  - { offset: 0xF4542, size: 0x8, addend: 0x0, symName: __ZN4absl12lts_2024011613cord_internal12CordRepBtree6AppendEPS2_NS0_11string_viewEm, symObjAddr: 0x4AA0, symBinAddr: 0x20BAC, symSize: 0x4 }
  - { offset: 0xF456A, size: 0x8, addend: 0x0, symName: __ZN4absl12lts_2024011613cord_internal12CordRepBtree7PrependEPS2_NS0_11string_viewEm, symObjAddr: 0x4AA4, symBinAddr: 0x20BB0, symSize: 0x4 }
  - { offset: 0xF45AC, size: 0x8, addend: 0x0, symName: __ZN4absl12lts_2024011613cord_internal12CordRepBtree7PrependEPS2_NS0_11string_viewEm, symObjAddr: 0x4AA4, symBinAddr: 0x20BB0, symSize: 0x4 }
  - { offset: 0xF4652, size: 0x8, addend: 0x0, symName: __ZN4absl12lts_2024011613cord_internal12CordRepBtree7RebuildEPPS2_S3_b, symObjAddr: 0x4AA8, symBinAddr: 0x20BB4, symSize: 0x3E8 }
  - { offset: 0xF5419, size: 0x8, addend: 0x0, symName: __ZN4absl12lts_2024011613cord_internal12CordRepBtree7RebuildEPPS2_S3_b.cold.3, symObjAddr: 0x7964, symBinAddr: 0x621E8, symSize: 0x24 }
  - { offset: 0xF547C, size: 0x8, addend: 0x0, symName: __ZN4absl12lts_2024011613cord_internal12CordRepBtree7RebuildEPS2_, symObjAddr: 0x4E90, symBinAddr: 0x20F9C, symSize: 0xD8 }
  - { offset: 0xF5733, size: 0x8, addend: 0x0, symName: __ZN4absl12lts_2024011613cord_internal12CordRepBtree7RebuildEPS2_.cold.1, symObjAddr: 0x79D0, symBinAddr: 0x6220C, symSize: 0x28 }
  - { offset: 0xF5761, size: 0x8, addend: 0x0, symName: __ZN4absl12lts_2024011613cord_internal12CordRepBtree19ExtractAppendBufferEPS2_m, symObjAddr: 0x4F68, symBinAddr: 0x21074, symSize: 0x220 }
  - { offset: 0xF6198, size: 0x8, addend: 0x0, symName: __ZN4absl12lts_2024011613cord_internal12_GLOBAL__N_115CreateSubstringEPNS1_7CordRepEmm.cold.6, symObjAddr: 0x7BBC, symBinAddr: 0x622AC, symSize: 0x28 }
  - { offset: 0xF61B0, size: 0x8, addend: 0x0, symName: __ZN4absl12lts_2024011613cord_internal12_GLOBAL__N_115CreateSubstringEPNS1_7CordRepEmm.cold.5, symObjAddr: 0x7B94, symBinAddr: 0x62284, symSize: 0x28 }
  - { offset: 0xF61C8, size: 0x8, addend: 0x0, symName: __ZN4absl12lts_2024011613cord_internal12_GLOBAL__N_115CreateSubstringEPNS1_7CordRepEmm.cold.4, symObjAddr: 0x7B6C, symBinAddr: 0x6225C, symSize: 0x28 }
  - { offset: 0xF61F4, size: 0x8, addend: 0x0, symName: __ZN4absl12lts_2024011613cord_internal12_GLOBAL__N_115CreateSubstringEPNS1_7CordRepEmm.cold.1, symObjAddr: 0x7AFC, symBinAddr: 0x62234, symSize: 0x28 }
  - { offset: 0xF622B, size: 0x8, addend: 0x0, symName: __ZN4absl12lts_2024011613cord_internal12_GLOBAL__N_115StackOperationsILNS1_12CordRepBtree8EdgeTypeE1EE8FinalizeEPS4_NS4_8OpResultE.cold.4, symObjAddr: 0x7C50, symBinAddr: 0x622D4, symSize: 0x78 }
  - { offset: 0xF62BB, size: 0x8, addend: 0x0, symName: __ZN4absl12lts_2024011613cord_internal12_GLOBAL__N_115StackOperationsILNS1_12CordRepBtree8EdgeTypeE1EE8FinalizeEPS4_NS4_8OpResultE.cold.5, symObjAddr: 0x7CC8, symBinAddr: 0x6234C, symSize: 0x28 }
  - { offset: 0xF6713, size: 0x8, addend: 0x0, symName: _OUTLINED_FUNCTION_4, symObjAddr: 0x7FCC, symBinAddr: 0x21AF0, symSize: 0x8 }
  - { offset: 0xF672B, size: 0x8, addend: 0x0, symName: _OUTLINED_FUNCTION_8, symObjAddr: 0x7FEC, symBinAddr: 0x21AF8, symSize: 0x8 }
  - { offset: 0xF6743, size: 0x8, addend: 0x0, symName: _OUTLINED_FUNCTION_9, symObjAddr: 0x7FF4, symBinAddr: 0x21B00, symSize: 0x8 }
  - { offset: 0xF675B, size: 0x8, addend: 0x0, symName: _OUTLINED_FUNCTION_10, symObjAddr: 0x7FFC, symBinAddr: 0x21B08, symSize: 0x8 }
  - { offset: 0xF6773, size: 0x8, addend: 0x0, symName: _OUTLINED_FUNCTION_12, symObjAddr: 0x800C, symBinAddr: 0x21B10, symSize: 0x18 }
  - { offset: 0xF678B, size: 0x8, addend: 0x0, symName: _OUTLINED_FUNCTION_13, symObjAddr: 0x8024, symBinAddr: 0x21B28, symSize: 0x8 }
  - { offset: 0xF67A3, size: 0x8, addend: 0x0, symName: _OUTLINED_FUNCTION_14, symObjAddr: 0x802C, symBinAddr: 0x21B30, symSize: 0x8 }
  - { offset: 0xF67BB, size: 0x8, addend: 0x0, symName: _OUTLINED_FUNCTION_15, symObjAddr: 0x8034, symBinAddr: 0x21B38, symSize: 0x8 }
  - { offset: 0xF67D3, size: 0x8, addend: 0x0, symName: _OUTLINED_FUNCTION_16, symObjAddr: 0x803C, symBinAddr: 0x21B40, symSize: 0xC }
  - { offset: 0xF67EB, size: 0x8, addend: 0x0, symName: _OUTLINED_FUNCTION_17, symObjAddr: 0x8048, symBinAddr: 0x21B4C, symSize: 0xC }
  - { offset: 0xF6803, size: 0x8, addend: 0x0, symName: _OUTLINED_FUNCTION_18, symObjAddr: 0x8054, symBinAddr: 0x21B58, symSize: 0xC }
  - { offset: 0xF681B, size: 0x8, addend: 0x0, symName: _OUTLINED_FUNCTION_19, symObjAddr: 0x8060, symBinAddr: 0x21B64, symSize: 0x8 }
  - { offset: 0xF86EC, size: 0x8, addend: 0x0, symName: __ZN4absl12lts_2024011613cord_internal21CordRepBtreeNavigator4SkipEm, symObjAddr: 0x0, symBinAddr: 0x21B6C, symSize: 0x18C }
  - { offset: 0xF939D, size: 0x8, addend: 0x0, symName: __ZN4absl12lts_2024011613cord_internal12_GLOBAL__N_19SubstringEPNS1_7CordRepEmm, symObjAddr: 0x550, symBinAddr: 0x220BC, symSize: 0x104 }
  - { offset: 0xF9862, size: 0x8, addend: 0x0, symName: __ZN4absl12lts_2024011613cord_internal21CordRepBtreeNavigator4SkipEm, symObjAddr: 0x0, symBinAddr: 0x21B6C, symSize: 0x18C }
  - { offset: 0xF9A5C, size: 0x8, addend: 0x0, symName: __ZN4absl12lts_2024011613cord_internal21CordRepBtreeNavigator4ReadEmm, symObjAddr: 0x18C, symBinAddr: 0x21CF8, symSize: 0x3C4 }
  - { offset: 0xF9A67, size: 0x8, addend: 0x0, symName: __ZN4absl12lts_2024011613cord_internal21CordRepBtreeNavigator4SkipEm.cold.5, symObjAddr: 0x6E8, symBinAddr: 0x6239C, symSize: 0x28 }
  - { offset: 0xF9ACF, size: 0x8, addend: 0x0, symName: __ZN4absl12lts_2024011613cord_internal21CordRepBtreeNavigator4SkipEm.cold.3, symObjAddr: 0x69C, symBinAddr: 0x62374, symSize: 0x28 }
  - { offset: 0xF9E32, size: 0x8, addend: 0x0, symName: __ZN4absl12lts_2024011613cord_internal21CordRepBtreeNavigator4ReadEmm, symObjAddr: 0x18C, symBinAddr: 0x21CF8, symSize: 0x3C4 }
  - { offset: 0xFAA81, size: 0x8, addend: 0x0, symName: __ZN4absl12lts_2024011613cord_internal21CordRepBtreeNavigator4ReadEmm.cold.2, symObjAddr: 0x77C, symBinAddr: 0x623C4, symSize: 0x28 }
  - { offset: 0xFAAC1, size: 0x8, addend: 0x0, symName: __ZN4absl12lts_2024011613cord_internal21CordRepBtreeNavigator4ReadEmm.cold.3, symObjAddr: 0x7A4, symBinAddr: 0x623EC, symSize: 0x28 }
  - { offset: 0xFAB59, size: 0x8, addend: 0x0, symName: __ZN4absl12lts_2024011613cord_internal12_GLOBAL__N_19SubstringEPNS1_7CordRepEmm.cold.5, symObjAddr: 0x96C, symBinAddr: 0x624B4, symSize: 0x28 }
  - { offset: 0xFAB71, size: 0x8, addend: 0x0, symName: __ZN4absl12lts_2024011613cord_internal12_GLOBAL__N_19SubstringEPNS1_7CordRepEmm.cold.1, symObjAddr: 0x8CC, symBinAddr: 0x62414, symSize: 0x28 }
  - { offset: 0xFAB89, size: 0x8, addend: 0x0, symName: __ZN4absl12lts_2024011613cord_internal12_GLOBAL__N_19SubstringEPNS1_7CordRepEmm.cold.4, symObjAddr: 0x944, symBinAddr: 0x6248C, symSize: 0x28 }
  - { offset: 0xFABA1, size: 0x8, addend: 0x0, symName: __ZN4absl12lts_2024011613cord_internal12_GLOBAL__N_19SubstringEPNS1_7CordRepEmm.cold.2, symObjAddr: 0x8F4, symBinAddr: 0x6243C, symSize: 0x28 }
  - { offset: 0xFABB9, size: 0x8, addend: 0x0, symName: __ZN4absl12lts_2024011613cord_internal12_GLOBAL__N_19SubstringEPNS1_7CordRepEmm.cold.3, symObjAddr: 0x91C, symBinAddr: 0x62464, symSize: 0x28 }
  - { offset: 0xFCA64, size: 0x8, addend: 0x0, symName: __ZN4absl12lts_2024011613cord_internal18CordRepBtreeReader4ReadEmmRPNS1_7CordRepE, symObjAddr: 0x0, symBinAddr: 0x221C0, symSize: 0x20C }
  - { offset: 0xFDAD8, size: 0x8, addend: 0x0, symName: __ZN4absl12lts_2024011613cord_internal18CordRepBtreeReader4ReadEmmRPNS1_7CordRepE, symObjAddr: 0x0, symBinAddr: 0x221C0, symSize: 0x20C }
  - { offset: 0xFE0EF, size: 0x8, addend: 0x0, symName: __ZN4absl12lts_2024011613cord_internal18CordRepBtreeReader4ReadEmmRPNS1_7CordRepE.cold.11, symObjAddr: 0x534, symBinAddr: 0x62504, symSize: 0x28 }
  - { offset: 0xFE107, size: 0x8, addend: 0x0, symName: __ZN4absl12lts_2024011613cord_internal18CordRepBtreeReader4ReadEmmRPNS1_7CordRepE.cold.10, symObjAddr: 0x50C, symBinAddr: 0x624DC, symSize: 0x28 }
  - { offset: 0x10026F, size: 0x8, addend: 0x0, symName: __ZN4absl12lts_2024011613cord_internal7ConsumeEPNS1_7CordRepENS0_11FunctionRefIFvS3_mmEEE, symObjAddr: 0x0, symBinAddr: 0x223CC, symSize: 0xDC }
  - { offset: 0x100EDA, size: 0x8, addend: 0x0, symName: __ZN4absl12lts_2024011613cord_internal7ConsumeEPNS1_7CordRepENS0_11FunctionRefIFvS3_mmEEE, symObjAddr: 0x0, symBinAddr: 0x223CC, symSize: 0xDC }
  - { offset: 0x1010D4, size: 0x8, addend: 0x0, symName: __ZN4absl12lts_2024011613cord_internal14ReverseConsumeEPNS1_7CordRepENS0_11FunctionRefIFvS3_mmEEE, symObjAddr: 0xDC, symBinAddr: 0x224A8, symSize: 0x4 }
  - { offset: 0x101109, size: 0x8, addend: 0x0, symName: __ZN4absl12lts_2024011613cord_internal14ReverseConsumeEPNS1_7CordRepENS0_11FunctionRefIFvS3_mmEEE, symObjAddr: 0xDC, symBinAddr: 0x224A8, symSize: 0x4 }
  - { offset: 0x1012EC, size: 0x8, addend: 0x0, symName: __ZN4absl12lts_2024011613cord_internal7ConsumeEPNS1_7CordRepENS0_11FunctionRefIFvS3_mmEEE.cold.2, symObjAddr: 0x108, symBinAddr: 0x6252C, symSize: 0x28 }
  - { offset: 0x103216, size: 0x8, addend: 0x0, symName: __ZN4absl12lts_2024011613cord_internal10CordRepCrc3NewEPNS1_7CordRepENS0_12crc_internal12CrcCordStateE, symObjAddr: 0x0, symBinAddr: 0x224AC, symSize: 0x148 }
  - { offset: 0x105019, size: 0x8, addend: 0x0, symName: __ZN4absl12lts_2024011613cord_internal10CordRepCrc3NewEPNS1_7CordRepENS0_12crc_internal12CrcCordStateE, symObjAddr: 0x0, symBinAddr: 0x224AC, symSize: 0x148 }
  - { offset: 0x1054B2, size: 0x8, addend: 0x0, symName: __ZN4absl12lts_2024011613cord_internal10CordRepCrc7DestroyEPS2_, symObjAddr: 0x148, symBinAddr: 0x225F4, symSize: 0x68 }
  - { offset: 0x107488, size: 0x8, addend: 0x0, symName: __ZN4absl12lts_2024011613cord_internal23get_cordz_mean_intervalEv, symObjAddr: 0x0, symBinAddr: 0x2265C, symSize: 0x10 }
  - { offset: 0x1074B2, size: 0x8, addend: 0x0, symName: __ZN4absl12lts_2024011613cord_internal12_GLOBAL__N_121g_cordz_mean_intervalE.0, symObjAddr: 0x20, symBinAddr: 0x840E0, symSize: 0x0 }
  - { offset: 0x1074C0, size: 0x8, addend: 0x0, symName: __ZN4absl12lts_2024011613cord_internal23get_cordz_mean_intervalEv, symObjAddr: 0x0, symBinAddr: 0x2265C, symSize: 0x10 }
  - { offset: 0x1074E1, size: 0x8, addend: 0x0, symName: __ZN4absl12lts_2024011613cord_internal23get_cordz_mean_intervalEv, symObjAddr: 0x0, symBinAddr: 0x2265C, symSize: 0x10 }
  - { offset: 0x1074FB, size: 0x8, addend: 0x0, symName: __ZN4absl12lts_2024011613cord_internal23get_cordz_mean_intervalEv, symObjAddr: 0x0, symBinAddr: 0x2265C, symSize: 0x10 }
  - { offset: 0x107515, size: 0x8, addend: 0x0, symName: __ZN4absl12lts_2024011613cord_internal23set_cordz_mean_intervalEi, symObjAddr: 0x10, symBinAddr: 0x2266C, symSize: 0x10 }
  - { offset: 0x10753F, size: 0x8, addend: 0x0, symName: __ZN4absl12lts_2024011613cord_internal23set_cordz_mean_intervalEi, symObjAddr: 0x10, symBinAddr: 0x2266C, symSize: 0x10 }
  - { offset: 0x107560, size: 0x8, addend: 0x0, symName: __ZN4absl12lts_2024011613cord_internal23set_cordz_mean_intervalEi, symObjAddr: 0x10, symBinAddr: 0x2266C, symSize: 0x10 }
  - { offset: 0x10A101, size: 0x8, addend: 0x0, symName: __ZN4absl12lts_2024011613cord_internal12_GLOBAL__N_111GlobalQueueEv, symObjAddr: 0x74, symBinAddr: 0x226F0, symSize: 0x78 }
  - { offset: 0x10A12B, size: 0x8, addend: 0x0, symName: __ZZN4absl12lts_2024011613cord_internal12_GLOBAL__N_111GlobalQueueEvE12global_queue, symObjAddr: 0x325B0, symBinAddr: 0x84348, symSize: 0x0 }
  - { offset: 0x10D155, size: 0x8, addend: 0x0, symName: __ZN4absl12lts_2024011613cord_internal11CordzHandle6DeleteEPS2_.cold.1, symObjAddr: 0x7D0, symBinAddr: 0x62554, symSize: 0x28 }
  - { offset: 0x10E1C3, size: 0x8, addend: 0x0, symName: __ZN4absl12lts_2024011613cord_internal11CordzHandleC2Eb, symObjAddr: 0x0, symBinAddr: 0x2267C, symSize: 0x74 }
  - { offset: 0x10E454, size: 0x8, addend: 0x0, symName: __ZN4absl12lts_2024011613cord_internal11CordzHandleC1Eb, symObjAddr: 0xEC, symBinAddr: 0x22768, symSize: 0x4 }
  - { offset: 0x10E493, size: 0x8, addend: 0x0, symName: __ZN4absl12lts_2024011613cord_internal11CordzHandleC1Eb, symObjAddr: 0xEC, symBinAddr: 0x22768, symSize: 0x4 }
  - { offset: 0x10E618, size: 0x8, addend: 0x0, symName: __ZN4absl12lts_2024011613cord_internal11CordzHandleD2Ev, symObjAddr: 0xF0, symBinAddr: 0x2276C, symSize: 0x104 }
  - { offset: 0x10E956, size: 0x8, addend: 0x0, symName: __ZNSt3__16vectorIPN4absl12lts_2024011613cord_internal11CordzHandleENS_9allocatorIS5_EEE9push_backB8ne200100ERKS5_, symObjAddr: 0x204, symBinAddr: 0x22870, symSize: 0xD0 }
  - { offset: 0x10ECE1, size: 0x8, addend: 0x0, symName: __ZN4absl12lts_2024011613cord_internal11CordzHandleD1Ev, symObjAddr: 0x2D4, symBinAddr: 0x22940, symSize: 0x4 }
  - { offset: 0x10EFA5, size: 0x8, addend: 0x0, symName: __ZNSt3__16vectorIPN4absl12lts_2024011613cord_internal11CordzHandleENS_9allocatorIS5_EEE20__throw_length_errorB8ne200100Ev, symObjAddr: 0x6A4, symBinAddr: 0x22C40, symSize: 0x14 }
  - { offset: 0x10EFC7, size: 0x8, addend: 0x0, symName: __ZN4absl12lts_2024011613cord_internal11CordzHandleD1Ev, symObjAddr: 0x2D4, symBinAddr: 0x22940, symSize: 0x4 }
  - { offset: 0x10EFE9, size: 0x8, addend: 0x0, symName: __ZN4absl12lts_2024011613cord_internal11CordzHandleD1Ev, symObjAddr: 0x2D4, symBinAddr: 0x22940, symSize: 0x4 }
  - { offset: 0x10F018, size: 0x8, addend: 0x0, symName: __ZN4absl12lts_2024011613cord_internal11CordzHandleD0Ev, symObjAddr: 0x2D8, symBinAddr: 0x22944, symSize: 0x14 }
  - { offset: 0x10F08F, size: 0x8, addend: 0x0, symName: __ZNK4absl12lts_2024011613cord_internal11CordzHandle12SafeToDeleteEv, symObjAddr: 0x2EC, symBinAddr: 0x22958, symSize: 0x34 }
  - { offset: 0x10F138, size: 0x8, addend: 0x0, symName: __ZN4absl12lts_2024011613cord_internal11CordzHandle6DeleteEPS2_, symObjAddr: 0x320, symBinAddr: 0x2298C, symSize: 0x94 }
  - { offset: 0x10F34E, size: 0x8, addend: 0x0, symName: __ZN4absl12lts_2024011613cord_internal11CordzHandle6DeleteEPS2_.cold.1, symObjAddr: 0x7D0, symBinAddr: 0x62554, symSize: 0x28 }
  - { offset: 0x10F3EE, size: 0x8, addend: 0x0, symName: __ZN4absl12lts_2024011613cord_internal11CordzHandle25DiagnosticsGetDeleteQueueEv, symObjAddr: 0x3B4, symBinAddr: 0x22A20, symSize: 0x94 }
  - { offset: 0x10F7DC, size: 0x8, addend: 0x0, symName: __ZNK4absl12lts_2024011613cord_internal11CordzHandle32DiagnosticsHandleIsSafeToInspectEPKS2_, symObjAddr: 0x518, symBinAddr: 0x22AB4, symSize: 0xE4 }
  - { offset: 0x10F7E7, size: 0x8, addend: 0x0, symName: __ZN4absl12lts_2024011613cord_internal11CordzHandle25DiagnosticsGetDeleteQueueEv.cold.1, symObjAddr: 0x7F8, symBinAddr: 0x6257C, symSize: 0x24 }
  - { offset: 0x10FC37, size: 0x8, addend: 0x0, symName: __ZNK4absl12lts_2024011613cord_internal11CordzHandle32DiagnosticsHandleIsSafeToInspectEPKS2_, symObjAddr: 0x518, symBinAddr: 0x22AB4, symSize: 0xE4 }
  - { offset: 0x10FE37, size: 0x8, addend: 0x0, symName: __ZN4absl12lts_2024011613cord_internal11CordzHandle41DiagnosticsGetSafeToInspectDeletedHandlesEv, symObjAddr: 0x5FC, symBinAddr: 0x22B98, symSize: 0xA8 }
  - { offset: 0x112058, size: 0x8, addend: 0x0, symName: __ZN4absl12lts_2024011613cord_internal9CordzInfo14kMaxStackDepthE, symObjAddr: 0x1350, symBinAddr: 0x6A538, symSize: 0x0 }
  - { offset: 0x11253A, size: 0x8, addend: 0x0, symName: __ZN4absl12lts_2024011613cord_internal9CordzInfo12global_list_E, symObjAddr: 0x1388, symBinAddr: 0x840E8, symSize: 0x0 }
  - { offset: 0x113D7C, size: 0x8, addend: 0x0, symName: __ZN4absl12lts_2024011613cord_internal9CordzInfo4HeadERKNS1_13CordzSnapshotE, symObjAddr: 0x0, symBinAddr: 0x22C54, symSize: 0x44 }
  - { offset: 0x113E78, size: 0x8, addend: 0x0, symName: __ZNK4absl12lts_2024011613cord_internal9CordzInfo4NextERKNS1_13CordzSnapshotE, symObjAddr: 0x44, symBinAddr: 0x22C98, symSize: 0x5C }
  - { offset: 0x113ED5, size: 0x8, addend: 0x0, symName: __ZN4absl12lts_2024011613cord_internal9CordzInfo4HeadERKNS1_13CordzSnapshotE.cold.1, symObjAddr: 0xDD4, symBinAddr: 0x625A0, symSize: 0x28 }
  - { offset: 0x113F02, size: 0x8, addend: 0x0, symName: __ZN4absl12lts_2024011613cord_internal9CordzInfo4HeadERKNS1_13CordzSnapshotE.cold.2, symObjAddr: 0xDFC, symBinAddr: 0x625C8, symSize: 0x28 }
  - { offset: 0x113F2F, size: 0x8, addend: 0x0, symName: __ZNK4absl12lts_2024011613cord_internal9CordzInfo4NextERKNS1_13CordzSnapshotE, symObjAddr: 0x44, symBinAddr: 0x22C98, symSize: 0x5C }
  - { offset: 0x114070, size: 0x8, addend: 0x0, symName: __ZN4absl12lts_2024011613cord_internal9CordzInfo9TrackCordERNS1_10InlineDataENS1_18CordzUpdateTracker16MethodIdentifierE, symObjAddr: 0xA0, symBinAddr: 0x22CF4, symSize: 0x8C }
  - { offset: 0x1140F6, size: 0x8, addend: 0x0, symName: __ZNK4absl12lts_2024011613cord_internal9CordzInfo4NextERKNS1_13CordzSnapshotE.cold.1, symObjAddr: 0xE24, symBinAddr: 0x625F0, symSize: 0x28 }
  - { offset: 0x114123, size: 0x8, addend: 0x0, symName: __ZNK4absl12lts_2024011613cord_internal9CordzInfo4NextERKNS1_13CordzSnapshotE.cold.2, symObjAddr: 0xE4C, symBinAddr: 0x62618, symSize: 0x28 }
  - { offset: 0x114150, size: 0x8, addend: 0x0, symName: __ZNK4absl12lts_2024011613cord_internal9CordzInfo4NextERKNS1_13CordzSnapshotE.cold.3, symObjAddr: 0xE74, symBinAddr: 0x62640, symSize: 0x28 }
  - { offset: 0x1142A6, size: 0x8, addend: 0x0, symName: __ZN4absl12lts_2024011613cord_internal9CordzInfo9TrackCordERNS1_10InlineDataENS1_18CordzUpdateTracker16MethodIdentifierE, symObjAddr: 0xA0, symBinAddr: 0x22CF4, symSize: 0x8C }
  - { offset: 0x114498, size: 0x8, addend: 0x0, symName: __ZN4absl12lts_2024011613cord_internal9CordzInfoC2EPNS1_7CordRepEPKS2_NS1_18CordzUpdateTracker16MethodIdentifierE, symObjAddr: 0x5D0, symBinAddr: 0x231F8, symSize: 0x16C }
  - { offset: 0x114992, size: 0x8, addend: 0x0, symName: __ZN4absl12lts_2024011613cord_internal9CordzInfo5TrackEv, symObjAddr: 0x130, symBinAddr: 0x22D84, symSize: 0xAC }
  - { offset: 0x114D20, size: 0x8, addend: 0x0, symName: __ZN4absl12lts_2024011613cord_internal9CordzInfo9TrackCordERNS1_10InlineDataENS1_18CordzUpdateTracker16MethodIdentifierE.cold.3, symObjAddr: 0xEEC, symBinAddr: 0x626B8, symSize: 0x28 }
  - { offset: 0x114D38, size: 0x8, addend: 0x0, symName: __ZN4absl12lts_2024011613cord_internal9CordzInfo9TrackCordERNS1_10InlineDataENS1_18CordzUpdateTracker16MethodIdentifierE.cold.1, symObjAddr: 0xE9C, symBinAddr: 0x62668, symSize: 0x28 }
  - { offset: 0x114D50, size: 0x8, addend: 0x0, symName: __ZN4absl12lts_2024011613cord_internal9CordzInfo9TrackCordERNS1_10InlineDataENS1_18CordzUpdateTracker16MethodIdentifierE.cold.2, symObjAddr: 0xEC4, symBinAddr: 0x62690, symSize: 0x28 }
  - { offset: 0x114D7D, size: 0x8, addend: 0x0, symName: __ZN4absl12lts_2024011613cord_internal9CordzInfoC1EPNS1_7CordRepEPKS2_NS1_18CordzUpdateTracker16MethodIdentifierE, symObjAddr: 0x12C, symBinAddr: 0x22D80, symSize: 0x4 }
  - { offset: 0x114DB4, size: 0x8, addend: 0x0, symName: __ZN4absl12lts_2024011613cord_internal9CordzInfoC1EPNS1_7CordRepEPKS2_NS1_18CordzUpdateTracker16MethodIdentifierE, symObjAddr: 0x12C, symBinAddr: 0x22D80, symSize: 0x4 }
  - { offset: 0x114FED, size: 0x8, addend: 0x0, symName: __ZN4absl12lts_2024011613cord_internal9CordzInfo9TrackCordERNS1_10InlineDataERKS3_NS1_18CordzUpdateTracker16MethodIdentifierE, symObjAddr: 0x1DC, symBinAddr: 0x22E30, symSize: 0xDC }
  - { offset: 0x1152D7, size: 0x8, addend: 0x0, symName: __ZN4absl12lts_2024011613cord_internal9CordzInfo7UntrackEv, symObjAddr: 0x2E4, symBinAddr: 0x22F0C, symSize: 0x1FC }
  - { offset: 0x1152E2, size: 0x8, addend: 0x0, symName: __ZN4absl12lts_2024011613cord_internal9CordzInfo7UntrackEv, symObjAddr: 0x2E4, symBinAddr: 0x22F0C, symSize: 0x1FC }
  - { offset: 0x115992, size: 0x8, addend: 0x0, symName: __ZN4absl12lts_2024011613cord_internal9CordzInfo9TrackCordERNS1_10InlineDataERKS3_NS1_18CordzUpdateTracker16MethodIdentifierE.cold.3, symObjAddr: 0xF64, symBinAddr: 0x62708, symSize: 0x28 }
  - { offset: 0x1159AA, size: 0x8, addend: 0x0, symName: __ZN4absl12lts_2024011613cord_internal9CordzInfo9TrackCordERNS1_10InlineDataERKS3_NS1_18CordzUpdateTracker16MethodIdentifierE.cold.2, symObjAddr: 0xF3C, symBinAddr: 0x626E0, symSize: 0x28 }
  - { offset: 0x115BBC, size: 0x8, addend: 0x0, symName: __ZNK4absl12lts_2024011613cord_internal9CordzInfo8ODRCheckEv, symObjAddr: 0x844, symBinAddr: 0x2340C, symSize: 0x24 }
  - { offset: 0x115BFE, size: 0x8, addend: 0x0, symName: __ZN4absl12lts_2024011613cord_internal9CordzInfo4LockENS1_18CordzUpdateTracker16MethodIdentifierE, symObjAddr: 0x868, symBinAddr: 0x23430, symSize: 0x44 }
  - { offset: 0x115C09, size: 0x8, addend: 0x0, symName: __ZN4absl12lts_2024011613base_internal14SpinLockHolderD1Ev, symObjAddr: 0x7FC, symBinAddr: 0x233C4, symSize: 0x48 }
  - { offset: 0x115D04, size: 0x8, addend: 0x0, symName: __ZN4absl12lts_2024011613cord_internal9CordzInfo18MaybeTrackCordImplERNS1_10InlineDataERKS3_NS1_18CordzUpdateTracker16MethodIdentifierE, symObjAddr: 0x4E0, symBinAddr: 0x23108, symSize: 0x7C }
  - { offset: 0x115EE6, size: 0x8, addend: 0x0, symName: __ZN4absl12lts_2024011613cord_internal9CordzInfo15GetParentMethodEPKS2_, symObjAddr: 0x55C, symBinAddr: 0x23184, symSize: 0x1C }
  - { offset: 0x115F06, size: 0x8, addend: 0x0, symName: __ZN4absl12lts_2024011613cord_internal9CordzInfo18MaybeTrackCordImplERNS1_10InlineDataERKS3_NS1_18CordzUpdateTracker16MethodIdentifierE.cold.2, symObjAddr: 0x1004, symBinAddr: 0x62758, symSize: 0x28 }
  - { offset: 0x115F34, size: 0x8, addend: 0x0, symName: __ZN4absl12lts_2024011613cord_internal9CordzInfo18MaybeTrackCordImplERNS1_10InlineDataERKS3_NS1_18CordzUpdateTracker16MethodIdentifierE.cold.1, symObjAddr: 0xFDC, symBinAddr: 0x62730, symSize: 0x28 }
  - { offset: 0x115F62, size: 0x8, addend: 0x0, symName: __ZN4absl12lts_2024011613cord_internal9CordzInfo15GetParentMethodEPKS2_, symObjAddr: 0x55C, symBinAddr: 0x23184, symSize: 0x1C }
  - { offset: 0x115F7F, size: 0x8, addend: 0x0, symName: __ZN4absl12lts_2024011613cord_internal9CordzInfo15FillParentStackEPKS2_PPv, symObjAddr: 0x578, symBinAddr: 0x231A0, symSize: 0x58 }
  - { offset: 0x115FA8, size: 0x8, addend: 0x0, symName: __ZN4absl12lts_2024011613cord_internal9CordzInfoC2EPNS1_7CordRepEPKS2_NS1_18CordzUpdateTracker16MethodIdentifierE, symObjAddr: 0x5D0, symBinAddr: 0x231F8, symSize: 0x16C }
  - { offset: 0x115FB3, size: 0x8, addend: 0x0, symName: __ZN4absl12lts_2024011613cord_internal9CordzInfo15FillParentStackEPKS2_PPv.cold.1, symObjAddr: 0x1054, symBinAddr: 0x62780, symSize: 0x28 }
  - { offset: 0x116379, size: 0x8, addend: 0x0, symName: __ZN4absl12lts_2024011613cord_internal9CordzInfoD2Ev, symObjAddr: 0x73C, symBinAddr: 0x23364, symSize: 0x48 }
  - { offset: 0x116492, size: 0x8, addend: 0x0, symName: __ZN4absl12lts_2024011613cord_internal9CordzInfoD1Ev, symObjAddr: 0x7E4, symBinAddr: 0x233AC, symSize: 0x4 }
  - { offset: 0x1164B4, size: 0x8, addend: 0x0, symName: __ZN4absl12lts_2024011613cord_internal9CordzInfoD1Ev, symObjAddr: 0x7E4, symBinAddr: 0x233AC, symSize: 0x4 }
  - { offset: 0x1164E4, size: 0x8, addend: 0x0, symName: __ZN4absl12lts_2024011613cord_internal9CordzInfoD0Ev, symObjAddr: 0x7E8, symBinAddr: 0x233B0, symSize: 0x14 }
  - { offset: 0x116542, size: 0x8, addend: 0x0, symName: __ZNK4absl12lts_2024011613cord_internal9CordzInfo8ODRCheckEv.cold.1, symObjAddr: 0x10CC, symBinAddr: 0x627A8, symSize: 0x5C }
  - { offset: 0x11655A, size: 0x8, addend: 0x0, symName: __ZN4absl12lts_2024011613cord_internal9CordzInfo4LockENS1_18CordzUpdateTracker16MethodIdentifierE, symObjAddr: 0x868, symBinAddr: 0x23430, symSize: 0x44 }
  - { offset: 0x11665E, size: 0x8, addend: 0x0, symName: __ZN4absl12lts_2024011613cord_internal9CordzInfo6UnlockEv, symObjAddr: 0x8AC, symBinAddr: 0x23474, symSize: 0x3C }
  - { offset: 0x116669, size: 0x8, addend: 0x0, symName: __ZN4absl12lts_2024011613cord_internal9CordzInfo4LockENS1_18CordzUpdateTracker16MethodIdentifierE.cold.1, symObjAddr: 0x1128, symBinAddr: 0x62804, symSize: 0x28 }
  - { offset: 0x116681, size: 0x8, addend: 0x0, symName: __ZN4absl12lts_2024011613cord_internal9CordzInfo6UnlockEv, symObjAddr: 0x8AC, symBinAddr: 0x23474, symSize: 0x3C }
  - { offset: 0x1166C4, size: 0x8, addend: 0x0, symName: __ZNK4absl12lts_2024011613cord_internal9CordzInfo8GetStackEv, symObjAddr: 0x8E8, symBinAddr: 0x234B0, symSize: 0xC }
  - { offset: 0x1166EE, size: 0x8, addend: 0x0, symName: __ZNK4absl12lts_2024011613cord_internal9CordzInfo14GetParentStackEv, symObjAddr: 0x8F4, symBinAddr: 0x234BC, symSize: 0xC }
  - { offset: 0x1169B6, size: 0x8, addend: 0x0, symName: __ZNK4absl12lts_2024011613cord_internal9CordzInfo18GetCordzStatisticsEv, symObjAddr: 0x900, symBinAddr: 0x234C8, symSize: 0x1F0 }
  - { offset: 0x116F2D, size: 0x8, addend: 0x0, symName: __ZNK4absl12lts_2024011613cord_internal9CordzInfo18GetCordzStatisticsEv.cold.1, symObjAddr: 0x1150, symBinAddr: 0x6282C, symSize: 0x24 }
  - { offset: 0x116F85, size: 0x8, addend: 0x0, symName: __ZN4absl12lts_2024011613cord_internal12_GLOBAL__N_115CordRepAnalyzer15CountLinearRepsENS3_6RepRefERNS3_11MemoryUsageE, symObjAddr: 0xAF0, symBinAddr: 0x236B8, symSize: 0x1B4 }
  - { offset: 0x11714F, size: 0x8, addend: 0x0, symName: __ZN4absl12lts_2024011613cord_internal12_GLOBAL__N_115CordRepAnalyzer12AnalyzeBtreeENS3_6RepRefE, symObjAddr: 0xCA4, symBinAddr: 0x2386C, symSize: 0x130 }
  - { offset: 0x11715A, size: 0x8, addend: 0x0, symName: __ZNK4absl12lts_2024011613cord_internal9CordzInfo18GetCordzStatisticsEv.cold.3, symObjAddr: 0x1198, symBinAddr: 0x62850, symSize: 0x28 }
  - { offset: 0x11719D, size: 0x8, addend: 0x0, symName: __ZN4absl12lts_2024011613cord_internal12_GLOBAL__N_115CordRepAnalyzer12AnalyzeBtreeENS3_6RepRefE, symObjAddr: 0xCA4, symBinAddr: 0x2386C, symSize: 0x130 }
  - { offset: 0x11749A, size: 0x8, addend: 0x0, symName: __ZN4absl12lts_2024011613cord_internal9CordzInfo4HeadERKNS1_13CordzSnapshotE.cold.1, symObjAddr: 0xDD4, symBinAddr: 0x625A0, symSize: 0x28 }
  - { offset: 0x11760E, size: 0x8, addend: 0x0, symName: __ZN4absl12lts_2024011613cord_internal12_GLOBAL__N_115CordRepAnalyzer12AnalyzeBtreeENS3_6RepRefE.cold.1, symObjAddr: 0x1234, symBinAddr: 0x62878, symSize: 0x28 }
  - { offset: 0x11763B, size: 0x8, addend: 0x0, symName: _OUTLINED_FUNCTION_0, symObjAddr: 0x125C, symBinAddr: 0x2399C, symSize: 0x8 }
  - { offset: 0x1194F5, size: 0x8, addend: 0x0, symName: __ZN4absl12lts_2024011612crc_internal10GetCpuTypeEv, symObjAddr: 0x0, symBinAddr: 0x239A4, symSize: 0x8 }
  - { offset: 0x1195A4, size: 0x8, addend: 0x0, symName: __ZN4absl12lts_2024011612crc_internal10GetCpuTypeEv, symObjAddr: 0x0, symBinAddr: 0x239A4, symSize: 0x8 }
  - { offset: 0x1195C3, size: 0x8, addend: 0x0, symName: __ZN4absl12lts_2024011612crc_internal21SupportsArmCRC32PMULLEv, symObjAddr: 0x8, symBinAddr: 0x239AC, symSize: 0x8 }
  - { offset: 0x11C019, size: 0x8, addend: 0x0, symName: __ZN4absl12lts_2024011612crc_internal7CRCImpl13FillWordTableEjjiPA256_j, symObjAddr: 0x0, symBinAddr: 0x239B4, symSize: 0xB8 }
  - { offset: 0x11C655, size: 0x8, addend: 0x0, symName: __ZN4absl12lts_2024011612crc_internal3CRC6Crc32cEv, symObjAddr: 0xAD0, symBinAddr: 0x24484, symSize: 0x70 }
  - { offset: 0x11C679, size: 0x8, addend: 0x0, symName: __ZZN4absl12lts_2024011612crc_internal3CRC6Crc32cEvE9singleton, symObjAddr: 0xC5E8, symBinAddr: 0x84358, symSize: 0x0 }
  - { offset: 0x11C6D1, size: 0x8, addend: 0x0, symName: __ZN4absl12lts_2024011612crc_internal7CRCImpl13FillWordTableEjjiPA256_j, symObjAddr: 0x0, symBinAddr: 0x239B4, symSize: 0xB8 }
  - { offset: 0x11C71C, size: 0x8, addend: 0x0, symName: __ZN4absl12lts_2024011612crc_internal7CRCImpl13FillWordTableEjjiPA256_j, symObjAddr: 0x0, symBinAddr: 0x239B4, symSize: 0xB8 }
  - { offset: 0x11C7AF, size: 0x8, addend: 0x0, symName: __ZN4absl12lts_2024011612crc_internal7CRCImpl15FillZeroesTableEjPA256_j, symObjAddr: 0xB8, symBinAddr: 0x23A6C, symSize: 0xD8 }
  - { offset: 0x11C920, size: 0x8, addend: 0x0, symName: __ZN4absl12lts_2024011612crc_internal7CRCImpl11NewInternalEv, symObjAddr: 0x190, symBinAddr: 0x23B44, symSize: 0x5C }
  - { offset: 0x11C92B, size: 0x8, addend: 0x0, symName: __ZN4absl12lts_2024011612crc_internal7CRCImpl15FillZeroesTableEjPA256_j.cold.1, symObjAddr: 0xB48, symBinAddr: 0x628A0, symSize: 0x5C }
  - { offset: 0x11C9B2, size: 0x8, addend: 0x0, symName: __ZN4absl12lts_2024011612crc_internal7CRCImpl11NewInternalEv, symObjAddr: 0x190, symBinAddr: 0x23B44, symSize: 0x5C }
  - { offset: 0x11CA30, size: 0x8, addend: 0x0, symName: __ZN4absl12lts_2024011612crc_internal5CRC3210InitTablesEv, symObjAddr: 0x1EC, symBinAddr: 0x23BA0, symSize: 0x138 }
  - { offset: 0x11CBDE, size: 0x8, addend: 0x0, symName: __ZNK4absl12lts_2024011612crc_internal5CRC326ExtendEPjPKvm, symObjAddr: 0x324, symBinAddr: 0x23CD8, symSize: 0x600 }
  - { offset: 0x11CBE9, size: 0x8, addend: 0x0, symName: __ZN4absl12lts_2024011612crc_internal5CRC3210InitTablesEv.cold.2, symObjAddr: 0xC00, symBinAddr: 0x62958, symSize: 0x5C }
  - { offset: 0x11CC01, size: 0x8, addend: 0x0, symName: __ZN4absl12lts_2024011612crc_internal5CRC3210InitTablesEv.cold.1, symObjAddr: 0xBA4, symBinAddr: 0x628FC, symSize: 0x5C }
  - { offset: 0x11CC1E, size: 0x8, addend: 0x0, symName: __ZNK4absl12lts_2024011612crc_internal5CRC326ExtendEPjPKvm, symObjAddr: 0x324, symBinAddr: 0x23CD8, symSize: 0x600 }
  - { offset: 0x11D752, size: 0x8, addend: 0x0, symName: __ZN4absl12lts_2024011612crc_internal5CRC3218ExtendByZeroesImplEPjmPKjS5_, symObjAddr: 0x924, symBinAddr: 0x242D8, symSize: 0xEC }
  - { offset: 0x11D86F, size: 0x8, addend: 0x0, symName: __ZNK4absl12lts_2024011612crc_internal5CRC3214ExtendByZeroesEPjm, symObjAddr: 0xA10, symBinAddr: 0x243C4, symSize: 0x18 }
  - { offset: 0x11D8D5, size: 0x8, addend: 0x0, symName: __ZNK4absl12lts_2024011612crc_internal5CRC3216UnextendByZeroesEPjm, symObjAddr: 0xA28, symBinAddr: 0x243DC, symSize: 0x54 }
  - { offset: 0x11DC8D, size: 0x8, addend: 0x0, symName: __ZNK4absl12lts_2024011612crc_internal5CRC328ScrambleEPj, symObjAddr: 0xA7C, symBinAddr: 0x24430, symSize: 0x1C }
  - { offset: 0x11DCF8, size: 0x8, addend: 0x0, symName: __ZNK4absl12lts_2024011612crc_internal5CRC3210UnscrambleEPj, symObjAddr: 0xA98, symBinAddr: 0x2444C, symSize: 0x1C }
  - { offset: 0x11DD75, size: 0x8, addend: 0x0, symName: __ZN4absl12lts_2024011612crc_internal3CRCD2Ev, symObjAddr: 0xAB4, symBinAddr: 0x24468, symSize: 0x4 }
  - { offset: 0x11DDA1, size: 0x8, addend: 0x0, symName: __ZN4absl12lts_2024011612crc_internal3CRCD1Ev, symObjAddr: 0xAB8, symBinAddr: 0x2446C, symSize: 0x4 }
  - { offset: 0x11DDCB, size: 0x8, addend: 0x0, symName: __ZN4absl12lts_2024011612crc_internal3CRCD0Ev, symObjAddr: 0xABC, symBinAddr: 0x24470, symSize: 0x4 }
  - { offset: 0x11DDF5, size: 0x8, addend: 0x0, symName: __ZN4absl12lts_2024011612crc_internal3CRCC2Ev, symObjAddr: 0xAC0, symBinAddr: 0x24474, symSize: 0x10 }
  - { offset: 0x11DE21, size: 0x8, addend: 0x0, symName: __ZN4absl12lts_2024011612crc_internal5CRC32D1Ev, symObjAddr: 0xB40, symBinAddr: 0x244F4, symSize: 0x4 }
  - { offset: 0x11DE4A, size: 0x8, addend: 0x0, symName: __ZN4absl12lts_2024011612crc_internal5CRC32D0Ev, symObjAddr: 0xB44, symBinAddr: 0x244F8, symSize: 0x4 }
  - { offset: 0x1208C7, size: 0x8, addend: 0x0, symName: __ZN4absl12lts_2024011612crc_internal22UnextendCrc32cByZeroesENS0_8crc32c_tEm, symObjAddr: 0x0, symBinAddr: 0x244FC, symSize: 0x4C }
  - { offset: 0x1208F1, size: 0x8, addend: 0x0, symName: __ZN4absl12lts_2024011612_GLOBAL__N_19CrcEngineEv, symObjAddr: 0x4C, symBinAddr: 0x24548, symSize: 0x70 }
  - { offset: 0x12091B, size: 0x8, addend: 0x0, symName: __ZZN4absl12lts_2024011612_GLOBAL__N_19CrcEngineEvE6engine, symObjAddr: 0x9FD8, symBinAddr: 0x84368, symSize: 0x0 }
  - { offset: 0x120A1E, size: 0x8, addend: 0x0, symName: __ZN4absl12lts_2024011612crc_internal22UnextendCrc32cByZeroesENS0_8crc32c_tEm, symObjAddr: 0x0, symBinAddr: 0x244FC, symSize: 0x4C }
  - { offset: 0x120A8F, size: 0x8, addend: 0x0, symName: __ZN4absl12lts_2024011612crc_internal20ExtendCrc32cInternalENS0_8crc32c_tENS0_11string_viewE, symObjAddr: 0xBC, symBinAddr: 0x245B8, symSize: 0x54 }
  - { offset: 0x120B9A, size: 0x8, addend: 0x0, symName: __ZN4absl12lts_2024011613ComputeCrc32cENS0_11string_viewE, symObjAddr: 0x110, symBinAddr: 0x2460C, symSize: 0x54 }
  - { offset: 0x120C41, size: 0x8, addend: 0x0, symName: __ZN4absl12lts_2024011620ExtendCrc32cByZeroesENS0_8crc32c_tEm, symObjAddr: 0x164, symBinAddr: 0x24660, symSize: 0x4C }
  - { offset: 0x120CB2, size: 0x8, addend: 0x0, symName: __ZN4absl12lts_2024011612ConcatCrc32cENS0_8crc32c_tES1_m, symObjAddr: 0x1B0, symBinAddr: 0x246AC, symSize: 0x4C }
  - { offset: 0x120D4A, size: 0x8, addend: 0x0, symName: __ZN4absl12lts_2024011618RemoveCrc32cPrefixENS0_8crc32c_tES1_m, symObjAddr: 0x1FC, symBinAddr: 0x246F8, symSize: 0x4C }
  - { offset: 0x120DE7, size: 0x8, addend: 0x0, symName: __ZN4absl12lts_2024011612MemcpyCrc32cEPvPKvmNS0_8crc32c_tE, symObjAddr: 0x248, symBinAddr: 0x24744, symSize: 0xC }
  - { offset: 0x120EA4, size: 0x8, addend: 0x0, symName: __ZN4absl12lts_2024011618RemoveCrc32cSuffixENS0_8crc32c_tES1_m, symObjAddr: 0x254, symBinAddr: 0x24750, symSize: 0x48 }
  - { offset: 0x121B13, size: 0x8, addend: 0x0, symName: __ZN4absl12lts_2024011612crc_internal9CrcMemcpy10CrcAndCopyEPvPKvmNS0_8crc32c_tEb, symObjAddr: 0x29C, symBinAddr: 0x24798, symSize: 0xBC }
  - { offset: 0x121B33, size: 0x8, addend: 0x0, symName: __ZZN4absl12lts_2024011612crc_internal9CrcMemcpy10CrcAndCopyEPvPKvmNS0_8crc32c_tEbE7engines, symObjAddr: 0x378, symBinAddr: 0x840F8, symSize: 0x0 }
  - { offset: 0x1267E6, size: 0x8, addend: 0x0, symName: __ZN4absl12lts_2024011612crc_internal12CrcCordState17RefSharedEmptyRepEv, symObjAddr: 0x0, symBinAddr: 0x24854, symSize: 0xCC }
  - { offset: 0x126808, size: 0x8, addend: 0x0, symName: __ZZN4absl12lts_2024011612crc_internal12CrcCordState17RefSharedEmptyRepEvE5empty, symObjAddr: 0x33210, symBinAddr: 0x84378, symSize: 0x0 }
  - { offset: 0x126E33, size: 0x8, addend: 0x0, symName: __ZN4absl12lts_2024011612crc_internal12CrcCordState17RefSharedEmptyRepEv.cold.3, symObjAddr: 0x1A04, symBinAddr: 0x62A04, symSize: 0x28 }
  - { offset: 0x126E4B, size: 0x8, addend: 0x0, symName: __ZN4absl12lts_2024011612crc_internal12CrcCordState17RefSharedEmptyRepEv.cold.1, symObjAddr: 0x19B4, symBinAddr: 0x629B4, symSize: 0x28 }
  - { offset: 0x126E63, size: 0x8, addend: 0x0, symName: __ZN4absl12lts_2024011612crc_internal12CrcCordState17RefSharedEmptyRepEv.cold.2, symObjAddr: 0x19DC, symBinAddr: 0x629DC, symSize: 0x28 }
  - { offset: 0x126E7B, size: 0x8, addend: 0x0, symName: __ZN4absl12lts_2024011612crc_internal12CrcCordStateC2Ev, symObjAddr: 0xCC, symBinAddr: 0x24920, symSize: 0x4C }
  - { offset: 0x1270E1, size: 0x8, addend: 0x0, symName: __ZN4absl12lts_2024011612crc_internal12CrcCordStateC1Ev, symObjAddr: 0x118, symBinAddr: 0x2496C, symSize: 0x4C }
  - { offset: 0x12734D, size: 0x8, addend: 0x0, symName: __ZN4absl12lts_2024011612crc_internal12CrcCordStateC2ERKS2_, symObjAddr: 0x164, symBinAddr: 0x249B8, symSize: 0x30 }
  - { offset: 0x1273B9, size: 0x8, addend: 0x0, symName: __ZN4absl12lts_2024011612crc_internal12CrcCordStateC1ERKS2_, symObjAddr: 0x194, symBinAddr: 0x249E8, symSize: 0x30 }
  - { offset: 0x1273C4, size: 0x8, addend: 0x0, symName: __ZN4absl12lts_2024011612crc_internal12CrcCordStateC2ERKS2_.cold.1, symObjAddr: 0x1A2C, symBinAddr: 0x62A2C, symSize: 0x24 }
  - { offset: 0x127418, size: 0x8, addend: 0x0, symName: __ZN4absl12lts_2024011612crc_internal12CrcCordStateC1ERKS2_, symObjAddr: 0x194, symBinAddr: 0x249E8, symSize: 0x30 }
  - { offset: 0x1274B4, size: 0x8, addend: 0x0, symName: __ZN4absl12lts_2024011612crc_internal12CrcCordStateC2EOS2_, symObjAddr: 0x1C4, symBinAddr: 0x24A18, symSize: 0x34 }
  - { offset: 0x1274DD, size: 0x8, addend: 0x0, symName: __ZN4absl12lts_2024011612crc_internal12CrcCordStateC2EOS2_, symObjAddr: 0x1C4, symBinAddr: 0x24A18, symSize: 0x34 }
  - { offset: 0x12753C, size: 0x8, addend: 0x0, symName: __ZN4absl12lts_2024011612crc_internal12CrcCordStateC1EOS2_, symObjAddr: 0x1F8, symBinAddr: 0x24A4C, symSize: 0x34 }
  - { offset: 0x1275A8, size: 0x8, addend: 0x0, symName: __ZN4absl12lts_2024011612crc_internal12CrcCordStateaSERKS2_, symObjAddr: 0x22C, symBinAddr: 0x24A80, symSize: 0x54 }
  - { offset: 0x1276B8, size: 0x8, addend: 0x0, symName: __ZN4absl12lts_2024011612crc_internal12CrcCordStateaSEOS2_, symObjAddr: 0x2D0, symBinAddr: 0x24AD4, symSize: 0x44 }
  - { offset: 0x127937, size: 0x8, addend: 0x0, symName: __ZN4absl12lts_2024011612crc_internal12CrcCordStateaSEOS2_, symObjAddr: 0x2D0, symBinAddr: 0x24AD4, symSize: 0x44 }
  - { offset: 0x127989, size: 0x8, addend: 0x0, symName: __ZN4absl12lts_2024011612crc_internal12CrcCordStateD2Ev, symObjAddr: 0x314, symBinAddr: 0x24B18, symSize: 0x2C }
  - { offset: 0x1279D4, size: 0x8, addend: 0x0, symName: __ZN4absl12lts_2024011612crc_internal12CrcCordStateD1Ev, symObjAddr: 0x350, symBinAddr: 0x24B44, symSize: 0x2C }
  - { offset: 0x127A94, size: 0x8, addend: 0x0, symName: __ZNK4absl12lts_2024011612crc_internal12CrcCordState8ChecksumEv, symObjAddr: 0x37C, symBinAddr: 0x24B70, symSize: 0x78 }
  - { offset: 0x127ABF, size: 0x8, addend: 0x0, symName: __ZNK4absl12lts_2024011612crc_internal12CrcCordState8ChecksumEv, symObjAddr: 0x37C, symBinAddr: 0x24B70, symSize: 0x78 }
  - { offset: 0x127C69, size: 0x8, addend: 0x0, symName: __ZNK4absl12lts_2024011612crc_internal12CrcCordState29NormalizedPrefixCrcAtNthChunkEm, symObjAddr: 0x3F4, symBinAddr: 0x24BE8, symSize: 0x78 }
  - { offset: 0x127D9A, size: 0x8, addend: 0x0, symName: __ZN4absl12lts_2024011612crc_internal12CrcCordState9NormalizeEv, symObjAddr: 0x46C, symBinAddr: 0x24C60, symSize: 0xC4 }
  - { offset: 0x127DA5, size: 0x8, addend: 0x0, symName: __ZNK4absl12lts_2024011612crc_internal12CrcCordState29NormalizedPrefixCrcAtNthChunkEm.cold.1, symObjAddr: 0x1AC0, symBinAddr: 0x62A50, symSize: 0x28 }
  - { offset: 0x127E43, size: 0x8, addend: 0x0, symName: __ZN4absl12lts_2024011612crc_internal12CrcCordState9NormalizeEv, symObjAddr: 0x46C, symBinAddr: 0x24C60, symSize: 0xC4 }
  - { offset: 0x127E7D, size: 0x8, addend: 0x0, symName: __ZN4absl12lts_2024011612crc_internal12CrcCordState9NormalizeEv, symObjAddr: 0x46C, symBinAddr: 0x24C60, symSize: 0xC4 }
  - { offset: 0x127E98, size: 0x8, addend: 0x0, symName: __ZN4absl12lts_2024011612crc_internal12CrcCordState9NormalizeEv, symObjAddr: 0x46C, symBinAddr: 0x24C60, symSize: 0xC4 }
  - { offset: 0x128232, size: 0x8, addend: 0x0, symName: __ZN4absl12lts_2024011612crc_internal12CrcCordState6PoisonEv, symObjAddr: 0x5B4, symBinAddr: 0x24D24, symSize: 0xC4 }
  - { offset: 0x12844F, size: 0x8, addend: 0x0, symName: __ZNSt3__15dequeIN4absl12lts_2024011612crc_internal12CrcCordState9PrefixCrcENS_9allocatorIS5_EEE12emplace_backIJiNS2_8crc32c_tEEEEvDpOT_, symObjAddr: 0x678, symBinAddr: 0x24DE8, symSize: 0x9C }
  - { offset: 0x12B1EE, size: 0x8, addend: 0x0, symName: _OUTLINED_FUNCTION_0, symObjAddr: 0x1AE8, symBinAddr: 0x24E84, symSize: 0x8 }
  - { offset: 0x12D0EB, size: 0x8, addend: 0x0, symName: __ZNK4absl12lts_2024011612crc_internal23FallbackCrcMemcpyEngine7ComputeEPvPKvmNS0_8crc32c_tE, symObjAddr: 0x0, symBinAddr: 0x24E8C, symSize: 0xC4 }
  - { offset: 0x12E311, size: 0x8, addend: 0x0, symName: __ZNK4absl12lts_2024011612crc_internal23FallbackCrcMemcpyEngine7ComputeEPvPKvmNS0_8crc32c_tE, symObjAddr: 0x0, symBinAddr: 0x24E8C, symSize: 0xC4 }
  - { offset: 0x12E4A5, size: 0x8, addend: 0x0, symName: __ZN4absl12lts_2024011612crc_internal9CrcMemcpy22GetArchSpecificEnginesEv, symObjAddr: 0xC4, symBinAddr: 0x24F50, symSize: 0x44 }
  - { offset: 0x12E55D, size: 0x8, addend: 0x0, symName: __ZN4absl12lts_2024011612crc_internal9CrcMemcpy22GetArchSpecificEnginesEv, symObjAddr: 0xC4, symBinAddr: 0x24F50, symSize: 0x44 }
  - { offset: 0x12E66E, size: 0x8, addend: 0x0, symName: __ZN4absl12lts_2024011612crc_internal9CrcMemcpy13GetTestEngineEii, symObjAddr: 0x108, symBinAddr: 0x24F94, symSize: 0x34 }
  - { offset: 0x12E721, size: 0x8, addend: 0x0, symName: __ZN4absl12lts_2024011612crc_internal23FallbackCrcMemcpyEngineD1Ev, symObjAddr: 0x13C, symBinAddr: 0x24FC8, symSize: 0x4 }
  - { offset: 0x12E74C, size: 0x8, addend: 0x0, symName: __ZN4absl12lts_2024011612crc_internal23FallbackCrcMemcpyEngineD0Ev, symObjAddr: 0x140, symBinAddr: 0x24FCC, symSize: 0x4 }
  - { offset: 0x13064C, size: 0x8, addend: 0x0, symName: __ZNK4absl12lts_2024011612crc_internal26CrcNonTemporalMemcpyEngine7ComputeEPvPKvmNS0_8crc32c_tE, symObjAddr: 0x0, symBinAddr: 0x24FD0, symSize: 0x214 }
  - { offset: 0x131657, size: 0x8, addend: 0x0, symName: __ZNK4absl12lts_2024011612crc_internal26CrcNonTemporalMemcpyEngine7ComputeEPvPKvmNS0_8crc32c_tE, symObjAddr: 0x0, symBinAddr: 0x24FD0, symSize: 0x214 }
  - { offset: 0x131B51, size: 0x8, addend: 0x0, symName: __ZNK4absl12lts_2024011612crc_internal29CrcNonTemporalMemcpyAVXEngine7ComputeEPvPKvmNS0_8crc32c_tE, symObjAddr: 0x214, symBinAddr: 0x251E4, symSize: 0xC4 }
  - { offset: 0x131BA4, size: 0x8, addend: 0x0, symName: __ZNK4absl12lts_2024011612crc_internal29CrcNonTemporalMemcpyAVXEngine7ComputeEPvPKvmNS0_8crc32c_tE, symObjAddr: 0x214, symBinAddr: 0x251E4, symSize: 0xC4 }
  - { offset: 0x131D94, size: 0x8, addend: 0x0, symName: __ZN4absl12lts_2024011612crc_internal26CrcNonTemporalMemcpyEngineD1Ev, symObjAddr: 0x2D8, symBinAddr: 0x252A8, symSize: 0x4 }
  - { offset: 0x131DD2, size: 0x8, addend: 0x0, symName: __ZN4absl12lts_2024011612crc_internal26CrcNonTemporalMemcpyEngineD1Ev, symObjAddr: 0x2D8, symBinAddr: 0x252A8, symSize: 0x4 }
  - { offset: 0x131DFD, size: 0x8, addend: 0x0, symName: __ZN4absl12lts_2024011612crc_internal26CrcNonTemporalMemcpyEngineD0Ev, symObjAddr: 0x2DC, symBinAddr: 0x252AC, symSize: 0x4 }
  - { offset: 0x131E28, size: 0x8, addend: 0x0, symName: __ZN4absl12lts_2024011612crc_internal29CrcNonTemporalMemcpyAVXEngineD1Ev, symObjAddr: 0x2E0, symBinAddr: 0x252B0, symSize: 0x4 }
  - { offset: 0x131E53, size: 0x8, addend: 0x0, symName: __ZN4absl12lts_2024011612crc_internal29CrcNonTemporalMemcpyAVXEngineD0Ev, symObjAddr: 0x2E4, symBinAddr: 0x252B4, symSize: 0x4 }
  - { offset: 0x133D4F, size: 0x8, addend: 0x0, symName: __ZN4absl12lts_2024011612crc_internal36NewCRC32AcceleratedX86ARMCombinedAllEv, symObjAddr: 0x0, symBinAddr: 0x252B8, symSize: 0xC }
  - { offset: 0x135707, size: 0x8, addend: 0x0, symName: __ZN4absl12lts_2024011612crc_internal36NewCRC32AcceleratedX86ARMCombinedAllEv, symObjAddr: 0x0, symBinAddr: 0x252B8, symSize: 0xC }
  - { offset: 0x135729, size: 0x8, addend: 0x0, symName: __ZN4absl12lts_2024011612crc_internal36NewCRC32AcceleratedX86ARMCombinedAllEv, symObjAddr: 0x0, symBinAddr: 0x252B8, symSize: 0xC }
  - { offset: 0x135745, size: 0x8, addend: 0x0, symName: __ZN4absl12lts_2024011612crc_internal36NewCRC32AcceleratedX86ARMCombinedAllEv, symObjAddr: 0x0, symBinAddr: 0x252B8, symSize: 0xC }
  - { offset: 0x135760, size: 0x8, addend: 0x0, symName: __ZN4absl12lts_2024011612crc_internal36TryNewCRC32AcceleratedX86ARMCombinedEv, symObjAddr: 0xC, symBinAddr: 0x252C4, symSize: 0x8 }
  - { offset: 0x1377D0, size: 0x8, addend: 0x0, symName: __ZN4absl12lts_2024011624synchronization_internal25OneTimeInitThreadIdentityEPNS0_13base_internal14ThreadIdentityE, symObjAddr: 0x0, symBinAddr: 0x252CC, symSize: 0x2C }
  - { offset: 0x1377F9, size: 0x8, addend: 0x0, symName: __ZN4absl12lts_2024011624synchronization_internalL13freelist_lockE, symObjAddr: 0x1D008, symBinAddr: 0x84390, symSize: 0x0 }
  - { offset: 0x137813, size: 0x8, addend: 0x0, symName: __ZN4absl12lts_2024011624synchronization_internalL24thread_identity_freelistE, symObjAddr: 0x1D000, symBinAddr: 0x84388, symSize: 0x0 }
  - { offset: 0x1378D2, size: 0x8, addend: 0x0, symName: __ZN4absl12lts_2024011624synchronization_internal25OneTimeInitThreadIdentityEPNS0_13base_internal14ThreadIdentityE, symObjAddr: 0x0, symBinAddr: 0x252CC, symSize: 0x2C }
  - { offset: 0x137ABE, size: 0x8, addend: 0x0, symName: __ZN4absl12lts_2024011624synchronization_internal20CreateThreadIdentityEv, symObjAddr: 0x2C, symBinAddr: 0x252F8, symSize: 0x120 }
  - { offset: 0x137FB8, size: 0x8, addend: 0x0, symName: __ZN4absl12lts_2024011624synchronization_internalL21ReclaimThreadIdentityEPv, symObjAddr: 0x14C, symBinAddr: 0x25418, symSize: 0xB8 }
  - { offset: 0x13B2F0, size: 0x8, addend: 0x0, symName: __ZN4absl12lts_2024011613base_internal10CycleClock3NowEv, symObjAddr: 0x0, symBinAddr: 0x254D0, symSize: 0x4 }
  - { offset: 0x13BE7F, size: 0x8, addend: 0x0, symName: __ZN4absl12lts_2024011613base_internal10CycleClock3NowEv, symObjAddr: 0x0, symBinAddr: 0x254D0, symSize: 0x4 }
  - { offset: 0x13BE95, size: 0x8, addend: 0x0, symName: __ZN4absl12lts_2024011613base_internal10CycleClock9FrequencyEv, symObjAddr: 0x4, symBinAddr: 0x254D4, symSize: 0xC }
  - { offset: 0x13DDA2, size: 0x8, addend: 0x0, symName: __ZN4absl12lts_2024011616strings_internal32CappedDamerauLevenshteinDistanceENS0_11string_viewES2_h, symObjAddr: 0x0, symBinAddr: 0x254E0, symSize: 0x360 }
  - { offset: 0x13F284, size: 0x8, addend: 0x0, symName: __ZN4absl12lts_2024011616strings_internal32CappedDamerauLevenshteinDistanceENS0_11string_viewES2_h, symObjAddr: 0x0, symBinAddr: 0x254E0, symSize: 0x360 }
  - { offset: 0x13F5B3, size: 0x8, addend: 0x0, symName: __ZN4absl12lts_2024011616strings_internal32CappedDamerauLevenshteinDistanceENS0_11string_viewES2_h.cold.1, symObjAddr: 0x360, symBinAddr: 0x62A78, symSize: 0x24 }
  - { offset: 0x13F719, size: 0x8, addend: 0x0, symName: __ZN4absl12lts_2024011616strings_internal32CappedDamerauLevenshteinDistanceENS0_11string_viewES2_h.cold.1, symObjAddr: 0x360, symBinAddr: 0x62A78, symSize: 0x24 }
  - { offset: 0x13F75C, size: 0x8, addend: 0x0, symName: _OUTLINED_FUNCTION_0, symObjAddr: 0x3CC, symBinAddr: 0x25840, symSize: 0x8 }
  - { offset: 0x141647, size: 0x8, addend: 0x0, symName: __ZN4absl12lts_2024011618debugging_internal8DemangleEPKcPcm, symObjAddr: 0x0, symBinAddr: 0x25848, symSize: 0x120 }
  - { offset: 0x141683, size: 0x8, addend: 0x0, symName: __ZN4absl12lts_2024011618debugging_internalL16kBuiltinTypeListE, symObjAddr: 0x34E0, symBinAddr: 0x81048, symSize: 0x0 }
  - { offset: 0x1416D3, size: 0x8, addend: 0x0, symName: __ZN4absl12lts_2024011618debugging_internalL13kOperatorListE, symObjAddr: 0x37E0, symBinAddr: 0x81348, symSize: 0x0 }
  - { offset: 0x1416ED, size: 0x8, addend: 0x0, symName: __ZN4absl12lts_2024011618debugging_internalL17kSubstitutionListE, symObjAddr: 0x3C90, symBinAddr: 0x817F8, symSize: 0x0 }
  - { offset: 0x14193D, size: 0x8, addend: 0x0, symName: __ZN4absl12lts_2024011618debugging_internal8DemangleEPKcPcm, symObjAddr: 0x0, symBinAddr: 0x25848, symSize: 0x120 }
  - { offset: 0x141B2D, size: 0x8, addend: 0x0, symName: __ZN4absl12lts_2024011618debugging_internalL16ParseMangledNameEPNS1_5StateE, symObjAddr: 0x1C0, symBinAddr: 0x25A08, symSize: 0x80 }
  - { offset: 0x141C37, size: 0x8, addend: 0x0, symName: __ZN4absl12lts_2024011618debugging_internalL11MaybeAppendEPNS1_5StateEPKc, symObjAddr: 0x240, symBinAddr: 0x25A88, symSize: 0x38 }
  - { offset: 0x141CD9, size: 0x8, addend: 0x0, symName: __ZN4absl12lts_2024011618debugging_internal14DemangleStringEPKc, symObjAddr: 0x120, symBinAddr: 0x25968, symSize: 0xA0 }
  - { offset: 0x141E98, size: 0x8, addend: 0x0, symName: __ZN4absl12lts_2024011618debugging_internalL17ParseTwoCharTokenEPNS1_5StateEPKc, symObjAddr: 0x278, symBinAddr: 0x25AC0, symSize: 0x78 }
  - { offset: 0x141F7A, size: 0x8, addend: 0x0, symName: __ZN4absl12lts_2024011618debugging_internalL13ParseEncodingEPNS1_5StateE, symObjAddr: 0x2F0, symBinAddr: 0x25B38, symSize: 0x370 }
  - { offset: 0x1423FE, size: 0x8, addend: 0x0, symName: __ZN4absl12lts_2024011618debugging_internalL21MaybeAppendWithLengthEPNS1_5StateEPKcm, symObjAddr: 0x1C9C, symBinAddr: 0x274E4, symSize: 0xD4 }
  - { offset: 0x142510, size: 0x8, addend: 0x0, symName: __ZN4absl12lts_2024011618debugging_internalL9ParseNameEPNS1_5StateE, symObjAddr: 0x660, symBinAddr: 0x25EA8, symSize: 0x288 }
  - { offset: 0x1429A5, size: 0x8, addend: 0x0, symName: __ZN4absl12lts_2024011618debugging_internalL21ParseBareFunctionTypeEPNS1_5StateE, symObjAddr: 0x8E8, symBinAddr: 0x26130, symSize: 0xE8 }
  - { offset: 0x142B34, size: 0x8, addend: 0x0, symName: __ZN4absl12lts_2024011618debugging_internalL17ParseOneCharTokenEPNS1_5StateEc, symObjAddr: 0xD88, symBinAddr: 0x265D0, symSize: 0x60 }
  - { offset: 0x142C17, size: 0x8, addend: 0x0, symName: __ZN4absl12lts_2024011618debugging_internalL14ParseCharClassEPNS1_5StateEPKc, symObjAddr: 0xFC8, symBinAddr: 0x26810, symSize: 0x78 }
  - { offset: 0x142D09, size: 0x8, addend: 0x0, symName: __ZN4absl12lts_2024011618debugging_internalL9ParseTypeEPNS1_5StateE, symObjAddr: 0x1458, symBinAddr: 0x26CA0, symSize: 0x4E0 }
  - { offset: 0x1435D6, size: 0x8, addend: 0x0, symName: __ZN4absl12lts_2024011618debugging_internalL15ParseCallOffsetEPNS1_5StateE, symObjAddr: 0x2D94, symBinAddr: 0x285DC, symSize: 0x17C }
  - { offset: 0x143877, size: 0x8, addend: 0x0, symName: __ZN4absl12lts_2024011618debugging_internalL11ParseNumberEPNS1_5StateEPi, symObjAddr: 0x12E0, symBinAddr: 0x26B28, symSize: 0xCC }
  - { offset: 0x143A9D, size: 0x8, addend: 0x0, symName: __ZN4absl12lts_2024011618debugging_internalL17ParseCVQualifiersEPNS1_5StateE, symObjAddr: 0xDE8, symBinAddr: 0x26630, symSize: 0x98 }
  - { offset: 0x143BB2, size: 0x8, addend: 0x0, symName: __ZN4absl12lts_2024011618debugging_internalL11ParsePrefixEPNS1_5StateE, symObjAddr: 0xE80, symBinAddr: 0x266C8, symSize: 0x148 }
  - { offset: 0x143DAE, size: 0x8, addend: 0x0, symName: __ZN4absl12lts_2024011618debugging_internalL18ParseDiscriminatorEPNS1_5StateE, symObjAddr: 0x28C0, symBinAddr: 0x28108, symSize: 0x88 }
  - { offset: 0x143EA8, size: 0x8, addend: 0x0, symName: __ZN4absl12lts_2024011618debugging_internalL17ParseSubstitutionEPNS1_5StateEb, symObjAddr: 0x9D0, symBinAddr: 0x26218, symSize: 0x1E8 }
  - { offset: 0x144114, size: 0x8, addend: 0x0, symName: __ZN4absl12lts_2024011618debugging_internalL17ParseTemplateArgsEPNS1_5StateE, symObjAddr: 0xBB8, symBinAddr: 0x26400, symSize: 0x108 }
  - { offset: 0x1442D6, size: 0x8, addend: 0x0, symName: __ZN4absl12lts_2024011618debugging_internalL17ParseUnscopedNameEPNS1_5StateE, symObjAddr: 0xCC0, symBinAddr: 0x26508, symSize: 0xC8 }
  - { offset: 0x144482, size: 0x8, addend: 0x0, symName: __ZN4absl12lts_2024011618debugging_internalL16ParseTemplateArgEPNS1_5StateE, symObjAddr: 0x2948, symBinAddr: 0x28190, symSize: 0x13C }
  - { offset: 0x14467B, size: 0x8, addend: 0x0, symName: __ZN4absl12lts_2024011618debugging_internalL20ParseUnqualifiedNameEPNS1_5StateE, symObjAddr: 0x2B20, symBinAddr: 0x28368, symSize: 0x274 }
  - { offset: 0x144A9A, size: 0x8, addend: 0x0, symName: __ZN4absl12lts_2024011618debugging_internalL18ParseTemplateParamEPNS1_5StateE, symObjAddr: 0x1040, symBinAddr: 0x26888, symSize: 0xCC }
  - { offset: 0x144BD5, size: 0x8, addend: 0x0, symName: __ZN4absl12lts_2024011618debugging_internalL20ParseUnnamedTypeNameEPNS1_5StateE, symObjAddr: 0x110C, symBinAddr: 0x26954, symSize: 0x1D4 }
  - { offset: 0x144E4C, size: 0x8, addend: 0x0, symName: __ZN4absl12lts_2024011618debugging_internalL18MaybeAppendDecimalEPNS1_5StateEi, symObjAddr: 0x13AC, symBinAddr: 0x26BF4, symSize: 0xAC }
  - { offset: 0x144ED5, size: 0x8, addend: 0x0, symName: __ZN4absl12lts_2024011618debugging_internalL6AppendEPNS1_5StateEPKcm, symObjAddr: 0x1938, symBinAddr: 0x27180, symSize: 0x58 }
  - { offset: 0x144F1D, size: 0x8, addend: 0x0, symName: __ZN4absl12lts_2024011618debugging_internalL6AppendEPNS1_5StateEPKcm, symObjAddr: 0x1938, symBinAddr: 0x27180, symSize: 0x58 }
  - { offset: 0x145056, size: 0x8, addend: 0x0, symName: __ZN4absl12lts_2024011618debugging_internalL15ParseSourceNameEPNS1_5StateE, symObjAddr: 0x1990, symBinAddr: 0x271D8, symSize: 0x164 }
  - { offset: 0x14528A, size: 0x8, addend: 0x0, symName: __ZN4absl12lts_2024011618debugging_internalL15ParseExpressionEPNS1_5StateE, symObjAddr: 0x1D70, symBinAddr: 0x275B8, symSize: 0x388 }
  - { offset: 0x1457B4, size: 0x8, addend: 0x0, symName: __ZN4absl12lts_2024011618debugging_internalL18ParseClassEnumTypeEPNS1_5StateE, symObjAddr: 0x1AF4, symBinAddr: 0x2733C, symSize: 0x6C }
  - { offset: 0x1458A9, size: 0x8, addend: 0x0, symName: __ZN4absl12lts_2024011618debugging_internalL13ParseDecltypeEPNS1_5StateE, symObjAddr: 0x1B60, symBinAddr: 0x273A8, symSize: 0xC8 }
  - { offset: 0x1459F5, size: 0x8, addend: 0x0, symName: __ZN4absl12lts_2024011618debugging_internalL26ParseTemplateTemplateParamEPNS1_5StateE, symObjAddr: 0x1C28, symBinAddr: 0x27470, symSize: 0x74 }
  - { offset: 0x145C15, size: 0x8, addend: 0x0, symName: __ZN4absl12lts_2024011618debugging_internalL16ParseExprPrimaryEPNS1_5StateE, symObjAddr: 0x20F8, symBinAddr: 0x27940, symSize: 0x104 }
  - { offset: 0x145DB7, size: 0x8, addend: 0x0, symName: __ZN4absl12lts_2024011618debugging_internalL17ParseOperatorNameEPNS1_5StateEPi, symObjAddr: 0x21FC, symBinAddr: 0x27A44, symSize: 0x250 }
  - { offset: 0x1460BC, size: 0x8, addend: 0x0, symName: __ZN4absl12lts_2024011618debugging_internalL19ParseUnresolvedNameEPNS1_5StateE, symObjAddr: 0x244C, symBinAddr: 0x27C94, symSize: 0x224 }
  - { offset: 0x1464E0, size: 0x8, addend: 0x0, symName: __ZN4absl12lts_2024011618debugging_internalL18ParseExprCastValueEPNS1_5StateE, symObjAddr: 0x2670, symBinAddr: 0x27EB8, symSize: 0x130 }
  - { offset: 0x146731, size: 0x8, addend: 0x0, symName: __ZN4absl12lts_2024011618debugging_internalL23ParseBaseUnresolvedNameEPNS1_5StateE, symObjAddr: 0x27A0, symBinAddr: 0x27FE8, symSize: 0x120 }
  - { offset: 0x14697A, size: 0x8, addend: 0x0, symName: __ZN4absl12lts_2024011618debugging_internalL20ParseLocalSourceNameEPNS1_5StateE, symObjAddr: 0x2A84, symBinAddr: 0x282CC, symSize: 0x9C }
  - { offset: 0x14B6BC, size: 0x8, addend: 0x0, symName: __ZN4absl12lts_2024011615random_internal24InitDiscreteDistributionEPNSt3__16vectorIdNS2_9allocatorIdEEEE, symObjAddr: 0x0, symBinAddr: 0x28758, symSize: 0x394 }
  - { offset: 0x14EF00, size: 0x8, addend: 0x0, symName: __ZN4absl12lts_2024011615random_internal24InitDiscreteDistributionEPNSt3__16vectorIdNS2_9allocatorIdEEEE.cold.1, symObjAddr: 0x704, symBinAddr: 0x62A9C, symSize: 0x28 }
  - { offset: 0x15071D, size: 0x8, addend: 0x0, symName: __ZN4absl12lts_2024011615random_internal24InitDiscreteDistributionEPNSt3__16vectorIdNS2_9allocatorIdEEEE, symObjAddr: 0x0, symBinAddr: 0x28758, symSize: 0x394 }
  - { offset: 0x151615, size: 0x8, addend: 0x0, symName: __ZNSt3__16vectorINS_4pairIdmEENS_9allocatorIS2_EEE7reserveEm, symObjAddr: 0x394, symBinAddr: 0x28AEC, symSize: 0x8C }
  - { offset: 0x151845, size: 0x8, addend: 0x0, symName: __ZNSt3__16vectorImNS_9allocatorImEEE9push_backB8ne200100EOm, symObjAddr: 0x420, symBinAddr: 0x28B78, symSize: 0xDC }
  - { offset: 0x151850, size: 0x8, addend: 0x0, symName: __ZNSt3__16vectorImNS_9allocatorImEEE9push_backB8ne200100EOm, symObjAddr: 0x420, symBinAddr: 0x28B78, symSize: 0xDC }
  - { offset: 0x151E12, size: 0x8, addend: 0x0, symName: __ZN4absl12lts_2024011615random_internal24InitDiscreteDistributionEPNSt3__16vectorIdNS2_9allocatorIdEEEE.cold.2, symObjAddr: 0x72C, symBinAddr: 0x62AC4, symSize: 0x28 }
  - { offset: 0x151E2A, size: 0x8, addend: 0x0, symName: __ZN4absl12lts_2024011615random_internal24InitDiscreteDistributionEPNSt3__16vectorIdNS2_9allocatorIdEEEE.cold.1, symObjAddr: 0x704, symBinAddr: 0x62A9C, symSize: 0x28 }
  - { offset: 0x1541C2, size: 0x8, addend: 0x0, symName: __ZN4absl12lts_2024011613time_internal12IDivDurationEbNS0_8DurationES2_PS2_, symObjAddr: 0x0, symBinAddr: 0x28C54, symSize: 0x3B4 }
  - { offset: 0x154213, size: 0x8, addend: 0x0, symName: __ZN4absl12lts_2024011612_GLOBAL__N_112kDisplayNanoE, symObjAddr: 0x1CA8, symBinAddr: 0x818B8, symSize: 0x0 }
  - { offset: 0x154260, size: 0x8, addend: 0x0, symName: __ZN4absl12lts_2024011612_GLOBAL__N_113kDisplayMicroE, symObjAddr: 0x1CC8, symBinAddr: 0x818D8, symSize: 0x0 }
  - { offset: 0x15427B, size: 0x8, addend: 0x0, symName: __ZN4absl12lts_2024011612_GLOBAL__N_113kDisplayMilliE, symObjAddr: 0x1CE8, symBinAddr: 0x818F8, symSize: 0x0 }
  - { offset: 0x154296, size: 0x8, addend: 0x0, symName: __ZN4absl12lts_2024011612_GLOBAL__N_112kDisplayHourE, symObjAddr: 0x1D08, symBinAddr: 0x81918, symSize: 0x0 }
  - { offset: 0x1542B1, size: 0x8, addend: 0x0, symName: __ZN4absl12lts_2024011612_GLOBAL__N_111kDisplayMinE, symObjAddr: 0x1D28, symBinAddr: 0x81938, symSize: 0x0 }
  - { offset: 0x1542CC, size: 0x8, addend: 0x0, symName: __ZN4absl12lts_2024011612_GLOBAL__N_111kDisplaySecE, symObjAddr: 0x1D48, symBinAddr: 0x81958, symSize: 0x0 }
  - { offset: 0x1546DE, size: 0x8, addend: 0x0, symName: __ZN4absl12lts_2024011612_GLOBAL__N_116AppendNumberUnitEPNSt3__112basic_stringIcNS2_11char_traitsIcEENS2_9allocatorIcEEEExNS1_11DisplayUnitE, symObjAddr: 0x1778, symBinAddr: 0x2A3CC, symSize: 0x120 }
  - { offset: 0x15479F, size: 0x8, addend: 0x0, symName: __ZN4absl12lts_2024011612_GLOBAL__N_116AppendNumberUnitEPNSt3__112basic_stringIcNS2_11char_traitsIcEENS2_9allocatorIcEEEEdNS1_11DisplayUnitE, symObjAddr: 0x1564, symBinAddr: 0x2A1B8, symSize: 0x214 }
  - { offset: 0x154B2E, size: 0x8, addend: 0x0, symName: __ZN4absl12lts_2024011613time_internal12IDivDurationEbNS0_8DurationES2_PS2_, symObjAddr: 0x0, symBinAddr: 0x28C54, symSize: 0x3B4 }
  - { offset: 0x1554E0, size: 0x8, addend: 0x0, symName: __ZN4absl12lts_20240116ngENS0_8DurationE, symObjAddr: 0x3B4, symBinAddr: 0x29008, symSize: 0x50 }
  - { offset: 0x155512, size: 0x8, addend: 0x0, symName: __ZN4absl12lts_20240116ngENS0_8DurationE, symObjAddr: 0x3B4, symBinAddr: 0x29008, symSize: 0x50 }
  - { offset: 0x1555A2, size: 0x8, addend: 0x0, symName: __ZN4absl12lts_2024011612FDivDurationENS0_8DurationES1_, symObjAddr: 0xBB0, symBinAddr: 0x29804, symSize: 0x68 }
  - { offset: 0x155655, size: 0x8, addend: 0x0, symName: __ZN4absl12lts_202401165TruncENS0_8DurationES1_, symObjAddr: 0xC18, symBinAddr: 0x2986C, symSize: 0x70 }
  - { offset: 0x155797, size: 0x8, addend: 0x0, symName: __ZN4absl12lts_202401165FloorENS0_8DurationES1_, symObjAddr: 0xC88, symBinAddr: 0x298DC, symSize: 0xCC }
  - { offset: 0x155951, size: 0x8, addend: 0x0, symName: __ZN4absl12lts_202401164CeilENS0_8DurationES1_, symObjAddr: 0xD54, symBinAddr: 0x299A8, symSize: 0xCC }
  - { offset: 0x155AE4, size: 0x8, addend: 0x0, symName: __ZN4absl12lts_2024011620DurationFromTimespecE8timespec, symObjAddr: 0xE20, symBinAddr: 0x29A74, symSize: 0x88 }
  - { offset: 0x155C20, size: 0x8, addend: 0x0, symName: __ZN4absl12lts_2024011619DurationFromTimevalE7timeval, symObjAddr: 0xEA8, symBinAddr: 0x29AFC, symSize: 0x90 }
  - { offset: 0x155D29, size: 0x8, addend: 0x0, symName: __ZN4absl12lts_2024011618ToInt64NanosecondsENS0_8DurationE, symObjAddr: 0xF38, symBinAddr: 0x29B8C, symSize: 0x54 }
  - { offset: 0x155DA2, size: 0x8, addend: 0x0, symName: __ZN4absl12lts_2024011619ToInt64MicrosecondsENS0_8DurationE, symObjAddr: 0xF8C, symBinAddr: 0x29BE0, symSize: 0x64 }
  - { offset: 0x155E19, size: 0x8, addend: 0x0, symName: __ZN4absl12lts_2024011619ToInt64MillisecondsENS0_8DurationE, symObjAddr: 0xFF0, symBinAddr: 0x29C44, symSize: 0x64 }
  - { offset: 0x155E89, size: 0x8, addend: 0x0, symName: __ZN4absl12lts_2024011614ToInt64SecondsENS0_8DurationE, symObjAddr: 0x1054, symBinAddr: 0x29CA8, symSize: 0x28 }
  - { offset: 0x155EE8, size: 0x8, addend: 0x0, symName: __ZN4absl12lts_2024011614ToInt64MinutesENS0_8DurationE, symObjAddr: 0x107C, symBinAddr: 0x29CD0, symSize: 0x38 }
  - { offset: 0x155F0B, size: 0x8, addend: 0x0, symName: __ZN4absl12lts_2024011612ToInt64HoursENS0_8DurationE, symObjAddr: 0x10B4, symBinAddr: 0x29D08, symSize: 0x3C }
  - { offset: 0x155F2D, size: 0x8, addend: 0x0, symName: __ZN4absl12lts_2024011619ToDoubleNanosecondsENS0_8DurationE, symObjAddr: 0x10F0, symBinAddr: 0x29D44, symSize: 0x10 }
  - { offset: 0x155F82, size: 0x8, addend: 0x0, symName: __ZN4absl12lts_2024011620ToDoubleMicrosecondsENS0_8DurationE, symObjAddr: 0x1100, symBinAddr: 0x29D54, symSize: 0x10 }
  - { offset: 0x155FD9, size: 0x8, addend: 0x0, symName: __ZN4absl12lts_2024011620ToDoubleMillisecondsENS0_8DurationE, symObjAddr: 0x1110, symBinAddr: 0x29D64, symSize: 0x14 }
  - { offset: 0x156029, size: 0x8, addend: 0x0, symName: __ZN4absl12lts_2024011615ToDoubleSecondsENS0_8DurationE, symObjAddr: 0x1124, symBinAddr: 0x29D78, symSize: 0x10 }
  - { offset: 0x15607E, size: 0x8, addend: 0x0, symName: __ZN4absl12lts_2024011615ToDoubleMinutesENS0_8DurationE, symObjAddr: 0x1134, symBinAddr: 0x29D88, symSize: 0x10 }
  - { offset: 0x1560D4, size: 0x8, addend: 0x0, symName: __ZN4absl12lts_2024011613ToDoubleHoursENS0_8DurationE, symObjAddr: 0x1144, symBinAddr: 0x29D98, symSize: 0x10 }
  - { offset: 0x15612B, size: 0x8, addend: 0x0, symName: __ZN4absl12lts_2024011610ToTimespecENS0_8DurationE, symObjAddr: 0x1154, symBinAddr: 0x29DA8, symSize: 0x6C }
  - { offset: 0x1561D6, size: 0x8, addend: 0x0, symName: __ZN4absl12lts_202401169ToTimevalENS0_8DurationE, symObjAddr: 0x11C0, symBinAddr: 0x29E14, symSize: 0x68 }
  - { offset: 0x15623D, size: 0x8, addend: 0x0, symName: __ZN4absl12lts_2024011619ToChronoNanosecondsENS0_8DurationE, symObjAddr: 0x1228, symBinAddr: 0x29E7C, symSize: 0x20 }
  - { offset: 0x1562CA, size: 0x8, addend: 0x0, symName: __ZN4absl12lts_2024011620ToChronoMicrosecondsENS0_8DurationE, symObjAddr: 0x1248, symBinAddr: 0x29E9C, symSize: 0x20 }
  - { offset: 0x156357, size: 0x8, addend: 0x0, symName: __ZN4absl12lts_2024011620ToChronoMillisecondsENS0_8DurationE, symObjAddr: 0x1268, symBinAddr: 0x29EBC, symSize: 0x20 }
  - { offset: 0x1563E4, size: 0x8, addend: 0x0, symName: __ZN4absl12lts_2024011615ToChronoSecondsENS0_8DurationE, symObjAddr: 0x1288, symBinAddr: 0x29EDC, symSize: 0x2C }
  - { offset: 0x15645C, size: 0x8, addend: 0x0, symName: __ZN4absl12lts_2024011615ToChronoMinutesENS0_8DurationE, symObjAddr: 0x12B4, symBinAddr: 0x29F08, symSize: 0x40 }
  - { offset: 0x15653F, size: 0x8, addend: 0x0, symName: __ZN4absl12lts_2024011613ToChronoHoursENS0_8DurationE, symObjAddr: 0x12F4, symBinAddr: 0x29F48, symSize: 0x44 }
  - { offset: 0x15662E, size: 0x8, addend: 0x0, symName: __ZN4absl12lts_2024011614FormatDurationENS0_8DurationE, symObjAddr: 0x1338, symBinAddr: 0x29F8C, symSize: 0x22C }
  - { offset: 0x156BDD, size: 0x8, addend: 0x0, symName: __ZN4absl12lts_2024011613ParseDurationENS0_11string_viewEPNS0_8DurationE, symObjAddr: 0x1898, symBinAddr: 0x2A4EC, symSize: 0x384 }
  - { offset: 0x156C5E, size: 0x8, addend: 0x0, symName: __ZN4absl12lts_2024011613ParseDurationENS0_11string_viewEPNS0_8DurationE, symObjAddr: 0x1898, symBinAddr: 0x2A4EC, symSize: 0x384 }
  - { offset: 0x156C7C, size: 0x8, addend: 0x0, symName: __ZN4absl12lts_2024011613ParseDurationENS0_11string_viewEPNS0_8DurationE, symObjAddr: 0x1898, symBinAddr: 0x2A4EC, symSize: 0x384 }
  - { offset: 0x156FAC, size: 0x8, addend: 0x0, symName: __ZN4absl12lts_2024011613AbslParseFlagENS0_11string_viewEPNS0_8DurationEPNSt3__112basic_stringIcNS4_11char_traitsIcEENS4_9allocatorIcEEEE, symObjAddr: 0x1C1C, symBinAddr: 0x2A870, symSize: 0x4 }
  - { offset: 0x156FF3, size: 0x8, addend: 0x0, symName: __ZN4absl12lts_2024011613AbslParseFlagENS0_11string_viewEPNS0_8DurationEPNSt3__112basic_stringIcNS4_11char_traitsIcEENS4_9allocatorIcEEEE, symObjAddr: 0x1C1C, symBinAddr: 0x2A870, symSize: 0x4 }
  - { offset: 0x157013, size: 0x8, addend: 0x0, symName: __ZN4absl12lts_2024011615AbslUnparseFlagENS0_8DurationE, symObjAddr: 0x1C20, symBinAddr: 0x2A874, symSize: 0x8 }
  - { offset: 0x157061, size: 0x8, addend: 0x0, symName: __ZN4absl12lts_202401169ParseFlagERKNSt3__112basic_stringIcNS1_11char_traitsIcEENS1_9allocatorIcEEEEPNS0_8DurationEPS7_, symObjAddr: 0x1C28, symBinAddr: 0x2A87C, symSize: 0x20 }
  - { offset: 0x15713A, size: 0x8, addend: 0x0, symName: __ZN4absl12lts_2024011611UnparseFlagENS0_8DurationE, symObjAddr: 0x1C48, symBinAddr: 0x2A89C, symSize: 0x8 }
  - { offset: 0x15A798, size: 0x8, addend: 0x0, symName: __ZN4absl12lts_202401168DurationpLES1_, symObjAddr: 0x404, symBinAddr: 0x29058, symSize: 0xBC }
  - { offset: 0x15A87D, size: 0x8, addend: 0x0, symName: __ZN4absl12lts_202401168DurationmIES1_, symObjAddr: 0x4C0, symBinAddr: 0x29114, symSize: 0xA4 }
  - { offset: 0x15A999, size: 0x8, addend: 0x0, symName: __ZN4absl12lts_202401168DurationmLEx, symObjAddr: 0x564, symBinAddr: 0x291B8, symSize: 0x208 }
  - { offset: 0x15AD2F, size: 0x8, addend: 0x0, symName: __ZN4absl12lts_202401168DurationmLEd, symObjAddr: 0x76C, symBinAddr: 0x293C0, symSize: 0x164 }
  - { offset: 0x15AF4D, size: 0x8, addend: 0x0, symName: __ZN4absl12lts_202401168DurationdVEx, symObjAddr: 0x8D0, symBinAddr: 0x29524, symSize: 0x140 }
  - { offset: 0x15B205, size: 0x8, addend: 0x0, symName: __ZN4absl12lts_202401168DurationdVEd, symObjAddr: 0xA10, symBinAddr: 0x29664, symSize: 0x160 }
  - { offset: 0x15B3C5, size: 0x8, addend: 0x0, symName: __ZN4absl12lts_202401168DurationrMES1_, symObjAddr: 0xB70, symBinAddr: 0x297C4, symSize: 0x40 }
  - { offset: 0x15D6C8, size: 0x8, addend: 0x0, symName: __ZN4absl12lts_202401169CUnescapeENS0_11string_viewEPNSt3__112basic_stringIcNS2_11char_traitsIcEENS2_9allocatorIcEEEES9_, symObjAddr: 0x0, symBinAddr: 0x2A8A4, symSize: 0x874 }
  - { offset: 0x15D6FB, size: 0x8, addend: 0x0, symName: __ZN4absl12lts_2024011612_GLOBAL__N_112kCEscapedLenE, symObjAddr: 0x1CC8, symBinAddr: 0x6A940, symSize: 0x0 }
  - { offset: 0x15D716, size: 0x8, addend: 0x0, symName: __ZN4absl12lts_2024011612_GLOBAL__N_19kUnBase64E, symObjAddr: 0x1AC8, symBinAddr: 0x6A740, symSize: 0x0 }
  - { offset: 0x15D731, size: 0x8, addend: 0x0, symName: __ZN4absl12lts_2024011612_GLOBAL__N_116kUnWebSafeBase64E, symObjAddr: 0x1BC8, symBinAddr: 0x6A840, symSize: 0x0 }
  - { offset: 0x15D74C, size: 0x8, addend: 0x0, symName: __ZN4absl12lts_2024011612_GLOBAL__N_116kHexValueLenientE, symObjAddr: 0x1DC8, symBinAddr: 0x6AA40, symSize: 0x0 }
  - { offset: 0x15DA40, size: 0x8, addend: 0x0, symName: __ZN4absl12lts_2024011612_GLOBAL__N_115CEscapeInternalENS0_11string_viewEbb, symObjAddr: 0xB34, symBinAddr: 0x2B3D8, symSize: 0x210 }
  - { offset: 0x15DC85, size: 0x8, addend: 0x0, symName: __ZN4absl12lts_2024011612_GLOBAL__N_122Base64UnescapeInternalINSt3__112basic_stringIcNS3_11char_traitsIcEENS3_9allocatorIcEEEEEEbPKcmPT_PKa, symObjAddr: 0xD68, symBinAddr: 0x2B60C, symSize: 0x67C }
  - { offset: 0x15E0A3, size: 0x8, addend: 0x0, symName: __ZN4absl12lts_2024011621WebSafeBase64UnescapeENS0_11string_viewEPNSt3__112basic_stringIcNS2_11char_traitsIcEENS2_9allocatorIcEEEE, symObjAddr: 0x13E4, symBinAddr: 0x2BC88, symSize: 0xC }
  - { offset: 0x15E2D0, size: 0x8, addend: 0x0, symName: __ZN4absl12lts_2024011616strings_internal20Base64EscapeInternalINSt3__112basic_stringIcNS3_11char_traitsIcEENS3_9allocatorIcEEEEEEvPKhmPT_bPKc, symObjAddr: 0x1400, symBinAddr: 0x2BCA4, symSize: 0x98 }
  - { offset: 0x15E431, size: 0x8, addend: 0x0, symName: __ZN4absl12lts_2024011619WebSafeBase64EscapeENS0_11string_viewEPNSt3__112basic_stringIcNS2_11char_traitsIcEENS2_9allocatorIcEEEE, symObjAddr: 0x1498, symBinAddr: 0x2BD3C, symSize: 0x10 }
  - { offset: 0x15E4A9, size: 0x8, addend: 0x0, symName: __ZN4absl12lts_202401169CUnescapeENS0_11string_viewEPNSt3__112basic_stringIcNS2_11char_traitsIcEENS2_9allocatorIcEEEES9_, symObjAddr: 0x0, symBinAddr: 0x2A8A4, symSize: 0x874 }
  - { offset: 0x15F364, size: 0x8, addend: 0x0, symName: __ZN4absl12lts_202401167CEscapeENS0_11string_viewE, symObjAddr: 0x874, symBinAddr: 0x2B118, symSize: 0x2B4 }
  - { offset: 0x15FAE4, size: 0x8, addend: 0x0, symName: __ZN4absl12lts_2024011610CHexEscapeENS0_11string_viewE, symObjAddr: 0xB28, symBinAddr: 0x2B3CC, symSize: 0xC }
  - { offset: 0x15FB58, size: 0x8, addend: 0x0, symName: __ZN4absl12lts_2024011615Utf8SafeCEscapeENS0_11string_viewE, symObjAddr: 0xD44, symBinAddr: 0x2B5E8, symSize: 0xC }
  - { offset: 0x15FBB0, size: 0x8, addend: 0x0, symName: __ZN4absl12lts_2024011618Utf8SafeCHexEscapeENS0_11string_viewE, symObjAddr: 0xD50, symBinAddr: 0x2B5F4, symSize: 0xC }
  - { offset: 0x15FC08, size: 0x8, addend: 0x0, symName: __ZN4absl12lts_2024011614Base64UnescapeENS0_11string_viewEPNSt3__112basic_stringIcNS2_11char_traitsIcEENS2_9allocatorIcEEEE, symObjAddr: 0xD5C, symBinAddr: 0x2B600, symSize: 0xC }
  - { offset: 0x15FC84, size: 0x8, addend: 0x0, symName: __ZN4absl12lts_2024011621WebSafeBase64UnescapeENS0_11string_viewEPNSt3__112basic_stringIcNS2_11char_traitsIcEENS2_9allocatorIcEEEE, symObjAddr: 0x13E4, symBinAddr: 0x2BC88, symSize: 0xC }
  - { offset: 0x15FCE5, size: 0x8, addend: 0x0, symName: __ZN4absl12lts_2024011612Base64EscapeENS0_11string_viewEPNSt3__112basic_stringIcNS2_11char_traitsIcEENS2_9allocatorIcEEEE, symObjAddr: 0x13F0, symBinAddr: 0x2BC94, symSize: 0x10 }
  - { offset: 0x15FD47, size: 0x8, addend: 0x0, symName: __ZN4absl12lts_2024011619WebSafeBase64EscapeENS0_11string_viewEPNSt3__112basic_stringIcNS2_11char_traitsIcEENS2_9allocatorIcEEEE, symObjAddr: 0x1498, symBinAddr: 0x2BD3C, symSize: 0x10 }
  - { offset: 0x15FDA8, size: 0x8, addend: 0x0, symName: __ZN4absl12lts_2024011612Base64EscapeENS0_11string_viewE, symObjAddr: 0x14A8, symBinAddr: 0x2BD4C, symSize: 0x54 }
  - { offset: 0x15FF35, size: 0x8, addend: 0x0, symName: __ZN4absl12lts_2024011619WebSafeBase64EscapeENS0_11string_viewE, symObjAddr: 0x14FC, symBinAddr: 0x2BDA0, symSize: 0x54 }
  - { offset: 0x1600C2, size: 0x8, addend: 0x0, symName: __ZN4absl12lts_2024011616HexStringToBytesENS0_11string_viewE, symObjAddr: 0x1550, symBinAddr: 0x2BDF4, symSize: 0xAC }
  - { offset: 0x1602DC, size: 0x8, addend: 0x0, symName: __ZN4absl12lts_2024011616BytesToHexStringENS0_11string_viewE, symObjAddr: 0x15FC, symBinAddr: 0x2BEA0, symSize: 0x8C }
  - { offset: 0x164069, size: 0x8, addend: 0x0, symName: __ZN4absl12lts_2024011612_GLOBAL__N_122Base64UnescapeInternalINSt3__112basic_stringIcNS3_11char_traitsIcEENS3_9allocatorIcEEEEEEbPKcmPT_PKa.cold.1, symObjAddr: 0x1928, symBinAddr: 0x62AEC, symSize: 0x28 }
  - { offset: 0x164081, size: 0x8, addend: 0x0, symName: __ZN4absl12lts_2024011612_GLOBAL__N_122Base64UnescapeInternalINSt3__112basic_stringIcNS3_11char_traitsIcEENS3_9allocatorIcEEEEEEbPKcmPT_PKa.cold.2, symObjAddr: 0x1950, symBinAddr: 0x62B14, symSize: 0x4C }
  - { offset: 0x1640AF, size: 0x8, addend: 0x0, symName: __ZN4absl12lts_2024011616strings_internal20Base64EscapeInternalINSt3__112basic_stringIcNS3_11char_traitsIcEENS3_9allocatorIcEEEEEEvPKhmPT_bPKc.cold.1, symObjAddr: 0x199C, symBinAddr: 0x62B60, symSize: 0x28 }
  - { offset: 0x16629B, size: 0x8, addend: 0x0, symName: __ZN4absl12lts_2024011616strings_internal33CalculateBase64EscapedLenInternalEmb, symObjAddr: 0x0, symBinAddr: 0x2BF2C, symSize: 0x60 }
  - { offset: 0x1662C4, size: 0x8, addend: 0x0, symName: __ZN4absl12lts_2024011616strings_internal12kBase64CharsE, symObjAddr: 0x28C, symBinAddr: 0x6AB40, symSize: 0x0 }
  - { offset: 0x1662DE, size: 0x8, addend: 0x0, symName: __ZN4absl12lts_2024011616strings_internal19kWebSafeBase64CharsE, symObjAddr: 0x2CD, symBinAddr: 0x6AB81, symSize: 0x0 }
  - { offset: 0x1662EC, size: 0x8, addend: 0x0, symName: __ZN4absl12lts_2024011616strings_internal20Base64EscapeInternalEPKhmPcmPKcb, symObjAddr: 0x60, symBinAddr: 0x2BF8C, symSize: 0x1B8 }
  - { offset: 0x166587, size: 0x8, addend: 0x0, symName: __ZN4absl12lts_2024011616strings_internal33CalculateBase64EscapedLenInternalEmb.cold.1, symObjAddr: 0x218, symBinAddr: 0x62B88, symSize: 0x28 }
  - { offset: 0x166592, size: 0x8, addend: 0x0, symName: __ZN4absl12lts_2024011616strings_internal33CalculateBase64EscapedLenInternalEmb, symObjAddr: 0x0, symBinAddr: 0x2BF2C, symSize: 0x60 }
  - { offset: 0x1665E3, size: 0x8, addend: 0x0, symName: __ZN4absl12lts_2024011616strings_internal20Base64EscapeInternalEPKhmPcmPKcb, symObjAddr: 0x60, symBinAddr: 0x2BF8C, symSize: 0x1B8 }
  - { offset: 0x166750, size: 0x8, addend: 0x0, symName: __ZN4absl12lts_2024011616strings_internal33CalculateBase64EscapedLenInternalEmb.cold.1, symObjAddr: 0x218, symBinAddr: 0x62B88, symSize: 0x28 }
  - { offset: 0x166775, size: 0x8, addend: 0x0, symName: __ZN4absl12lts_2024011616strings_internal20Base64EscapeInternalEPKhmPcmPKcb.cold.1, symObjAddr: 0x240, symBinAddr: 0x62BB0, symSize: 0x4C }
  - { offset: 0x1691E9, size: 0x8, addend: 0x0, symName: __ZN4absl12lts_2024011618debugging_internal27RegisterDebugStackTraceHookEPFvPKPviPFvPKcS2_ES2_E, symObjAddr: 0x0, symBinAddr: 0x2C144, symSize: 0xC }
  - { offset: 0x169233, size: 0x8, addend: 0x0, symName: __ZN4absl12lts_2024011618debugging_internal12_GLOBAL__N_122debug_stack_trace_hookE, symObjAddr: 0x88A8, symBinAddr: 0x84398, symSize: 0x0 }
  - { offset: 0x16929D, size: 0x8, addend: 0x0, symName: __ZN4absl12lts_2024011618debugging_internal12_GLOBAL__N_127DumpPCAndFrameSizeAndSymbolEPFvPKcPvES5_S5_S5_iS4_, symObjAddr: 0x1E4, symBinAddr: 0x2C328, symSize: 0xEC }
  - { offset: 0x1694A1, size: 0x8, addend: 0x0, symName: __ZN4absl12lts_2024011618debugging_internal27RegisterDebugStackTraceHookEPFvPKPviPFvPKcS2_ES2_E, symObjAddr: 0x0, symBinAddr: 0x2C144, symSize: 0xC }
  - { offset: 0x1694C9, size: 0x8, addend: 0x0, symName: __ZN4absl12lts_2024011618debugging_internal22GetDebugStackTraceHookEv, symObjAddr: 0xC, symBinAddr: 0x2C150, symSize: 0xC }
  - { offset: 0x1694DC, size: 0x8, addend: 0x0, symName: __ZN4absl12lts_2024011618debugging_internal17GetProgramCounterEPv, symObjAddr: 0x18, symBinAddr: 0x2C15C, symSize: 0x10 }
  - { offset: 0x169526, size: 0x8, addend: 0x0, symName: __ZN4absl12lts_2024011618debugging_internal32DumpPCAndFrameSizesAndStackTraceEPvPKS2_PiiibPFvPKcS2_ES2_, symObjAddr: 0x28, symBinAddr: 0x2C16C, symSize: 0x1BC }
  - { offset: 0x169750, size: 0x8, addend: 0x0, symName: __ZN4absl12lts_2024011618debugging_internal14DumpStackTraceEiibPFvPKcPvES4_, symObjAddr: 0x2D0, symBinAddr: 0x2C414, symSize: 0x1DC }
  - { offset: 0x16C83D, size: 0x8, addend: 0x0, symName: __ZN4absl12lts_2024011618profiling_internal17ExponentialBiased12GetSkipCountEx, symObjAddr: 0x0, symBinAddr: 0x2C5F0, symSize: 0xE8 }
  - { offset: 0x16C923, size: 0x8, addend: 0x0, symName: __ZN4absl12lts_2024011618profiling_internal17ExponentialBiased10InitializeEv, symObjAddr: 0xE8, symBinAddr: 0x2C6D8, symSize: 0x50 }
  - { offset: 0x16C947, size: 0x8, addend: 0x0, symName: __ZZN4absl12lts_2024011618profiling_internal17ExponentialBiased10InitializeEvE11global_rand, symObjAddr: 0x86D4, symBinAddr: 0x843A0, symSize: 0x0 }
  - { offset: 0x16D636, size: 0x8, addend: 0x0, symName: __ZN4absl12lts_2024011618profiling_internal17ExponentialBiased12GetSkipCountEx, symObjAddr: 0x0, symBinAddr: 0x2C5F0, symSize: 0xE8 }
  - { offset: 0x16D7A6, size: 0x8, addend: 0x0, symName: __ZN4absl12lts_2024011618profiling_internal17ExponentialBiased9GetStrideEx, symObjAddr: 0x138, symBinAddr: 0x2C728, symSize: 0x1C }
  - { offset: 0x16F6B4, size: 0x8, addend: 0x0, symName: __ZN4absl12lts_2024011619str_format_internal13FlagsToStringENS1_5FlagsE, symObjAddr: 0x0, symBinAddr: 0x2C744, symSize: 0xCC }
  - { offset: 0x16F6EA, size: 0x8, addend: 0x0, symName: __ZN4absl12lts_2024011619str_format_internal28FormatConversionCharInternal1cE, symObjAddr: 0x378, symBinAddr: 0x6ABD0, symSize: 0x0 }
  - { offset: 0x16F819, size: 0x8, addend: 0x0, symName: __ZN4absl12lts_2024011619str_format_internal28FormatConversionCharInternal1sE, symObjAddr: 0x379, symBinAddr: 0x6ABD1, symSize: 0x0 }
  - { offset: 0x16F82D, size: 0x8, addend: 0x0, symName: __ZN4absl12lts_2024011619str_format_internal28FormatConversionCharInternal1dE, symObjAddr: 0x37A, symBinAddr: 0x6ABD2, symSize: 0x0 }
  - { offset: 0x16F841, size: 0x8, addend: 0x0, symName: __ZN4absl12lts_2024011619str_format_internal28FormatConversionCharInternal1iE, symObjAddr: 0x37B, symBinAddr: 0x6ABD3, symSize: 0x0 }
  - { offset: 0x16F855, size: 0x8, addend: 0x0, symName: __ZN4absl12lts_2024011619str_format_internal28FormatConversionCharInternal1oE, symObjAddr: 0x37C, symBinAddr: 0x6ABD4, symSize: 0x0 }
  - { offset: 0x16F869, size: 0x8, addend: 0x0, symName: __ZN4absl12lts_2024011619str_format_internal28FormatConversionCharInternal1uE, symObjAddr: 0x37D, symBinAddr: 0x6ABD5, symSize: 0x0 }
  - { offset: 0x16F87D, size: 0x8, addend: 0x0, symName: __ZN4absl12lts_2024011619str_format_internal28FormatConversionCharInternal1xE, symObjAddr: 0x37E, symBinAddr: 0x6ABD6, symSize: 0x0 }
  - { offset: 0x16F891, size: 0x8, addend: 0x0, symName: __ZN4absl12lts_2024011619str_format_internal28FormatConversionCharInternal1XE, symObjAddr: 0x37F, symBinAddr: 0x6ABD7, symSize: 0x0 }
  - { offset: 0x16F8A5, size: 0x8, addend: 0x0, symName: __ZN4absl12lts_2024011619str_format_internal28FormatConversionCharInternal1fE, symObjAddr: 0x380, symBinAddr: 0x6ABD8, symSize: 0x0 }
  - { offset: 0x16F8B9, size: 0x8, addend: 0x0, symName: __ZN4absl12lts_2024011619str_format_internal28FormatConversionCharInternal1FE, symObjAddr: 0x381, symBinAddr: 0x6ABD9, symSize: 0x0 }
  - { offset: 0x16F8CD, size: 0x8, addend: 0x0, symName: __ZN4absl12lts_2024011619str_format_internal28FormatConversionCharInternal1eE, symObjAddr: 0x382, symBinAddr: 0x6ABDA, symSize: 0x0 }
  - { offset: 0x16F8E1, size: 0x8, addend: 0x0, symName: __ZN4absl12lts_2024011619str_format_internal28FormatConversionCharInternal1EE, symObjAddr: 0x383, symBinAddr: 0x6ABDB, symSize: 0x0 }
  - { offset: 0x16F8F5, size: 0x8, addend: 0x0, symName: __ZN4absl12lts_2024011619str_format_internal28FormatConversionCharInternal1gE, symObjAddr: 0x384, symBinAddr: 0x6ABDC, symSize: 0x0 }
  - { offset: 0x16F909, size: 0x8, addend: 0x0, symName: __ZN4absl12lts_2024011619str_format_internal28FormatConversionCharInternal1GE, symObjAddr: 0x385, symBinAddr: 0x6ABDD, symSize: 0x0 }
  - { offset: 0x16F91D, size: 0x8, addend: 0x0, symName: __ZN4absl12lts_2024011619str_format_internal28FormatConversionCharInternal1aE, symObjAddr: 0x386, symBinAddr: 0x6ABDE, symSize: 0x0 }
  - { offset: 0x16F931, size: 0x8, addend: 0x0, symName: __ZN4absl12lts_2024011619str_format_internal28FormatConversionCharInternal1AE, symObjAddr: 0x387, symBinAddr: 0x6ABDF, symSize: 0x0 }
  - { offset: 0x16F945, size: 0x8, addend: 0x0, symName: __ZN4absl12lts_2024011619str_format_internal28FormatConversionCharInternal1nE, symObjAddr: 0x388, symBinAddr: 0x6ABE0, symSize: 0x0 }
  - { offset: 0x16F959, size: 0x8, addend: 0x0, symName: __ZN4absl12lts_2024011619str_format_internal28FormatConversionCharInternal1pE, symObjAddr: 0x389, symBinAddr: 0x6ABE1, symSize: 0x0 }
  - { offset: 0x16F96D, size: 0x8, addend: 0x0, symName: __ZN4absl12lts_2024011619str_format_internal28FormatConversionCharInternal1vE, symObjAddr: 0x38A, symBinAddr: 0x6ABE2, symSize: 0x0 }
  - { offset: 0x16F981, size: 0x8, addend: 0x0, symName: __ZN4absl12lts_2024011619str_format_internal28FormatConversionCharInternal5kNoneE, symObjAddr: 0x38B, symBinAddr: 0x6ABE3, symSize: 0x0 }
  - { offset: 0x16F995, size: 0x8, addend: 0x0, symName: __ZN4absl12lts_2024011619str_format_internal31FormatConversionCharSetInternal1cE, symObjAddr: 0x390, symBinAddr: 0x6ABE8, symSize: 0x0 }
  - { offset: 0x16FB20, size: 0x8, addend: 0x0, symName: __ZN4absl12lts_2024011619str_format_internal31FormatConversionCharSetInternal1sE, symObjAddr: 0x398, symBinAddr: 0x6ABF0, symSize: 0x0 }
  - { offset: 0x16FB34, size: 0x8, addend: 0x0, symName: __ZN4absl12lts_2024011619str_format_internal31FormatConversionCharSetInternal1dE, symObjAddr: 0x3A0, symBinAddr: 0x6ABF8, symSize: 0x0 }
  - { offset: 0x16FB48, size: 0x8, addend: 0x0, symName: __ZN4absl12lts_2024011619str_format_internal31FormatConversionCharSetInternal1iE, symObjAddr: 0x3A8, symBinAddr: 0x6AC00, symSize: 0x0 }
  - { offset: 0x16FB5C, size: 0x8, addend: 0x0, symName: __ZN4absl12lts_2024011619str_format_internal31FormatConversionCharSetInternal1oE, symObjAddr: 0x3B0, symBinAddr: 0x6AC08, symSize: 0x0 }
  - { offset: 0x16FB70, size: 0x8, addend: 0x0, symName: __ZN4absl12lts_2024011619str_format_internal31FormatConversionCharSetInternal1uE, symObjAddr: 0x3B8, symBinAddr: 0x6AC10, symSize: 0x0 }
  - { offset: 0x16FB84, size: 0x8, addend: 0x0, symName: __ZN4absl12lts_2024011619str_format_internal31FormatConversionCharSetInternal1xE, symObjAddr: 0x3C0, symBinAddr: 0x6AC18, symSize: 0x0 }
  - { offset: 0x16FB98, size: 0x8, addend: 0x0, symName: __ZN4absl12lts_2024011619str_format_internal31FormatConversionCharSetInternal1XE, symObjAddr: 0x3C8, symBinAddr: 0x6AC20, symSize: 0x0 }
  - { offset: 0x16FBAC, size: 0x8, addend: 0x0, symName: __ZN4absl12lts_2024011619str_format_internal31FormatConversionCharSetInternal1fE, symObjAddr: 0x3D0, symBinAddr: 0x6AC28, symSize: 0x0 }
  - { offset: 0x16FBC0, size: 0x8, addend: 0x0, symName: __ZN4absl12lts_2024011619str_format_internal31FormatConversionCharSetInternal1FE, symObjAddr: 0x3D8, symBinAddr: 0x6AC30, symSize: 0x0 }
  - { offset: 0x16FBD4, size: 0x8, addend: 0x0, symName: __ZN4absl12lts_2024011619str_format_internal31FormatConversionCharSetInternal1eE, symObjAddr: 0x3E0, symBinAddr: 0x6AC38, symSize: 0x0 }
  - { offset: 0x16FBE8, size: 0x8, addend: 0x0, symName: __ZN4absl12lts_2024011619str_format_internal31FormatConversionCharSetInternal1EE, symObjAddr: 0x3E8, symBinAddr: 0x6AC40, symSize: 0x0 }
  - { offset: 0x16FBFC, size: 0x8, addend: 0x0, symName: __ZN4absl12lts_2024011619str_format_internal31FormatConversionCharSetInternal1gE, symObjAddr: 0x3F0, symBinAddr: 0x6AC48, symSize: 0x0 }
  - { offset: 0x16FC10, size: 0x8, addend: 0x0, symName: __ZN4absl12lts_2024011619str_format_internal31FormatConversionCharSetInternal1GE, symObjAddr: 0x3F8, symBinAddr: 0x6AC50, symSize: 0x0 }
  - { offset: 0x16FC24, size: 0x8, addend: 0x0, symName: __ZN4absl12lts_2024011619str_format_internal31FormatConversionCharSetInternal1aE, symObjAddr: 0x400, symBinAddr: 0x6AC58, symSize: 0x0 }
  - { offset: 0x16FC38, size: 0x8, addend: 0x0, symName: __ZN4absl12lts_2024011619str_format_internal31FormatConversionCharSetInternal1AE, symObjAddr: 0x408, symBinAddr: 0x6AC60, symSize: 0x0 }
  - { offset: 0x16FC4C, size: 0x8, addend: 0x0, symName: __ZN4absl12lts_2024011619str_format_internal31FormatConversionCharSetInternal1nE, symObjAddr: 0x410, symBinAddr: 0x6AC68, symSize: 0x0 }
  - { offset: 0x16FC60, size: 0x8, addend: 0x0, symName: __ZN4absl12lts_2024011619str_format_internal31FormatConversionCharSetInternal1pE, symObjAddr: 0x418, symBinAddr: 0x6AC70, symSize: 0x0 }
  - { offset: 0x16FC74, size: 0x8, addend: 0x0, symName: __ZN4absl12lts_2024011619str_format_internal31FormatConversionCharSetInternal1vE, symObjAddr: 0x420, symBinAddr: 0x6AC78, symSize: 0x0 }
  - { offset: 0x16FC88, size: 0x8, addend: 0x0, symName: __ZN4absl12lts_2024011619str_format_internal31FormatConversionCharSetInternal5kStarE, symObjAddr: 0x428, symBinAddr: 0x6AC80, symSize: 0x0 }
  - { offset: 0x16FC9C, size: 0x8, addend: 0x0, symName: __ZN4absl12lts_2024011619str_format_internal31FormatConversionCharSetInternal9kIntegralE, symObjAddr: 0x430, symBinAddr: 0x6AC88, symSize: 0x0 }
  - { offset: 0x16FCB0, size: 0x8, addend: 0x0, symName: __ZN4absl12lts_2024011619str_format_internal31FormatConversionCharSetInternal9kFloatingE, symObjAddr: 0x438, symBinAddr: 0x6AC90, symSize: 0x0 }
  - { offset: 0x16FCC4, size: 0x8, addend: 0x0, symName: __ZN4absl12lts_2024011619str_format_internal31FormatConversionCharSetInternal8kNumericE, symObjAddr: 0x440, symBinAddr: 0x6AC98, symSize: 0x0 }
  - { offset: 0x16FCD8, size: 0x8, addend: 0x0, symName: __ZN4absl12lts_2024011619str_format_internal31FormatConversionCharSetInternal8kPointerE, symObjAddr: 0x448, symBinAddr: 0x6ACA0, symSize: 0x0 }
  - { offset: 0x16FCE6, size: 0x8, addend: 0x0, symName: __ZN4absl12lts_2024011619str_format_internal13FlagsToStringENS1_5FlagsE, symObjAddr: 0x0, symBinAddr: 0x2C744, symSize: 0xCC }
  - { offset: 0x172ADC, size: 0x8, addend: 0x0, symName: __ZN4absl12lts_2024011619str_format_internal14FormatSinkImpl15PutPaddedStringENS0_11string_viewEiib, symObjAddr: 0xCC, symBinAddr: 0x2C810, symSize: 0x9C }
  - { offset: 0x174DD4, size: 0x8, addend: 0x0, symName: __ZN4absl12lts_2024011614flags_internal17kStrippedFlagHelpE, symObjAddr: 0x2A90, symBinAddr: 0x6ACA8, symSize: 0x0 }
  - { offset: 0x175A3C, size: 0x8, addend: 0x0, symName: __ZN4absl12lts_2024011613base_internal11FastTypeTagIbE9dummy_varE, symObjAddr: 0x2AD3, symBinAddr: 0x6ACEB, symSize: 0x0 }
  - { offset: 0x175A70, size: 0x8, addend: 0x0, symName: __ZN4absl12lts_2024011613base_internal11FastTypeTagIsE9dummy_varE, symObjAddr: 0x2AD4, symBinAddr: 0x6ACEC, symSize: 0x0 }
  - { offset: 0x175AA4, size: 0x8, addend: 0x0, symName: __ZN4absl12lts_2024011613base_internal11FastTypeTagItE9dummy_varE, symObjAddr: 0x2AD5, symBinAddr: 0x6ACED, symSize: 0x0 }
  - { offset: 0x175AD8, size: 0x8, addend: 0x0, symName: __ZN4absl12lts_2024011613base_internal11FastTypeTagIiE9dummy_varE, symObjAddr: 0x2AD6, symBinAddr: 0x6ACEE, symSize: 0x0 }
  - { offset: 0x175B0C, size: 0x8, addend: 0x0, symName: __ZN4absl12lts_2024011613base_internal11FastTypeTagIjE9dummy_varE, symObjAddr: 0x2AD7, symBinAddr: 0x6ACEF, symSize: 0x0 }
  - { offset: 0x175B40, size: 0x8, addend: 0x0, symName: __ZN4absl12lts_2024011613base_internal11FastTypeTagIlE9dummy_varE, symObjAddr: 0x2AD8, symBinAddr: 0x6ACF0, symSize: 0x0 }
  - { offset: 0x175B74, size: 0x8, addend: 0x0, symName: __ZN4absl12lts_2024011613base_internal11FastTypeTagImE9dummy_varE, symObjAddr: 0x2AD9, symBinAddr: 0x6ACF1, symSize: 0x0 }
  - { offset: 0x175BA8, size: 0x8, addend: 0x0, symName: __ZN4absl12lts_2024011613base_internal11FastTypeTagIxE9dummy_varE, symObjAddr: 0x2ADA, symBinAddr: 0x6ACF2, symSize: 0x0 }
  - { offset: 0x175BDC, size: 0x8, addend: 0x0, symName: __ZN4absl12lts_2024011613base_internal11FastTypeTagIyE9dummy_varE, symObjAddr: 0x2ADB, symBinAddr: 0x6ACF3, symSize: 0x0 }
  - { offset: 0x175C10, size: 0x8, addend: 0x0, symName: __ZN4absl12lts_2024011613base_internal11FastTypeTagIdE9dummy_varE, symObjAddr: 0x2ADC, symBinAddr: 0x6ACF4, symSize: 0x0 }
  - { offset: 0x175C44, size: 0x8, addend: 0x0, symName: __ZN4absl12lts_2024011613base_internal11FastTypeTagIfE9dummy_varE, symObjAddr: 0x2ADD, symBinAddr: 0x6ACF5, symSize: 0x0 }
  - { offset: 0x175C78, size: 0x8, addend: 0x0, symName: __ZN4absl12lts_2024011613base_internal11FastTypeTagINSt3__112basic_stringIcNS3_11char_traitsIcEENS3_9allocatorIcEEEEE9dummy_varE, symObjAddr: 0x2ADE, symBinAddr: 0x6ACF6, symSize: 0x0 }
  - { offset: 0x175CAC, size: 0x8, addend: 0x0, symName: __ZN4absl12lts_2024011613base_internal11FastTypeTagINSt3__16vectorINS3_12basic_stringIcNS3_11char_traitsIcEENS3_9allocatorIcEEEENS8_ISA_EEEEE9dummy_varE, symObjAddr: 0x2ADF, symBinAddr: 0x6ACF7, symSize: 0x0 }
  - { offset: 0x175CDA, size: 0x8, addend: 0x0, symName: __ZN4absl12lts_2024011613base_internal12CallOnceImplIMNS0_14flags_internal8FlagImplEFvvEJPS4_EEEvPNSt3__16atomicIjEENS1_14SchedulingModeEOT_DpOT0_, symObjAddr: 0x2030, symBinAddr: 0x2E84C, symSize: 0x144 }
  - { offset: 0x175D00, size: 0x8, addend: 0x0, symName: __ZZN4absl12lts_2024011613base_internal12CallOnceImplIMNS0_14flags_internal8FlagImplEFvvEJPS4_EEEvPNSt3__16atomicIjEENS1_14SchedulingModeEOT_DpOT0_E5trans, symObjAddr: 0x2AE0, symBinAddr: 0x6ACF8, symSize: 0x0 }
  - { offset: 0x1763E2, size: 0x8, addend: 0x0, symName: __ZN4absl12lts_202401166StrCatIJNSt3__112basic_stringIcNS2_11char_traitsIcEENS2_9allocatorIcEEEEA30_cS8_EEES8_RKNS0_8AlphaNumESC_SC_SC_SC_DpRKT_, symObjAddr: 0x1E4C, symBinAddr: 0x2E678, symSize: 0xD4 }
  - { offset: 0x17A45A, size: 0x8, addend: 0x0, symName: __ZNSt3__125__throw_bad_function_callB8ne200100Ev, symObjAddr: 0x2174, symBinAddr: 0x2E990, symSize: 0x34 }
  - { offset: 0x17B950, size: 0x8, addend: 0x0, symName: __ZN4absl12lts_2024011614flags_internal15DynValueDeleterC2EPFPvNS1_6FlagOpEPKvS3_S3_E, symObjAddr: 0x0, symBinAddr: 0x2C8AC, symSize: 0x8 }
  - { offset: 0x17B9A3, size: 0x8, addend: 0x0, symName: __ZN4absl12lts_2024011614flags_internal15DynValueDeleterC1EPFPvNS1_6FlagOpEPKvS3_S3_E, symObjAddr: 0x8, symBinAddr: 0x2C8B4, symSize: 0x8 }
  - { offset: 0x17B9CC, size: 0x8, addend: 0x0, symName: __ZN4absl12lts_2024011614flags_internal15DynValueDeleterC1EPFPvNS1_6FlagOpEPKvS3_S3_E, symObjAddr: 0x8, symBinAddr: 0x2C8B4, symSize: 0x8 }
  - { offset: 0x17B9ED, size: 0x8, addend: 0x0, symName: __ZNK4absl12lts_2024011614flags_internal15DynValueDeleterclEPv, symObjAddr: 0x10, symBinAddr: 0x2C8BC, symSize: 0x20 }
  - { offset: 0x17BC4D, size: 0x8, addend: 0x0, symName: __ZN4absl12lts_2024011614flags_internal8FlagImpl4InitEv, symObjAddr: 0x30, symBinAddr: 0x2C8DC, symSize: 0x150 }
  - { offset: 0x17C05E, size: 0x8, addend: 0x0, symName: __ZNK4absl12lts_2024011614flags_internal8FlagImpl17AtomicBufferValueEv, symObjAddr: 0x1C4, symBinAddr: 0x2CA70, symSize: 0x4C }
  - { offset: 0x17C112, size: 0x8, addend: 0x0, symName: __ZNK4absl12lts_2024011614flags_internal8FlagImpl18AlignedBufferValueEv, symObjAddr: 0x210, symBinAddr: 0x2CABC, symSize: 0x4C }
  - { offset: 0x17C11D, size: 0x8, addend: 0x0, symName: __ZNK4absl12lts_2024011614flags_internal8FlagImpl12OneWordValueEv, symObjAddr: 0x180, symBinAddr: 0x2CA2C, symSize: 0x44 }
  - { offset: 0x17C1D1, size: 0x8, addend: 0x0, symName: __ZNK4absl12lts_2024011614flags_internal8FlagImpl17AtomicBufferValueEv, symObjAddr: 0x1C4, symBinAddr: 0x2CA70, symSize: 0x4C }
  - { offset: 0x17C1DC, size: 0x8, addend: 0x0, symName: __ZNK4absl12lts_2024011614flags_internal8FlagImpl18AlignedBufferValueEv, symObjAddr: 0x210, symBinAddr: 0x2CABC, symSize: 0x4C }
  - { offset: 0x17C290, size: 0x8, addend: 0x0, symName: __ZNK4absl12lts_2024011614flags_internal8FlagImpl9DataGuardEv, symObjAddr: 0x25C, symBinAddr: 0x2CB08, symSize: 0x5C }
  - { offset: 0x17C29B, size: 0x8, addend: 0x0, symName: __ZN4absl12lts_2024011614flags_internal8FlagImpl4InitEv.cold.4, symObjAddr: 0x2540, symBinAddr: 0x62CF4, symSize: 0x28 }
  - { offset: 0x17C2C8, size: 0x8, addend: 0x0, symName: __ZN4absl12lts_2024011614flags_internal8FlagImpl4InitEv.cold.3, symObjAddr: 0x2518, symBinAddr: 0x62CCC, symSize: 0x28 }
  - { offset: 0x17C2E0, size: 0x8, addend: 0x0, symName: __ZN4absl12lts_2024011614flags_internal8FlagImpl4InitEv.cold.2, symObjAddr: 0x24F0, symBinAddr: 0x62CA4, symSize: 0x28 }
  - { offset: 0x17C2F8, size: 0x8, addend: 0x0, symName: __ZN4absl12lts_2024011614flags_internal8FlagImpl4InitEv.cold.1, symObjAddr: 0x24C8, symBinAddr: 0x62C7C, symSize: 0x28 }
  - { offset: 0x17C347, size: 0x8, addend: 0x0, symName: __ZNK4absl12lts_2024011614flags_internal8FlagImpl12OneWordValueEv.cold.1, symObjAddr: 0x2568, symBinAddr: 0x62D1C, symSize: 0x28 }
  - { offset: 0x17C396, size: 0x8, addend: 0x0, symName: __ZNK4absl12lts_2024011614flags_internal8FlagImpl17AtomicBufferValueEv.cold.1, symObjAddr: 0x2590, symBinAddr: 0x62D44, symSize: 0x28 }
  - { offset: 0x17C3E2, size: 0x8, addend: 0x0, symName: __ZNK4absl12lts_2024011614flags_internal8FlagImpl18AlignedBufferValueEv.cold.1, symObjAddr: 0x25B8, symBinAddr: 0x62D6C, symSize: 0x28 }
  - { offset: 0x17C44D, size: 0x8, addend: 0x0, symName: __ZNK4absl12lts_2024011614flags_internal8FlagImpl9DataGuardEv, symObjAddr: 0x25C, symBinAddr: 0x2CB08, symSize: 0x5C }
  - { offset: 0x17C7CC, size: 0x8, addend: 0x0, symName: __ZNK4absl12lts_2024011614flags_internal8FlagImpl15AssertValidTypeEPKvPFPKSt9type_infovE, symObjAddr: 0x2B8, symBinAddr: 0x2CB64, symSize: 0x17C }
  - { offset: 0x17CC50, size: 0x8, addend: 0x0, symName: __ZNKSt9type_infoeqB8ne200100ERKS_, symObjAddr: 0x434, symBinAddr: 0x2CCE0, symSize: 0x4C }
  - { offset: 0x17CD63, size: 0x8, addend: 0x0, symName: __ZNK4absl12lts_2024011614flags_internal8FlagImpl4NameEv, symObjAddr: 0x480, symBinAddr: 0x2CD2C, symSize: 0x38 }
  - { offset: 0x17CE87, size: 0x8, addend: 0x0, symName: __ZNK4absl12lts_2024011614flags_internal8FlagImpl13MakeInitValueEv, symObjAddr: 0x4B8, symBinAddr: 0x2CD64, symSize: 0xC8 }
  - { offset: 0x17D0DB, size: 0x8, addend: 0x0, symName: __ZN4absl12lts_2024011614flags_internal8FlagImpl10StoreValueEPKv, symObjAddr: 0x580, symBinAddr: 0x2CE2C, symSize: 0x120 }
  - { offset: 0x17D446, size: 0x8, addend: 0x0, symName: __ZN4absl12lts_2024011614flags_internal12SequenceLock5WriteEPNSt3__16atomicIyEEPKvm, symObjAddr: 0x6A0, symBinAddr: 0x2CF4C, symSize: 0x8C }
  - { offset: 0x17D465, size: 0x8, addend: 0x0, symName: __ZN4absl12lts_2024011614flags_internal12SequenceLock5WriteEPNSt3__16atomicIyEEPKvm, symObjAddr: 0x6A0, symBinAddr: 0x2CF4C, symSize: 0x8C }
  - { offset: 0x17D6F1, size: 0x8, addend: 0x0, symName: __ZNK4absl12lts_2024011614flags_internal8FlagImpl14InvokeCallbackEv, symObjAddr: 0x72C, symBinAddr: 0x2CFD8, symSize: 0x94 }
  - { offset: 0x17D6FC, size: 0x8, addend: 0x0, symName: __ZNK4absl12lts_2024011614flags_internal8FlagImpl14InvokeCallbackEv, symObjAddr: 0x72C, symBinAddr: 0x2CFD8, symSize: 0x94 }
  - { offset: 0x17D85B, size: 0x8, addend: 0x0, symName: __ZN4absl12lts_2024011614flags_internal8FlagImpl10StoreValueEPKv.cold.1, symObjAddr: 0x25E0, symBinAddr: 0x62D94, symSize: 0x28 }
  - { offset: 0x17D90C, size: 0x8, addend: 0x0, symName: __ZN4absl12lts_2024011614flags_internal12SequenceLock5WriteEPNSt3__16atomicIyEEPKvm.cold.1, symObjAddr: 0x2630, symBinAddr: 0x62DBC, symSize: 0x28 }
  - { offset: 0x17DDA2, size: 0x8, addend: 0x0, symName: __ZNK4absl12lts_2024011614flags_internal8FlagImpl8FilenameEv, symObjAddr: 0x7C0, symBinAddr: 0x2D06C, symSize: 0x1A4 }
  - { offset: 0x17E190, size: 0x8, addend: 0x0, symName: __ZN4absl12lts_2024011616FlagsUsageConfigD1Ev, symObjAddr: 0x964, symBinAddr: 0x2D210, symSize: 0xF8 }
  - { offset: 0x17E4B0, size: 0x8, addend: 0x0, symName: __ZNK4absl12lts_2024011614flags_internal8FlagImpl4HelpEv, symObjAddr: 0xA5C, symBinAddr: 0x2D308, symSize: 0x18 }
  - { offset: 0x17E4DC, size: 0x8, addend: 0x0, symName: __ZNK4absl12lts_2024011614flags_internal8FlagImpl4HelpEv, symObjAddr: 0xA5C, symBinAddr: 0x2D308, symSize: 0x18 }
  - { offset: 0x17E6A8, size: 0x8, addend: 0x0, symName: __ZNK4absl12lts_2024011614flags_internal8FlagImpl6TypeIdEv, symObjAddr: 0xA74, symBinAddr: 0x2D320, symSize: 0x18 }
  - { offset: 0x17E736, size: 0x8, addend: 0x0, symName: __ZNK4absl12lts_2024011614flags_internal8FlagImpl17ModificationCountEv, symObjAddr: 0xA8C, symBinAddr: 0x2D338, symSize: 0x1C }
  - { offset: 0x17E779, size: 0x8, addend: 0x0, symName: __ZNK4absl12lts_2024011614flags_internal8FlagImpl17ModificationCountEv, symObjAddr: 0xA8C, symBinAddr: 0x2D338, symSize: 0x1C }
  - { offset: 0x17E79C, size: 0x8, addend: 0x0, symName: __ZNK4absl12lts_2024011614flags_internal8FlagImpl17ModificationCountEv, symObjAddr: 0xA8C, symBinAddr: 0x2D338, symSize: 0x1C }
  - { offset: 0x17E7C2, size: 0x8, addend: 0x0, symName: __ZNK4absl12lts_2024011614flags_internal8FlagImpl24IsSpecifiedOnCommandLineEv, symObjAddr: 0xAA8, symBinAddr: 0x2D354, symSize: 0x3C }
  - { offset: 0x17E7CD, size: 0x8, addend: 0x0, symName: __ZNK4absl12lts_2024011614flags_internal8FlagImpl17ModificationCountEv.cold.1, symObjAddr: 0x2658, symBinAddr: 0x62DE4, symSize: 0x28 }
  - { offset: 0x17E7FB, size: 0x8, addend: 0x0, symName: __ZNK4absl12lts_2024011614flags_internal8FlagImpl24IsSpecifiedOnCommandLineEv, symObjAddr: 0xAA8, symBinAddr: 0x2D354, symSize: 0x3C }
  - { offset: 0x17E979, size: 0x8, addend: 0x0, symName: __ZNK4absl12lts_2024011614flags_internal8FlagImpl12DefaultValueEv, symObjAddr: 0xAE4, symBinAddr: 0x2D390, symSize: 0xD8 }
  - { offset: 0x17ED0B, size: 0x8, addend: 0x0, symName: __ZNSt3__110unique_ptrIvN4absl12lts_2024011614flags_internal15DynValueDeleterEE5resetB8ne200100EPv, symObjAddr: 0x1B50, symBinAddr: 0x2E37C, symSize: 0x38 }
  - { offset: 0x17EDA4, size: 0x8, addend: 0x0, symName: __ZNK4absl12lts_2024011614flags_internal8FlagImpl12CurrentValueEv, symObjAddr: 0xBBC, symBinAddr: 0x2D468, symSize: 0x1D8 }
  - { offset: 0x17F558, size: 0x8, addend: 0x0, symName: __ZNK4absl12lts_2024011614flags_internal8FlagImpl22ReadSequenceLockedDataEPv, symObjAddr: 0xD94, symBinAddr: 0x2D640, symSize: 0xE0 }
  - { offset: 0x17F7B5, size: 0x8, addend: 0x0, symName: __ZNK4absl12lts_2024011614flags_internal12SequenceLock7TryReadEPvPKNSt3__16atomicIyEEm, symObjAddr: 0x1120, symBinAddr: 0x62BFC, symSize: 0x80 }
  - { offset: 0x17FA0F, size: 0x8, addend: 0x0, symName: __ZN4absl12lts_2024011614flags_internal8FlagImpl11SetCallbackEPFvvE, symObjAddr: 0xE74, symBinAddr: 0x2D720, symSize: 0x7C }
  - { offset: 0x17FD1E, size: 0x8, addend: 0x0, symName: __ZN4absl12lts_2024011614flags_internal8FlagImpl9SaveStateEv, symObjAddr: 0xEF0, symBinAddr: 0x2D79C, symSize: 0x230 }
  - { offset: 0x1802FE, size: 0x8, addend: 0x0, symName: __ZN4absl12lts_2024011614flags_internal8FlagImpl12RestoreStateERKNS1_9FlagStateE, symObjAddr: 0x11A0, symBinAddr: 0x2D9CC, symSize: 0xEC }
  - { offset: 0x1806DA, size: 0x8, addend: 0x0, symName: __ZNK4absl12lts_2024011614flags_internal8FlagImpl8TryParseENS0_11string_viewERNSt3__112basic_stringIcNS4_11char_traitsIcEENS4_9allocatorIcEEEE, symObjAddr: 0x128C, symBinAddr: 0x2DAB8, symSize: 0x210 }
  - { offset: 0x180F2C, size: 0x8, addend: 0x0, symName: __ZNK4absl12lts_2024011614flags_internal8FlagImpl4ReadEPv, symObjAddr: 0x149C, symBinAddr: 0x2DCC8, symSize: 0xEC }
  - { offset: 0x181163, size: 0x8, addend: 0x0, symName: __ZNK4absl12lts_2024011614flags_internal8FlagImpl11ReadOneWordEv, symObjAddr: 0x1588, symBinAddr: 0x2DDB4, symSize: 0x38 }
  - { offset: 0x18121E, size: 0x8, addend: 0x0, symName: __ZNK4absl12lts_2024011614flags_internal8FlagImpl11ReadOneBoolEv, symObjAddr: 0x15C0, symBinAddr: 0x2DDEC, symSize: 0x40 }
  - { offset: 0x181229, size: 0x8, addend: 0x0, symName: __ZNK4absl12lts_2024011614flags_internal8FlagImpl11ReadOneWordEv.cold.1, symObjAddr: 0x2680, symBinAddr: 0x62E0C, symSize: 0x28 }
  - { offset: 0x181241, size: 0x8, addend: 0x0, symName: __ZNK4absl12lts_2024011614flags_internal8FlagImpl11ReadOneBoolEv, symObjAddr: 0x15C0, symBinAddr: 0x2DDEC, symSize: 0x40 }
  - { offset: 0x1812FC, size: 0x8, addend: 0x0, symName: __ZN4absl12lts_2024011614flags_internal8FlagImpl5WriteEPKv, symObjAddr: 0x1600, symBinAddr: 0x2DE2C, symSize: 0x348 }
  - { offset: 0x181307, size: 0x8, addend: 0x0, symName: __ZNK4absl12lts_2024011614flags_internal8FlagImpl11ReadOneBoolEv.cold.1, symObjAddr: 0x26A8, symBinAddr: 0x62E34, symSize: 0x28 }
  - { offset: 0x181395, size: 0x8, addend: 0x0, symName: __ZN4absl12lts_2024011614flags_internal8FlagImpl5WriteEPKv, symObjAddr: 0x1600, symBinAddr: 0x2DE2C, symSize: 0x348 }
  - { offset: 0x18219B, size: 0x8, addend: 0x0, symName: __ZN4absl12lts_2024011614flags_internal8FlagImpl9ParseFromENS0_11string_viewENS1_15FlagSettingModeENS1_11ValueSourceERNSt3__112basic_stringIcNS6_11char_traitsIcEENS6_9allocatorIcEEEE, symObjAddr: 0x1948, symBinAddr: 0x2E174, symSize: 0x208 }
  - { offset: 0x1826CD, size: 0x8, addend: 0x0, symName: __ZNK4absl12lts_2024011614flags_internal8FlagImpl33CheckDefaultValueParsingRoundtripEv, symObjAddr: 0x1B88, symBinAddr: 0x2E3B4, symSize: 0x2C4 }
  - { offset: 0x183710, size: 0x8, addend: 0x0, symName: __ZNK4absl12lts_2024011614flags_internal8FlagImpl18ValidateInputValueENS0_11string_viewE, symObjAddr: 0x1F20, symBinAddr: 0x2E74C, symSize: 0x100 }
  - { offset: 0x183D1A, size: 0x8, addend: 0x0, symName: __ZNSt3__117bad_function_callD1Ev, symObjAddr: 0x21A8, symBinAddr: 0x2E9C4, symSize: 0x4 }
  - { offset: 0x183D3C, size: 0x8, addend: 0x0, symName: __ZNSt3__117bad_function_callD1Ev, symObjAddr: 0x21A8, symBinAddr: 0x2E9C4, symSize: 0x4 }
  - { offset: 0x183D70, size: 0x8, addend: 0x0, symName: __ZNSt3__117bad_function_callD0Ev, symObjAddr: 0x21AC, symBinAddr: 0x2E9C8, symSize: 0x14 }
  - { offset: 0x183FA4, size: 0x8, addend: 0x0, symName: __ZN4absl12lts_2024011614flags_internal9FlagStateD1Ev, symObjAddr: 0x22EC, symBinAddr: 0x2E9DC, symSize: 0x4 }
  - { offset: 0x183FC6, size: 0x8, addend: 0x0, symName: __ZN4absl12lts_2024011614flags_internal9FlagStateD1Ev, symObjAddr: 0x22EC, symBinAddr: 0x2E9DC, symSize: 0x4 }
  - { offset: 0x183FD9, size: 0x8, addend: 0x0, symName: __ZN4absl12lts_2024011614flags_internal9FlagStateD2Ev, symObjAddr: 0x2470, symBinAddr: 0x2EB60, symSize: 0x58 }
  - { offset: 0x184079, size: 0x8, addend: 0x0, symName: __ZN4absl12lts_2024011614flags_internal9FlagStateD0Ev, symObjAddr: 0x22F0, symBinAddr: 0x2E9E0, symSize: 0x14 }
  - { offset: 0x1840D3, size: 0x8, addend: 0x0, symName: __ZNK4absl12lts_2024011614flags_internal9FlagState7RestoreEv, symObjAddr: 0x2304, symBinAddr: 0x2E9F4, symSize: 0x16C }
  - { offset: 0x189B40, size: 0x8, addend: 0x0, symName: __ZN4absl12lts_2024011619str_format_internal12_GLOBAL__N_122FormatFPositiveExpSlowENS0_7uint128EiRKNS2_11FormatStateE, symObjAddr: 0x1A00, symBinAddr: 0x305A8, symSize: 0xAC }
  - { offset: 0x189D8D, size: 0x8, addend: 0x0, symName: __ZN4absl12lts_2024011619str_format_internal12_GLOBAL__N_122FormatFNegativeExpSlowENS0_7uint128EiRKNS2_11FormatStateE, symObjAddr: 0x1AAC, symBinAddr: 0x30654, symSize: 0x1B4 }
  - { offset: 0x18A839, size: 0x8, addend: 0x0, symName: __ZN4absl12lts_2024011619str_format_internal12_GLOBAL__N_113FloatToBufferILNS2_11FormatStyleE1EeEEbNS2_10DecomposedIT0_EEmPNS2_6BufferEPi, symObjAddr: 0x1100, symBinAddr: 0x2FCB8, symSize: 0x4CC }
  - { offset: 0x18AC08, size: 0x8, addend: 0x0, symName: __ZN4absl12lts_2024011619str_format_internal12_GLOBAL__N_118FallbackToSnprintfIeEEbT_RKNS1_24FormatConversionSpecImplEPNS1_14FormatSinkImplE, symObjAddr: 0x15CC, symBinAddr: 0x30184, symSize: 0x204 }
  - { offset: 0x18AC26, size: 0x8, addend: 0x0, symName: __ZN4absl12lts_2024011619str_format_internal12_GLOBAL__N_132PrintIntegralDigitsFromRightFastENS0_7uint128EPc, symObjAddr: 0x28DC, symBinAddr: 0x31314, symSize: 0xA0 }
  - { offset: 0x18AD80, size: 0x8, addend: 0x0, symName: __ZN4absl12lts_2024011619str_format_internal12_GLOBAL__N_125PrintFractionalDigitsFastENS0_7uint128EPcim, symObjAddr: 0x297C, symBinAddr: 0x313B4, symSize: 0x150 }
  - { offset: 0x18AF9F, size: 0x8, addend: 0x0, symName: __ZN4absl12lts_2024011619str_format_internal12_GLOBAL__N_118FallbackToSnprintfIeEEbT_RKNS1_24FormatConversionSpecImplEPNS1_14FormatSinkImplE, symObjAddr: 0x15CC, symBinAddr: 0x30184, symSize: 0x204 }
  - { offset: 0x18B78F, size: 0x8, addend: 0x0, symName: __ZN4absl12lts_2024011619str_format_internal12_GLOBAL__N_110FinalPrintERKNS2_11FormatStateENS0_11string_viewEmmS6_, symObjAddr: 0x2ACC, symBinAddr: 0x31504, symSize: 0x1C4 }
  - { offset: 0x18B9B7, size: 0x8, addend: 0x0, symName: __ZN4absl12lts_2024011619str_format_internal12_GLOBAL__N_113PrintExponentEicPNS2_6BufferE, symObjAddr: 0x17D0, symBinAddr: 0x30388, symSize: 0x160 }
  - { offset: 0x18BB62, size: 0x8, addend: 0x0, symName: __ZN4absl12lts_2024011619str_format_internal12_GLOBAL__N_117WriteBufferToSinkEcNS0_11string_viewERKNS1_24FormatConversionSpecImplEPNS1_14FormatSinkImplE, symObjAddr: 0x1930, symBinAddr: 0x304E8, symSize: 0xC0 }
  - { offset: 0x18BB6D, size: 0x8, addend: 0x0, symName: __ZN4absl12lts_2024011619str_format_internal12_GLOBAL__N_117WriteBufferToSinkEcNS0_11string_viewERKNS1_24FormatConversionSpecImplEPNS1_14FormatSinkImplE, symObjAddr: 0x1930, symBinAddr: 0x304E8, symSize: 0xC0 }
  - { offset: 0x18BCC6, size: 0x8, addend: 0x0, symName: __ZN4absl12lts_2024011619str_format_internal12_GLOBAL__N_111FloatToSinkIdEEbT_RKNS1_24FormatConversionSpecImplEPNS1_14FormatSinkImplE, symObjAddr: 0x8A0, symBinAddr: 0x2F458, symSize: 0x85C }
  - { offset: 0x18D16C, size: 0x8, addend: 0x0, symName: __ZN4absl12lts_2024011619str_format_internal12_GLOBAL__N_113FloatToBufferILNS2_11FormatStyleE1EdEEbNS2_10DecomposedIT0_EEmPNS2_6BufferEPi, symObjAddr: 0x2F34, symBinAddr: 0x31930, symSize: 0x49C }
  - { offset: 0x18D50C, size: 0x8, addend: 0x0, symName: __ZN4absl12lts_2024011619str_format_internal12_GLOBAL__N_118FallbackToSnprintfIdEEbT_RKNS1_24FormatConversionSpecImplEPNS1_14FormatSinkImplE, symObjAddr: 0x33D0, symBinAddr: 0x31DCC, symSize: 0x1FC }
  - { offset: 0x18D529, size: 0x8, addend: 0x0, symName: __ZN4absl12lts_2024011619str_format_internal12_GLOBAL__N_118FallbackToSnprintfIdEEbT_RKNS1_24FormatConversionSpecImplEPNS1_14FormatSinkImplE, symObjAddr: 0x33D0, symBinAddr: 0x31DCC, symSize: 0x1FC }
  - { offset: 0x18DF39, size: 0x8, addend: 0x0, symName: __ZN4absl12lts_2024011619str_format_internal12_GLOBAL__N_119PrintIntegralDigitsILNS2_11FormatStyleE1EoEEmT0_PNS2_6BufferE, symObjAddr: 0x2E68, symBinAddr: 0x31864, symSize: 0xCC }
  - { offset: 0x18DFED, size: 0x8, addend: 0x0, symName: __ZN4absl12lts_2024011619str_format_internal12_GLOBAL__N_113FloatToBufferILNS2_11FormatStyleE1EdEEbNS2_10DecomposedIT0_EEmPNS2_6BufferEPi, symObjAddr: 0x2F34, symBinAddr: 0x31930, symSize: 0x49C }
  - { offset: 0x18E00A, size: 0x8, addend: 0x0, symName: __ZN4absl12lts_2024011619str_format_internal12_GLOBAL__N_119PrintIntegralDigitsILNS2_11FormatStyleE1EyEEmT0_PNS2_6BufferE, symObjAddr: 0x2CCC, symBinAddr: 0x316C8, symSize: 0x8C }
  - { offset: 0x18E0BE, size: 0x8, addend: 0x0, symName: __ZN4absl12lts_2024011619str_format_internal12_GLOBAL__N_120RemoveExtraPrecisionEmbPNS2_6BufferEPi, symObjAddr: 0x2D58, symBinAddr: 0x31754, symSize: 0x74 }
  - { offset: 0x18E0DC, size: 0x8, addend: 0x0, symName: __ZN4absl12lts_2024011619str_format_internal12_GLOBAL__N_120RemoveExtraPrecisionEmbPNS2_6BufferEPi, symObjAddr: 0x2D58, symBinAddr: 0x31754, symSize: 0x74 }
  - { offset: 0x18E21A, size: 0x8, addend: 0x0, symName: __ZN4absl12lts_2024011619str_format_internal12_GLOBAL__N_17RoundUpILNS2_11FormatStyleE1EEEvPNS2_6BufferEPi, symObjAddr: 0x2DCC, symBinAddr: 0x317C8, symSize: 0x9C }
  - { offset: 0x18E2D2, size: 0x8, addend: 0x0, symName: __ZN4absl12lts_2024011619str_format_internal12_GLOBAL__N_119PrintIntegralDigitsILNS2_11FormatStyleE1EoEEmT0_PNS2_6BufferE, symObjAddr: 0x2E68, symBinAddr: 0x31864, symSize: 0xCC }
  - { offset: 0x18E61C, size: 0x8, addend: 0x0, symName: __ZN4absl12lts_2024011619str_format_internal16ConvertFloatImplEeRKNS1_24FormatConversionSpecImplEPNS1_14FormatSinkImplE, symObjAddr: 0x0, symBinAddr: 0x2EBB8, symSize: 0x898 }
  - { offset: 0x18F65B, size: 0x8, addend: 0x0, symName: __ZN4absl12lts_2024011619str_format_internal16ConvertFloatImplEfRKNS1_24FormatConversionSpecImplEPNS1_14FormatSinkImplE, symObjAddr: 0x898, symBinAddr: 0x2F450, symSize: 0x8 }
  - { offset: 0x18F6C2, size: 0x8, addend: 0x0, symName: __ZN4absl12lts_2024011619str_format_internal16ConvertFloatImplEdRKNS1_24FormatConversionSpecImplEPNS1_14FormatSinkImplE, symObjAddr: 0x10FC, symBinAddr: 0x2FCB4, symSize: 0x4 }
  - { offset: 0x18F70F, size: 0x8, addend: 0x0, symName: __ZN4absl12lts_2024011619str_format_internal16ConvertFloatImplEdRKNS1_24FormatConversionSpecImplEPNS1_14FormatSinkImplE, symObjAddr: 0x10FC, symBinAddr: 0x2FCB4, symSize: 0x4 }
  - { offset: 0x18FB13, size: 0x8, addend: 0x0, symName: __ZN4absl12lts_2024011619functional_internal12InvokeObjectIZNS0_19str_format_internal12_GLOBAL__N_115BinaryToDecimal13RunConversionENS0_7uint128EiNS0_11FunctionRefIFvS5_EEEEUlNS0_4SpanIjEEE_vJSB_EEET0_NS1_7VoidPtrEDpNS1_8ForwardTIT1_E4typeE, symObjAddr: 0x1F80, symBinAddr: 0x30B28, symSize: 0x264 }
  - { offset: 0x18FE5C, size: 0x8, addend: 0x0, symName: '__ZN4absl12lts_2024011619functional_internal12InvokeObjectIZNS0_19str_format_internal12_GLOBAL__N_122FormatFPositiveExpSlowENS0_7uint128EiRKNS4_11FormatStateEE3$_0vJNS4_15BinaryToDecimalEEEET0_NS1_7VoidPtrEDpNS1_8ForwardTIT1_E4typeE', symObjAddr: 0x2230, symBinAddr: 0x30DD8, symSize: 0x22C }
  - { offset: 0x190194, size: 0x8, addend: 0x0, symName: __ZN4absl12lts_2024011619functional_internal12InvokeObjectIZNS0_19str_format_internal12_GLOBAL__N_124FractionalDigitGenerator13RunConversionENS0_7uint128EiNS0_11FunctionRefIFvS5_EEEEUlNS0_4SpanIjEEE_vJSB_EEET0_NS1_7VoidPtrEDpNS1_8ForwardTIT1_E4typeE, symObjAddr: 0x25CC, symBinAddr: 0x31004, symSize: 0xFC }
  - { offset: 0x190442, size: 0x8, addend: 0x0, symName: '__ZN4absl12lts_2024011619functional_internal12InvokeObjectIZNS0_19str_format_internal12_GLOBAL__N_122FormatFNegativeExpSlowENS0_7uint128EiRKNS4_11FormatStateEE3$_0vJNS4_24FractionalDigitGeneratorEEEET0_NS1_7VoidPtrEDpNS1_8ForwardTIT1_E4typeE', symObjAddr: 0x2758, symBinAddr: 0x31190, symSize: 0x184 }
  - { offset: 0x19126F, size: 0x8, addend: 0x0, symName: __ZN4absl12lts_2024011619str_format_internal16ConvertFloatImplEeRKNS1_24FormatConversionSpecImplEPNS1_14FormatSinkImplE.cold.2, symObjAddr: 0x35F0, symBinAddr: 0x62E5C, symSize: 0x28 }
  - { offset: 0x1912C5, size: 0x8, addend: 0x0, symName: __ZN4absl12lts_2024011619str_format_internal16ConvertFloatImplEeRKNS1_24FormatConversionSpecImplEPNS1_14FormatSinkImplE.cold.4, symObjAddr: 0x363C, symBinAddr: 0x62E84, symSize: 0x24 }
  - { offset: 0x19172A, size: 0x8, addend: 0x0, symName: __ZN4absl12lts_2024011619str_format_internal12_GLOBAL__N_113FloatToBufferILNS2_11FormatStyleE1EeEEbNS2_10DecomposedIT0_EEmPNS2_6BufferEPi.cold.1, symObjAddr: 0x37CC, symBinAddr: 0x62EA8, symSize: 0x24 }
  - { offset: 0x19176E, size: 0x8, addend: 0x0, symName: __ZN4absl12lts_2024011619str_format_internal12_GLOBAL__N_113FloatToBufferILNS2_11FormatStyleE1EeEEbNS2_10DecomposedIT0_EEmPNS2_6BufferEPi.cold.2, symObjAddr: 0x37F0, symBinAddr: 0x62ECC, symSize: 0x24 }
  - { offset: 0x191B84, size: 0x8, addend: 0x0, symName: __ZN4absl12lts_2024011619str_format_internal12_GLOBAL__N_118FallbackToSnprintfIeEEbT_RKNS1_24FormatConversionSpecImplEPNS1_14FormatSinkImplE.cold.1, symObjAddr: 0x38EC, symBinAddr: 0x62EF0, symSize: 0x28 }
  - { offset: 0x191D28, size: 0x8, addend: 0x0, symName: __ZN4absl12lts_2024011619str_format_internal12_GLOBAL__N_110StackArray15RunWithCapacityEmNS0_11FunctionRefIFvNS0_4SpanIjEEEEE, symObjAddr: 0x1C60, symBinAddr: 0x30808, symSize: 0xA0 }
  - { offset: 0x191DB6, size: 0x8, addend: 0x0, symName: __ZN4absl12lts_2024011619str_format_internal12_GLOBAL__N_110StackArray19RunWithCapacityImplILm1EEEvNS0_11FunctionRefIFvNS0_4SpanIjEEEEE, symObjAddr: 0x1D00, symBinAddr: 0x308A8, symSize: 0xA0 }
  - { offset: 0x191DC1, size: 0x8, addend: 0x0, symName: __ZN4absl12lts_2024011619str_format_internal12_GLOBAL__N_122FormatFPositiveExpSlowENS0_7uint128EiRKNS2_11FormatStateE.cold.2, symObjAddr: 0x3A5C, symBinAddr: 0x62F40, symSize: 0x28 }
  - { offset: 0x191DEF, size: 0x8, addend: 0x0, symName: __ZN4absl12lts_2024011619str_format_internal12_GLOBAL__N_122FormatFPositiveExpSlowENS0_7uint128EiRKNS2_11FormatStateE.cold.1, symObjAddr: 0x3A34, symBinAddr: 0x62F18, symSize: 0x28 }
  - { offset: 0x191E46, size: 0x8, addend: 0x0, symName: __ZN4absl12lts_2024011619str_format_internal12_GLOBAL__N_122FormatFNegativeExpSlowENS0_7uint128EiRKNS2_11FormatStateE.cold.1, symObjAddr: 0x3A84, symBinAddr: 0x62F68, symSize: 0x28 }
  - { offset: 0x191E74, size: 0x8, addend: 0x0, symName: __ZN4absl12lts_2024011619str_format_internal12_GLOBAL__N_110StackArray19RunWithCapacityImplILm5EEEvNS0_11FunctionRefIFvNS0_4SpanIjEEEEE, symObjAddr: 0x1F08, symBinAddr: 0x30AB0, symSize: 0x78 }
  - { offset: 0x191EE5, size: 0x8, addend: 0x0, symName: __ZN4absl12lts_2024011619str_format_internal12_GLOBAL__N_110StackArray19RunWithCapacityImplILm2EEEvNS0_11FunctionRefIFvNS0_4SpanIjEEEEE, symObjAddr: 0x1DA0, symBinAddr: 0x30948, symSize: 0x78 }
  - { offset: 0x191F56, size: 0x8, addend: 0x0, symName: __ZN4absl12lts_2024011619str_format_internal12_GLOBAL__N_110StackArray19RunWithCapacityImplILm3EEEvNS0_11FunctionRefIFvNS0_4SpanIjEEEEE, symObjAddr: 0x1E18, symBinAddr: 0x309C0, symSize: 0x78 }
  - { offset: 0x191FC7, size: 0x8, addend: 0x0, symName: __ZN4absl12lts_2024011619str_format_internal12_GLOBAL__N_110StackArray19RunWithCapacityImplILm4EEEvNS0_11FunctionRefIFvNS0_4SpanIjEEEEE, symObjAddr: 0x1E90, symBinAddr: 0x30A38, symSize: 0x78 }
  - { offset: 0x192038, size: 0x8, addend: 0x0, symName: __ZN4absl12lts_2024011619str_format_internal12_GLOBAL__N_110StackArray19RunWithCapacityImplILm1EEEvNS0_11FunctionRefIFvNS0_4SpanIjEEEEE, symObjAddr: 0x1D00, symBinAddr: 0x308A8, symSize: 0xA0 }
  - { offset: 0x1920AA, size: 0x8, addend: 0x0, symName: __ZN4absl12lts_2024011619str_format_internal12_GLOBAL__N_110StackArray15RunWithCapacityEmNS0_11FunctionRefIFvNS0_4SpanIjEEEEE.cold.2, symObjAddr: 0x3AD4, symBinAddr: 0x62FB8, symSize: 0x28 }
  - { offset: 0x1920C2, size: 0x8, addend: 0x0, symName: __ZN4absl12lts_2024011619str_format_internal12_GLOBAL__N_110StackArray15RunWithCapacityEmNS0_11FunctionRefIFvNS0_4SpanIjEEEEE.cold.1, symObjAddr: 0x3AAC, symBinAddr: 0x62F90, symSize: 0x28 }
  - { offset: 0x1922FB, size: 0x8, addend: 0x0, symName: __ZNK4absl12lts_202401164SpanIjEixEm, symObjAddr: 0x21E4, symBinAddr: 0x30D8C, symSize: 0x4C }
  - { offset: 0x192390, size: 0x8, addend: 0x0, symName: __ZN4absl12lts_2024011619functional_internal12InvokeObjectIZNS0_19str_format_internal12_GLOBAL__N_115BinaryToDecimal13RunConversionENS0_7uint128EiNS0_11FunctionRefIFvS5_EEEEUlNS0_4SpanIjEEE_vJSB_EEET0_NS1_7VoidPtrEDpNS1_8ForwardTIT1_E4typeE.cold.1, symObjAddr: 0x3AFC, symBinAddr: 0x62FE0, symSize: 0x28 }
  - { offset: 0x192672, size: 0x8, addend: 0x0, symName: __ZN4absl12lts_2024011619functional_internal12InvokeObjectIZNS0_19str_format_internal12_GLOBAL__N_124FractionalDigitGenerator13RunConversionENS0_7uint128EiNS0_11FunctionRefIFvS5_EEEEUlNS0_4SpanIjEEE_vJSB_EEET0_NS1_7VoidPtrEDpNS1_8ForwardTIT1_E4typeE, symObjAddr: 0x25CC, symBinAddr: 0x31004, symSize: 0xFC }
  - { offset: 0x1927FC, size: 0x8, addend: 0x0, symName: __ZN4absl12lts_2024011619str_format_internal12_GLOBAL__N_124FractionalDigitGenerator11GetOneDigitEv, symObjAddr: 0x26C8, symBinAddr: 0x31100, symSize: 0x90 }
  - { offset: 0x192A00, size: 0x8, addend: 0x0, symName: __ZN4absl12lts_2024011619str_format_internal12_GLOBAL__N_119PrintIntegralDigitsILNS2_11FormatStyleE1EyEEmT0_PNS2_6BufferE, symObjAddr: 0x2CCC, symBinAddr: 0x316C8, symSize: 0x8C }
  - { offset: 0x192B1C, size: 0x8, addend: 0x0, symName: __ZN4absl12lts_2024011619str_format_internal12_GLOBAL__N_17RoundUpILNS2_11FormatStyleE1EEEvPNS2_6BufferEPi.cold.2, symObjAddr: 0x3C10, symBinAddr: 0x63008, symSize: 0x28 }
  - { offset: 0x192CE8, size: 0x8, addend: 0x0, symName: _OUTLINED_FUNCTION_0, symObjAddr: 0x3DC8, symBinAddr: 0x31FC8, symSize: 0x8 }
  - { offset: 0x192D00, size: 0x8, addend: 0x0, symName: _OUTLINED_FUNCTION_2, symObjAddr: 0x3DD8, symBinAddr: 0x31FD0, symSize: 0x8 }
  - { offset: 0x192D18, size: 0x8, addend: 0x0, symName: _OUTLINED_FUNCTION_3, symObjAddr: 0x3DE0, symBinAddr: 0x31FD8, symSize: 0x8 }
  - { offset: 0x194BEC, size: 0x8, addend: 0x0, symName: __ZN4absl12lts_2024011612log_internal7FNMatchENS0_11string_viewES2_, symObjAddr: 0x0, symBinAddr: 0x31FE0, symSize: 0x178 }
  - { offset: 0x194C1C, size: 0x8, addend: 0x0, symName: __ZN4absl12lts_2024011612log_internal7FNMatchENS0_11string_viewES2_, symObjAddr: 0x0, symBinAddr: 0x31FE0, symSize: 0x178 }
  - { offset: 0x195ACA, size: 0x8, addend: 0x0, symName: __ZN4absl12lts_2024011612log_internal7FNMatchENS0_11string_viewES2_.cold.1, symObjAddr: 0x1B4, symBinAddr: 0x63030, symSize: 0x28 }
  - { offset: 0x195AF4, size: 0x8, addend: 0x0, symName: __ZN4absl12lts_2024011612log_internal7FNMatchENS0_11string_viewES2_.cold.1, symObjAddr: 0x1B4, symBinAddr: 0x63030, symSize: 0x28 }
  - { offset: 0x197B28, size: 0x8, addend: 0x0, symName: __ZN4absl12lts_2024011610FormatTimeENS0_11string_viewENS0_4TimeENS0_8TimeZoneE, symObjAddr: 0x0, symBinAddr: 0x32158, symSize: 0x14C }
  - { offset: 0x197B4C, size: 0x8, addend: 0x0, symName: __ZN4absl12lts_2024011612RFC3339_fullE, symObjAddr: 0x880, symBinAddr: 0x6AD93, symSize: 0x0 }
  - { offset: 0x197B66, size: 0x8, addend: 0x0, symName: __ZN4absl12lts_2024011611RFC3339_secE, symObjAddr: 0x899, symBinAddr: 0x6ADAC, symSize: 0x0 }
  - { offset: 0x197B80, size: 0x8, addend: 0x0, symName: __ZN4absl12lts_2024011612RFC1123_fullE, symObjAddr: 0x8B0, symBinAddr: 0x6ADC3, symSize: 0x0 }
  - { offset: 0x197B9A, size: 0x8, addend: 0x0, symName: __ZN4absl12lts_2024011615RFC1123_no_wdayE, symObjAddr: 0x8CB, symBinAddr: 0x6ADDE, symSize: 0x0 }
  - { offset: 0x197BA8, size: 0x8, addend: 0x0, symName: __ZN4absl12lts_202401169ParseTimeENS0_11string_viewES1_NS0_8TimeZoneEPNS0_4TimeEPNSt3__112basic_stringIcNS5_11char_traitsIcEENS5_9allocatorIcEEEE, symObjAddr: 0x214, symBinAddr: 0x3236C, symSize: 0x2B8 }
  - { offset: 0x197BD2, size: 0x8, addend: 0x0, symName: __ZZN4absl12lts_202401169ParseTimeENS0_11string_viewES1_NS0_8TimeZoneEPNS0_4TimeEPNSt3__112basic_stringIcNS5_11char_traitsIcEENS5_9allocatorIcEEEEE8literals, symObjAddr: 0x900, symBinAddr: 0x81A88, symSize: 0x0 }
  - { offset: 0x198D10, size: 0x8, addend: 0x0, symName: __ZN4absl12lts_2024011612_GLOBAL__N_118kInfiniteFutureStrE, symObjAddr: 0x8E2, symBinAddr: 0x6ADF5, symSize: 0x0 }
  - { offset: 0x198D2A, size: 0x8, addend: 0x0, symName: __ZN4absl12lts_2024011612_GLOBAL__N_116kInfinitePastStrE, symObjAddr: 0x8F2, symBinAddr: 0x6AE05, symSize: 0x0 }
  - { offset: 0x198E08, size: 0x8, addend: 0x0, symName: __ZN4absl12lts_2024011610FormatTimeENS0_11string_viewENS0_4TimeENS0_8TimeZoneE, symObjAddr: 0x0, symBinAddr: 0x32158, symSize: 0x14C }
  - { offset: 0x199248, size: 0x8, addend: 0x0, symName: __ZN4absl12lts_2024011610FormatTimeENS0_4TimeENS0_8TimeZoneE, symObjAddr: 0x14C, symBinAddr: 0x322A4, symSize: 0x1C }
  - { offset: 0x1992C6, size: 0x8, addend: 0x0, symName: __ZN4absl12lts_2024011610FormatTimeENS0_4TimeE, symObjAddr: 0x168, symBinAddr: 0x322C0, symSize: 0x4C }
  - { offset: 0x19933A, size: 0x8, addend: 0x0, symName: __ZN4absl12lts_202401169ParseTimeENS0_11string_viewES1_PNS0_4TimeEPNSt3__112basic_stringIcNS4_11char_traitsIcEENS4_9allocatorIcEEEE, symObjAddr: 0x1B4, symBinAddr: 0x3230C, symSize: 0x60 }
  - { offset: 0x1993E2, size: 0x8, addend: 0x0, symName: __ZN4absl12lts_2024011613AbslParseFlagENS0_11string_viewEPNS0_4TimeEPNSt3__112basic_stringIcNS4_11char_traitsIcEENS4_9allocatorIcEEEE, symObjAddr: 0x4CC, symBinAddr: 0x32624, symSize: 0x54 }
  - { offset: 0x19945E, size: 0x8, addend: 0x0, symName: __ZN4absl12lts_2024011615AbslUnparseFlagENS0_4TimeE, symObjAddr: 0x520, symBinAddr: 0x32678, symSize: 0x4C }
  - { offset: 0x1994C0, size: 0x8, addend: 0x0, symName: __ZN4absl12lts_202401169ParseFlagERKNSt3__112basic_stringIcNS1_11char_traitsIcEENS1_9allocatorIcEEEEPNS0_4TimeEPS7_, symObjAddr: 0x56C, symBinAddr: 0x326C4, symSize: 0x64 }
  - { offset: 0x1995B2, size: 0x8, addend: 0x0, symName: __ZN4absl12lts_2024011611UnparseFlagENS0_4TimeE, symObjAddr: 0x5D0, symBinAddr: 0x32728, symSize: 0x4C }
  - { offset: 0x19F06D, size: 0x8, addend: 0x0, symName: __ZN4absl12lts_2024011615random_internal26gaussian_distribution_base3zg_E, symObjAddr: 0x0, symBinAddr: 0x6AE18, symSize: 0x0 }
  - { offset: 0x1A1C22, size: 0x8, addend: 0x0, symName: __ZN4absl12lts_2024011619SetAndroidNativeTagEPKc, symObjAddr: 0x400, symBinAddr: 0x32B64, symSize: 0x20C }
  - { offset: 0x1A1C48, size: 0x8, addend: 0x0, symName: __ZZN4absl12lts_2024011619SetAndroidNativeTagEPKcE12user_log_tag, symObjAddr: 0x2BC00, symBinAddr: 0x843A8, symSize: 0x0 }
  - { offset: 0x1A247C, size: 0x8, addend: 0x0, symName: __ZN4absl12lts_2024011612_GLOBAL__N_113min_log_levelE.0, symObjAddr: 0x2BC08, symBinAddr: 0x843B0, symSize: 0x0 }
  - { offset: 0x1A2496, size: 0x8, addend: 0x0, symName: __ZN4absl12lts_2024011612_GLOBAL__N_115stderrthresholdE.0, symObjAddr: 0xC40, symBinAddr: 0x84110, symSize: 0x0 }
  - { offset: 0x1A24B0, size: 0x8, addend: 0x0, symName: __ZN4absl12lts_2024011612_GLOBAL__N_118prepend_log_prefixE.0, symObjAddr: 0xC44, symBinAddr: 0x84114, symSize: 0x0 }
  - { offset: 0x1A24CA, size: 0x8, addend: 0x0, symName: __ZN4absl12lts_2024011612_GLOBAL__N_124logging_globals_listenerE, symObjAddr: 0xC48, symBinAddr: 0x84118, symSize: 0x0 }
  - { offset: 0x1A24E4, size: 0x8, addend: 0x0, symName: __ZN4absl12lts_2024011612_GLOBAL__N_115android_log_tagE, symObjAddr: 0xC58, symBinAddr: 0x84128, symSize: 0x0 }
  - { offset: 0x1A24FE, size: 0x8, addend: 0x0, symName: __ZN4absl12lts_2024011612_GLOBAL__N_118kDefaultAndroidTagE, symObjAddr: 0xC32, symBinAddr: 0x6B628, symSize: 0x0 }
  - { offset: 0x1A2518, size: 0x8, addend: 0x0, symName: __ZN4absl12lts_2024011612_GLOBAL__N_121log_backtrace_at_hashE.0, symObjAddr: 0x2BC10, symBinAddr: 0x843B8, symSize: 0x0 }
  - { offset: 0x1A2CAF, size: 0x8, addend: 0x0, symName: __ZN4absl12lts_2024011612log_internal17RawSetMinLogLevelENS0_18LogSeverityAtLeastE, symObjAddr: 0x0, symBinAddr: 0x32774, symSize: 0x10 }
  - { offset: 0x1A2CCD, size: 0x8, addend: 0x0, symName: __ZN4absl12lts_2024011612log_internal17RawSetMinLogLevelENS0_18LogSeverityAtLeastE, symObjAddr: 0x0, symBinAddr: 0x32774, symSize: 0x10 }
  - { offset: 0x1A2CEE, size: 0x8, addend: 0x0, symName: __ZN4absl12lts_2024011612log_internal17RawSetMinLogLevelENS0_18LogSeverityAtLeastE, symObjAddr: 0x0, symBinAddr: 0x32774, symSize: 0x10 }
  - { offset: 0x1A2D0F, size: 0x8, addend: 0x0, symName: __ZN4absl12lts_2024011612log_internal21RawSetStderrThresholdENS0_18LogSeverityAtLeastE, symObjAddr: 0x10, symBinAddr: 0x32784, symSize: 0x10 }
  - { offset: 0x1A2D2D, size: 0x8, addend: 0x0, symName: __ZN4absl12lts_2024011612log_internal21RawSetStderrThresholdENS0_18LogSeverityAtLeastE, symObjAddr: 0x10, symBinAddr: 0x32784, symSize: 0x10 }
  - { offset: 0x1A2D4E, size: 0x8, addend: 0x0, symName: __ZN4absl12lts_2024011612log_internal21RawSetStderrThresholdENS0_18LogSeverityAtLeastE, symObjAddr: 0x10, symBinAddr: 0x32784, symSize: 0x10 }
  - { offset: 0x1A2D6F, size: 0x8, addend: 0x0, symName: __ZN4absl12lts_2024011612log_internal18RawEnableLogPrefixEb, symObjAddr: 0x20, symBinAddr: 0x32794, symSize: 0x10 }
  - { offset: 0x1A2D92, size: 0x8, addend: 0x0, symName: __ZN4absl12lts_2024011612log_internal18RawEnableLogPrefixEb, symObjAddr: 0x20, symBinAddr: 0x32794, symSize: 0x10 }
  - { offset: 0x1A2DB8, size: 0x8, addend: 0x0, symName: __ZN4absl12lts_2024011612log_internal18RawEnableLogPrefixEb, symObjAddr: 0x20, symBinAddr: 0x32794, symSize: 0x10 }
  - { offset: 0x1A2DD9, size: 0x8, addend: 0x0, symName: __ZN4absl12lts_2024011612log_internal25SetLoggingGlobalsListenerEPFvvE, symObjAddr: 0x30, symBinAddr: 0x327A4, symSize: 0x10 }
  - { offset: 0x1A2EAE, size: 0x8, addend: 0x0, symName: __ZN4absl12lts_2024011612log_internal19GetAndroidNativeTagEv, symObjAddr: 0x3F0, symBinAddr: 0x32B54, symSize: 0x10 }
  - { offset: 0x1A2ECF, size: 0x8, addend: 0x0, symName: __ZN4absl12lts_2024011612log_internal19GetAndroidNativeTagEv, symObjAddr: 0x3F0, symBinAddr: 0x32B54, symSize: 0x10 }
  - { offset: 0x1A2EF2, size: 0x8, addend: 0x0, symName: __ZN4absl12lts_2024011612log_internal19GetAndroidNativeTagEv, symObjAddr: 0x3F0, symBinAddr: 0x32B54, symSize: 0x10 }
  - { offset: 0x1A2F15, size: 0x8, addend: 0x0, symName: __ZN4absl12lts_2024011612log_internal20ShouldLogBacktraceAtENS0_11string_viewEi, symObjAddr: 0x60C, symBinAddr: 0x32D70, symSize: 0x8C }
  - { offset: 0x1A3344, size: 0x8, addend: 0x0, symName: __ZN4absl12lts_2024011611MinLogLevelEv, symObjAddr: 0x98, symBinAddr: 0x3280C, symSize: 0x10 }
  - { offset: 0x1A335B, size: 0x8, addend: 0x0, symName: __ZN4absl12lts_2024011611MinLogLevelEv, symObjAddr: 0x98, symBinAddr: 0x3280C, symSize: 0x10 }
  - { offset: 0x1A3375, size: 0x8, addend: 0x0, symName: __ZN4absl12lts_2024011611MinLogLevelEv, symObjAddr: 0x98, symBinAddr: 0x3280C, symSize: 0x10 }
  - { offset: 0x1A338F, size: 0x8, addend: 0x0, symName: __ZN4absl12lts_2024011614SetMinLogLevelENS0_18LogSeverityAtLeastE, symObjAddr: 0xA8, symBinAddr: 0x3281C, symSize: 0x34 }
  - { offset: 0x1A34AB, size: 0x8, addend: 0x0, symName: __ZN4absl12lts_2024011615StderrThresholdEv, symObjAddr: 0x24C, symBinAddr: 0x329B0, symSize: 0x10 }
  - { offset: 0x1A34C2, size: 0x8, addend: 0x0, symName: __ZN4absl12lts_2024011615StderrThresholdEv, symObjAddr: 0x24C, symBinAddr: 0x329B0, symSize: 0x10 }
  - { offset: 0x1A34DC, size: 0x8, addend: 0x0, symName: __ZN4absl12lts_2024011615StderrThresholdEv, symObjAddr: 0x24C, symBinAddr: 0x329B0, symSize: 0x10 }
  - { offset: 0x1A34F6, size: 0x8, addend: 0x0, symName: __ZN4absl12lts_2024011618SetStderrThresholdENS0_18LogSeverityAtLeastE, symObjAddr: 0x25C, symBinAddr: 0x329C0, symSize: 0x34 }
  - { offset: 0x1A36F3, size: 0x8, addend: 0x0, symName: __ZN4absl12lts_2024011623SetLogBacktraceLocationENS0_11string_viewEi, symObjAddr: 0x698, symBinAddr: 0x32DFC, symSize: 0x70 }
  - { offset: 0x1A3B0D, size: 0x8, addend: 0x0, symName: __ZN4absl12lts_2024011625ClearLogBacktraceLocationEv, symObjAddr: 0x708, symBinAddr: 0x32E6C, symSize: 0xC }
  - { offset: 0x1A3B2A, size: 0x8, addend: 0x0, symName: __ZN4absl12lts_2024011625ClearLogBacktraceLocationEv, symObjAddr: 0x708, symBinAddr: 0x32E6C, symSize: 0xC }
  - { offset: 0x1A3B4A, size: 0x8, addend: 0x0, symName: __ZN4absl12lts_2024011625ClearLogBacktraceLocationEv, symObjAddr: 0x708, symBinAddr: 0x32E6C, symSize: 0xC }
  - { offset: 0x1A3B69, size: 0x8, addend: 0x0, symName: __ZN4absl12lts_2024011622ShouldPrependLogPrefixEv, symObjAddr: 0x714, symBinAddr: 0x32E78, symSize: 0x14 }
  - { offset: 0x1A3B8A, size: 0x8, addend: 0x0, symName: __ZN4absl12lts_2024011622ShouldPrependLogPrefixEv, symObjAddr: 0x714, symBinAddr: 0x32E78, symSize: 0x14 }
  - { offset: 0x1A3BA4, size: 0x8, addend: 0x0, symName: __ZN4absl12lts_2024011622ShouldPrependLogPrefixEv, symObjAddr: 0x714, symBinAddr: 0x32E78, symSize: 0x14 }
  - { offset: 0x1A3BBE, size: 0x8, addend: 0x0, symName: __ZN4absl12lts_2024011615EnableLogPrefixEb, symObjAddr: 0x728, symBinAddr: 0x32E8C, symSize: 0x34 }
  - { offset: 0x1A8A41, size: 0x8, addend: 0x0, symName: __ZN4absl12lts_2024011613base_internal10AtomicHookIPFvvEE5StoreES4_, symObjAddr: 0x40, symBinAddr: 0x327B4, symSize: 0x58 }
  - { offset: 0x1A8B17, size: 0x8, addend: 0x0, symName: __ZN4absl12lts_2024011611MinLogLevelEv, symObjAddr: 0x98, symBinAddr: 0x3280C, symSize: 0x10 }
  - { offset: 0x1A8BBA, size: 0x8, addend: 0x0, symName: __ZN4absl12lts_2024011613base_internal10AtomicHookIPFvvEE5StoreES4_.cold.2, symObjAddr: 0x9C0, symBinAddr: 0x63080, symSize: 0x28 }
  - { offset: 0x1A8BE7, size: 0x8, addend: 0x0, symName: __ZN4absl12lts_2024011613base_internal10AtomicHookIPFvvEE5StoreES4_.cold.1, symObjAddr: 0x998, symBinAddr: 0x63058, symSize: 0x28 }
  - { offset: 0x1A8CB1, size: 0x8, addend: 0x0, symName: __ZN4absl12lts_2024011612log_internal17ScopedMinLogLevelC2ENS0_18LogSeverityAtLeastE, symObjAddr: 0xDC, symBinAddr: 0x32850, symSize: 0x58 }
  - { offset: 0x1A8E5B, size: 0x8, addend: 0x0, symName: __ZN4absl12lts_2024011612log_internal17ScopedMinLogLevelC1ENS0_18LogSeverityAtLeastE, symObjAddr: 0x134, symBinAddr: 0x328A8, symSize: 0x58 }
  - { offset: 0x1A900D, size: 0x8, addend: 0x0, symName: __ZN4absl12lts_2024011612log_internal17ScopedMinLogLevelD2Ev, symObjAddr: 0x18C, symBinAddr: 0x32900, symSize: 0x58 }
  - { offset: 0x1A913D, size: 0x8, addend: 0x0, symName: __ZN4absl12lts_2024011612log_internal17ScopedMinLogLevelD1Ev, symObjAddr: 0x1F4, symBinAddr: 0x32958, symSize: 0x58 }
  - { offset: 0x1A9288, size: 0x8, addend: 0x0, symName: __ZN4absl12lts_2024011621ScopedStderrThresholdC2ENS0_18LogSeverityAtLeastE, symObjAddr: 0x290, symBinAddr: 0x329F4, symSize: 0x58 }
  - { offset: 0x1A9432, size: 0x8, addend: 0x0, symName: __ZN4absl12lts_2024011621ScopedStderrThresholdC1ENS0_18LogSeverityAtLeastE, symObjAddr: 0x2E8, symBinAddr: 0x32A4C, symSize: 0x58 }
  - { offset: 0x1A95E4, size: 0x8, addend: 0x0, symName: __ZN4absl12lts_2024011621ScopedStderrThresholdD2Ev, symObjAddr: 0x340, symBinAddr: 0x32AA4, symSize: 0x58 }
  - { offset: 0x1A9714, size: 0x8, addend: 0x0, symName: __ZN4absl12lts_2024011621ScopedStderrThresholdD1Ev, symObjAddr: 0x398, symBinAddr: 0x32AFC, symSize: 0x58 }
  - { offset: 0x1AA0F0, size: 0x8, addend: 0x0, symName: __ZN4absl12lts_2024011613hash_internal15MixingHashState18combine_contiguousES2_PKhm, symObjAddr: 0x760, symBinAddr: 0x32EC4, symSize: 0x10C }
  - { offset: 0x1AA373, size: 0x8, addend: 0x0, symName: __ZN4absl12lts_2024011613base_internal10AtomicHookIPFvvEE13DummyFunctionEv, symObjAddr: 0x75C, symBinAddr: 0x32EC0, symSize: 0x4 }
  - { offset: 0x1AC551, size: 0x8, addend: 0x0, symName: __ZN4absl12lts_2024011612log_internal13IsInitializedEv, symObjAddr: 0x0, symBinAddr: 0x32FD0, symSize: 0x14 }
  - { offset: 0x1AC58E, size: 0x8, addend: 0x0, symName: __ZN4absl12lts_2024011612log_internal12_GLOBAL__N_119logging_initializedE.0, symObjAddr: 0x1B718, symBinAddr: 0x843C0, symSize: 0x0 }
  - { offset: 0x1AC5A8, size: 0x8, addend: 0x0, symName: __ZN4absl12lts_2024011612log_internal12_GLOBAL__N_112timezone_ptrE, symObjAddr: 0x1B720, symBinAddr: 0x843C8, symSize: 0x0 }
  - { offset: 0x1AC5C2, size: 0x8, addend: 0x0, symName: __ZN4absl12lts_2024011612log_internal12_GLOBAL__N_121symbolize_stack_traceE.0, symObjAddr: 0x264, symBinAddr: 0x84130, symSize: 0x0 }
  - { offset: 0x1AC5DC, size: 0x8, addend: 0x0, symName: __ZN4absl12lts_2024011612log_internal12_GLOBAL__N_125max_frames_in_stack_traceE.0, symObjAddr: 0x268, symBinAddr: 0x84134, symSize: 0x0 }
  - { offset: 0x1AC5F6, size: 0x8, addend: 0x0, symName: __ZN4absl12lts_2024011612log_internal12_GLOBAL__N_114exit_on_dfatalE.0, symObjAddr: 0x26C, symBinAddr: 0x84138, symSize: 0x0 }
  - { offset: 0x1AC610, size: 0x8, addend: 0x0, symName: __ZN4absl12lts_2024011612log_internal12_GLOBAL__N_123suppress_sigabort_traceE, symObjAddr: 0x1B728, symBinAddr: 0x843D0, symSize: 0x0 }
  - { offset: 0x1AC61E, size: 0x8, addend: 0x0, symName: __ZN4absl12lts_2024011612log_internal13IsInitializedEv, symObjAddr: 0x0, symBinAddr: 0x32FD0, symSize: 0x14 }
  - { offset: 0x1AC63F, size: 0x8, addend: 0x0, symName: __ZN4absl12lts_2024011612log_internal13IsInitializedEv, symObjAddr: 0x0, symBinAddr: 0x32FD0, symSize: 0x14 }
  - { offset: 0x1AC659, size: 0x8, addend: 0x0, symName: __ZN4absl12lts_2024011612log_internal13IsInitializedEv, symObjAddr: 0x0, symBinAddr: 0x32FD0, symSize: 0x14 }
  - { offset: 0x1AC673, size: 0x8, addend: 0x0, symName: __ZN4absl12lts_2024011612log_internal14SetInitializedEv, symObjAddr: 0x14, symBinAddr: 0x32FE4, symSize: 0x14 }
  - { offset: 0x1AC690, size: 0x8, addend: 0x0, symName: __ZN4absl12lts_2024011612log_internal14SetInitializedEv, symObjAddr: 0x14, symBinAddr: 0x32FE4, symSize: 0x14 }
  - { offset: 0x1AC6B2, size: 0x8, addend: 0x0, symName: __ZN4absl12lts_2024011612log_internal14SetInitializedEv, symObjAddr: 0x14, symBinAddr: 0x32FE4, symSize: 0x14 }
  - { offset: 0x1AC6D2, size: 0x8, addend: 0x0, symName: __ZN4absl12lts_2024011612log_internal13WriteToStderrENS0_11string_viewENS0_11LogSeverityE, symObjAddr: 0x28, symBinAddr: 0x32FF8, symSize: 0x1C }
  - { offset: 0x1AC71E, size: 0x8, addend: 0x0, symName: __ZN4absl12lts_2024011612log_internal11SetTimeZoneENS0_8TimeZoneE, symObjAddr: 0x44, symBinAddr: 0x33014, symSize: 0x48 }
  - { offset: 0x1AC7CF, size: 0x8, addend: 0x0, symName: __ZN4absl12lts_2024011612log_internal8TimeZoneEv, symObjAddr: 0x8C, symBinAddr: 0x3305C, symSize: 0x10 }
  - { offset: 0x1AC7D9, size: 0x8, addend: 0x0, symName: __ZN4absl12lts_2024011612log_internal8TimeZoneEv, symObjAddr: 0x8C, symBinAddr: 0x3305C, symSize: 0x10 }
  - { offset: 0x1AC7FA, size: 0x8, addend: 0x0, symName: __ZN4absl12lts_2024011612log_internal8TimeZoneEv, symObjAddr: 0x8C, symBinAddr: 0x3305C, symSize: 0x10 }
  - { offset: 0x1AC81D, size: 0x8, addend: 0x0, symName: __ZN4absl12lts_2024011612log_internal8TimeZoneEv, symObjAddr: 0x8C, symBinAddr: 0x3305C, symSize: 0x10 }
  - { offset: 0x1AC83F, size: 0x8, addend: 0x0, symName: __ZN4absl12lts_2024011612log_internal28ShouldSymbolizeLogStackTraceEv, symObjAddr: 0x9C, symBinAddr: 0x3306C, symSize: 0x14 }
  - { offset: 0x1AC860, size: 0x8, addend: 0x0, symName: __ZN4absl12lts_2024011612log_internal28ShouldSymbolizeLogStackTraceEv, symObjAddr: 0x9C, symBinAddr: 0x3306C, symSize: 0x14 }
  - { offset: 0x1AC87A, size: 0x8, addend: 0x0, symName: __ZN4absl12lts_2024011612log_internal28ShouldSymbolizeLogStackTraceEv, symObjAddr: 0x9C, symBinAddr: 0x3306C, symSize: 0x14 }
  - { offset: 0x1AC894, size: 0x8, addend: 0x0, symName: __ZN4absl12lts_2024011612log_internal28EnableSymbolizeLogStackTraceEb, symObjAddr: 0xB0, symBinAddr: 0x33080, symSize: 0x10 }
  - { offset: 0x1AC8C3, size: 0x8, addend: 0x0, symName: __ZN4absl12lts_2024011612log_internal28EnableSymbolizeLogStackTraceEb, symObjAddr: 0xB0, symBinAddr: 0x33080, symSize: 0x10 }
  - { offset: 0x1AC8E9, size: 0x8, addend: 0x0, symName: __ZN4absl12lts_2024011612log_internal28EnableSymbolizeLogStackTraceEb, symObjAddr: 0xB0, symBinAddr: 0x33080, symSize: 0x10 }
  - { offset: 0x1AC909, size: 0x8, addend: 0x0, symName: __ZN4absl12lts_2024011612log_internal24MaxFramesInLogStackTraceEv, symObjAddr: 0xC0, symBinAddr: 0x33090, symSize: 0x10 }
  - { offset: 0x1AC92A, size: 0x8, addend: 0x0, symName: __ZN4absl12lts_2024011612log_internal24MaxFramesInLogStackTraceEv, symObjAddr: 0xC0, symBinAddr: 0x33090, symSize: 0x10 }
  - { offset: 0x1AC944, size: 0x8, addend: 0x0, symName: __ZN4absl12lts_2024011612log_internal24MaxFramesInLogStackTraceEv, symObjAddr: 0xC0, symBinAddr: 0x33090, symSize: 0x10 }
  - { offset: 0x1AC95E, size: 0x8, addend: 0x0, symName: __ZN4absl12lts_2024011612log_internal27SetMaxFramesInLogStackTraceEi, symObjAddr: 0xD0, symBinAddr: 0x330A0, symSize: 0x10 }
  - { offset: 0x1AC988, size: 0x8, addend: 0x0, symName: __ZN4absl12lts_2024011612log_internal27SetMaxFramesInLogStackTraceEi, symObjAddr: 0xD0, symBinAddr: 0x330A0, symSize: 0x10 }
  - { offset: 0x1AC9A9, size: 0x8, addend: 0x0, symName: __ZN4absl12lts_2024011612log_internal27SetMaxFramesInLogStackTraceEi, symObjAddr: 0xD0, symBinAddr: 0x330A0, symSize: 0x10 }
  - { offset: 0x1AC9C9, size: 0x8, addend: 0x0, symName: __ZN4absl12lts_2024011612log_internal12ExitOnDFatalEv, symObjAddr: 0xE0, symBinAddr: 0x330B0, symSize: 0x14 }
  - { offset: 0x1AC9EA, size: 0x8, addend: 0x0, symName: __ZN4absl12lts_2024011612log_internal12ExitOnDFatalEv, symObjAddr: 0xE0, symBinAddr: 0x330B0, symSize: 0x14 }
  - { offset: 0x1ACA04, size: 0x8, addend: 0x0, symName: __ZN4absl12lts_2024011612log_internal12ExitOnDFatalEv, symObjAddr: 0xE0, symBinAddr: 0x330B0, symSize: 0x14 }
  - { offset: 0x1ACA1E, size: 0x8, addend: 0x0, symName: __ZN4absl12lts_2024011612log_internal15SetExitOnDFatalEb, symObjAddr: 0xF4, symBinAddr: 0x330C4, symSize: 0x10 }
  - { offset: 0x1ACA4D, size: 0x8, addend: 0x0, symName: __ZN4absl12lts_2024011612log_internal15SetExitOnDFatalEb, symObjAddr: 0xF4, symBinAddr: 0x330C4, symSize: 0x10 }
  - { offset: 0x1ACA73, size: 0x8, addend: 0x0, symName: __ZN4absl12lts_2024011612log_internal15SetExitOnDFatalEb, symObjAddr: 0xF4, symBinAddr: 0x330C4, symSize: 0x10 }
  - { offset: 0x1ACA93, size: 0x8, addend: 0x0, symName: __ZN4absl12lts_2024011612log_internal21SuppressSigabortTraceEv, symObjAddr: 0x104, symBinAddr: 0x330D4, symSize: 0x14 }
  - { offset: 0x1ACAB4, size: 0x8, addend: 0x0, symName: __ZN4absl12lts_2024011612log_internal21SuppressSigabortTraceEv, symObjAddr: 0x104, symBinAddr: 0x330D4, symSize: 0x14 }
  - { offset: 0x1ACAD7, size: 0x8, addend: 0x0, symName: __ZN4absl12lts_2024011612log_internal21SuppressSigabortTraceEv, symObjAddr: 0x104, symBinAddr: 0x330D4, symSize: 0x14 }
  - { offset: 0x1ACAF9, size: 0x8, addend: 0x0, symName: __ZN4absl12lts_2024011612log_internal24SetSuppressSigabortTraceEb, symObjAddr: 0x118, symBinAddr: 0x330E8, symSize: 0x20 }
  - { offset: 0x1B043B, size: 0x8, addend: 0x0, symName: __ZN4absl12lts_2024011612log_internal11SetTimeZoneENS0_8TimeZoneE.cold.1, symObjAddr: 0x138, symBinAddr: 0x630A8, symSize: 0x44 }
  - { offset: 0x1B2255, size: 0x8, addend: 0x0, symName: __ZN4absl12lts_2024011624synchronization_internal12_GLOBAL__N_18arena_muE, symObjAddr: 0x27858, symBinAddr: 0x843E0, symSize: 0x0 }
  - { offset: 0x1B226F, size: 0x8, addend: 0x0, symName: __ZN4absl12lts_2024011624synchronization_internal12_GLOBAL__N_15arenaE, symObjAddr: 0x27850, symBinAddr: 0x843D8, symSize: 0x0 }
  - { offset: 0x1B2DBF, size: 0x8, addend: 0x0, symName: __ZN4absl12lts_2024011624synchronization_internalL10MoveToListEPNS1_11GraphCycles3RepEPNS1_12_GLOBAL__N_13VecIiEES8_, symObjAddr: 0x155C, symBinAddr: 0x34654, symSize: 0x70 }
  - { offset: 0x1B2E09, size: 0x8, addend: 0x0, symName: __ZN4absl12lts_2024011624synchronization_internalL10MoveToListEPNS1_11GraphCycles3RepEPNS1_12_GLOBAL__N_13VecIiEES8_, symObjAddr: 0x155C, symBinAddr: 0x34654, symSize: 0x70 }
  - { offset: 0x1B2E44, size: 0x8, addend: 0x0, symName: __ZN4absl12lts_2024011624synchronization_internalL10MoveToListEPNS1_11GraphCycles3RepEPNS1_12_GLOBAL__N_13VecIiEES8_, symObjAddr: 0x155C, symBinAddr: 0x34654, symSize: 0x70 }
  - { offset: 0x1B3054, size: 0x8, addend: 0x0, symName: __ZNSt3__111__introsortINS_17_ClassicAlgPolicyERZN4absl12lts_2024011624synchronization_internalL4SortERKNS4_12_GLOBAL__N_13VecIPNS5_4NodeEEEPNS6_IiEEE6ByRankPiLb0EEEvT1_SH_T0_NS_15iterator_traitsISH_E15difference_typeEb, symObjAddr: 0x15CC, symBinAddr: 0x346C4, symSize: 0xB9C }
  - { offset: 0x1B4DF0, size: 0x8, addend: 0x0, symName: __ZNSt3__127__insertion_sort_incompleteB8ne200100INS_17_ClassicAlgPolicyERZN4absl12lts_2024011624synchronization_internalL4SortERKNS4_12_GLOBAL__N_13VecIPNS5_4NodeEEEPNS6_IiEEE6ByRankPiEEbT1_SH_T0_, symObjAddr: 0x234C, symBinAddr: 0x35444, symSize: 0x3A0 }
  - { offset: 0x1B6CCF, size: 0x8, addend: 0x0, symName: __ZNSt3__17__sort5B8ne200100INS_17_ClassicAlgPolicyERZN4absl12lts_2024011624synchronization_internalL4SortERKNS4_12_GLOBAL__N_13VecIPNS5_4NodeEEEPNS6_IiEEE6ByRankPiLi0EEEvT1_SH_SH_SH_SH_T0_, symObjAddr: 0x2168, symBinAddr: 0x35260, symSize: 0x1E4 }
  - { offset: 0x1B6D3A, size: 0x8, addend: 0x0, symName: __ZNSt3__17__sort5B8ne200100INS_17_ClassicAlgPolicyERZN4absl12lts_2024011624synchronization_internalL4SortERKNS4_12_GLOBAL__N_13VecIPNS5_4NodeEEEPNS6_IiEEE6ByRankPiLi0EEEvT1_SH_SH_SH_SH_T0_, symObjAddr: 0x2168, symBinAddr: 0x35260, symSize: 0x1E4 }
  - { offset: 0x1B821D, size: 0x8, addend: 0x0, symName: __ZN4absl12lts_2024011624synchronization_internal11GraphCyclesC2Ev, symObjAddr: 0x0, symBinAddr: 0x33108, symSize: 0xC8 }
  - { offset: 0x1B83E4, size: 0x8, addend: 0x0, symName: __ZN4absl12lts_2024011624synchronization_internal11GraphCycles3RepC2Ev, symObjAddr: 0x132C, symBinAddr: 0x34424, symSize: 0xB0 }
  - { offset: 0x1B8739, size: 0x8, addend: 0x0, symName: __ZN4absl12lts_2024011624synchronization_internal11GraphCyclesC1Ev, symObjAddr: 0xC8, symBinAddr: 0x331D0, symSize: 0x4 }
  - { offset: 0x1B8767, size: 0x8, addend: 0x0, symName: __ZN4absl12lts_2024011624synchronization_internal11GraphCyclesC1Ev, symObjAddr: 0xC8, symBinAddr: 0x331D0, symSize: 0x4 }
  - { offset: 0x1B8890, size: 0x8, addend: 0x0, symName: __ZN4absl12lts_2024011624synchronization_internal11GraphCyclesD2Ev, symObjAddr: 0xCC, symBinAddr: 0x331D4, symSize: 0xD0 }
  - { offset: 0x1B8AAF, size: 0x8, addend: 0x0, symName: __ZN4absl12lts_2024011624synchronization_internal12_GLOBAL__N_13VecIiED1Ev, symObjAddr: 0x13DC, symBinAddr: 0x344D4, symSize: 0x38 }
  - { offset: 0x1B8B0C, size: 0x8, addend: 0x0, symName: __ZN4absl12lts_2024011624synchronization_internal11GraphCyclesD1Ev, symObjAddr: 0x1AC, symBinAddr: 0x332A4, symSize: 0x4 }
  - { offset: 0x1B8B3A, size: 0x8, addend: 0x0, symName: __ZN4absl12lts_2024011624synchronization_internal11GraphCyclesD1Ev, symObjAddr: 0x1AC, symBinAddr: 0x332A4, symSize: 0x4 }
  - { offset: 0x1B8C41, size: 0x8, addend: 0x0, symName: __ZNK4absl12lts_2024011624synchronization_internal11GraphCycles15CheckInvariantsEv, symObjAddr: 0x1B0, symBinAddr: 0x332A8, symSize: 0x2A0 }
  - { offset: 0x1B900D, size: 0x8, addend: 0x0, symName: __ZN4absl12lts_2024011624synchronization_internal12_GLOBAL__N_17NodeSetC1Ev, symObjAddr: 0x450, symBinAddr: 0x33548, symSize: 0x4C }
  - { offset: 0x1B90CB, size: 0x8, addend: 0x0, symName: __ZN4absl12lts_2024011624synchronization_internal12_GLOBAL__N_17NodeSet6insertEi, symObjAddr: 0x49C, symBinAddr: 0x33594, symSize: 0x19C }
  - { offset: 0x1B94F1, size: 0x8, addend: 0x0, symName: __ZN4absl12lts_2024011624synchronization_internal12_GLOBAL__N_17NodeSet4InitEv, symObjAddr: 0x1414, symBinAddr: 0x3450C, symSize: 0x5C }
  - { offset: 0x1B9744, size: 0x8, addend: 0x0, symName: __ZNK4absl12lts_2024011624synchronization_internal12_GLOBAL__N_17NodeSet9FindIndexEi, symObjAddr: 0x14EC, symBinAddr: 0x345E4, symSize: 0x70 }
  - { offset: 0x1B97B6, size: 0x8, addend: 0x0, symName: __ZNK4absl12lts_2024011624synchronization_internal12_GLOBAL__N_17NodeSet9FindIndexEi, symObjAddr: 0x14EC, symBinAddr: 0x345E4, symSize: 0x70 }
  - { offset: 0x1B9801, size: 0x8, addend: 0x0, symName: __ZN4absl12lts_2024011624synchronization_internal12_GLOBAL__N_13VecIiE4GrowEj, symObjAddr: 0x1470, symBinAddr: 0x34568, symSize: 0x7C }
  - { offset: 0x1B9B08, size: 0x8, addend: 0x0, symName: __ZN4absl12lts_2024011624synchronization_internal11GraphCycles5GetIdEPv, symObjAddr: 0x638, symBinAddr: 0x33730, symSize: 0x214 }
  - { offset: 0x1BA061, size: 0x8, addend: 0x0, symName: __ZN4absl12lts_2024011624synchronization_internal11GraphCycles10RemoveNodeEPv, symObjAddr: 0x84C, symBinAddr: 0x33944, symSize: 0x1CC }
  - { offset: 0x1BA32F, size: 0x8, addend: 0x0, symName: __ZN4absl12lts_2024011624synchronization_internal12_GLOBAL__N_13VecIiE9push_backERKi, symObjAddr: 0xA18, symBinAddr: 0x33B10, symSize: 0x54 }
  - { offset: 0x1BA379, size: 0x8, addend: 0x0, symName: __ZN4absl12lts_2024011624synchronization_internal11GraphCycles3PtrENS1_7GraphIdE, symObjAddr: 0xA6C, symBinAddr: 0x33B64, symSize: 0x40 }
  - { offset: 0x1BA44A, size: 0x8, addend: 0x0, symName: __ZN4absl12lts_2024011624synchronization_internal11GraphCycles7HasNodeENS1_7GraphIdE, symObjAddr: 0xAAC, symBinAddr: 0x33BA4, symSize: 0x24 }
  - { offset: 0x1BA539, size: 0x8, addend: 0x0, symName: __ZNK4absl12lts_2024011624synchronization_internal11GraphCycles7HasEdgeENS1_7GraphIdES3_, symObjAddr: 0xAD0, symBinAddr: 0x33BC8, symSize: 0x78 }
  - { offset: 0x1BA696, size: 0x8, addend: 0x0, symName: __ZN4absl12lts_2024011624synchronization_internal11GraphCycles10RemoveEdgeENS1_7GraphIdES3_, symObjAddr: 0xB48, symBinAddr: 0x33C40, symSize: 0xAC }
  - { offset: 0x1BA90C, size: 0x8, addend: 0x0, symName: __ZN4absl12lts_2024011624synchronization_internal11GraphCycles10InsertEdgeENS1_7GraphIdES3_, symObjAddr: 0xBF4, symBinAddr: 0x33CEC, symSize: 0x4B4 }
  - { offset: 0x1BB7F2, size: 0x8, addend: 0x0, symName: __ZNK4absl12lts_2024011624synchronization_internal11GraphCycles8FindPathENS1_7GraphIdES3_iPS3_, symObjAddr: 0x10A8, symBinAddr: 0x341A0, symSize: 0x1CC }
  - { offset: 0x1BBC18, size: 0x8, addend: 0x0, symName: __ZNK4absl12lts_2024011624synchronization_internal11GraphCycles11IsReachableENS1_7GraphIdES3_, symObjAddr: 0x1274, symBinAddr: 0x3436C, symSize: 0x24 }
  - { offset: 0x1BBC8F, size: 0x8, addend: 0x0, symName: __ZN4absl12lts_2024011624synchronization_internal11GraphCycles16UpdateStackTraceENS1_7GraphIdEiPFiPPviE, symObjAddr: 0x1298, symBinAddr: 0x34390, symSize: 0x58 }
  - { offset: 0x1BBD7F, size: 0x8, addend: 0x0, symName: __ZN4absl12lts_2024011624synchronization_internal11GraphCycles13GetStackTraceENS1_7GraphIdEPPPv, symObjAddr: 0x12F0, symBinAddr: 0x343E8, symSize: 0x3C }
  - { offset: 0x1BDF95, size: 0x8, addend: 0x0, symName: __ZN4absl12lts_2024011613hash_internal15MixingHashState28CombineLargeContiguousImpl32EyPKhm, symObjAddr: 0x0, symBinAddr: 0x357E4, symSize: 0xFC }
  - { offset: 0x1BDFB8, size: 0x8, addend: 0x0, symName: __ZN4absl12lts_2024011613hash_internal15MixingHashState5kSeedE, symObjAddr: 0x2D0, symBinAddr: 0x81AC8, symSize: 0x0 }
  - { offset: 0x1BDFD2, size: 0x8, addend: 0x0, symName: __ZN4absl12lts_2024011613hash_internalL9kHashSaltE, symObjAddr: 0x2D8, symBinAddr: 0x6B638, symSize: 0x0 }
  - { offset: 0x1BEE09, size: 0x8, addend: 0x0, symName: __ZN4absl12lts_2024011613hash_internal15MixingHashState28CombineLargeContiguousImpl32EyPKhm, symObjAddr: 0x0, symBinAddr: 0x357E4, symSize: 0xFC }
  - { offset: 0x1BEFCD, size: 0x8, addend: 0x0, symName: __ZN4absl12lts_2024011613hash_internal15MixingHashState28CombineLargeContiguousImpl64EyPKhm, symObjAddr: 0xFC, symBinAddr: 0x358E0, symSize: 0x9C }
  - { offset: 0x1BF0BD, size: 0x8, addend: 0x0, symName: __ZN4absl12lts_2024011613hash_internal15MixingHashState21CombineContiguousImplEyPKhmNSt3__117integral_constantIiLi8EEE, symObjAddr: 0x198, symBinAddr: 0x3597C, symSize: 0x120 }
  - { offset: 0x1BF388, size: 0x8, addend: 0x0, symName: __ZN4absl12lts_2024011613hash_internal15MixingHashState16LowLevelHashImplEPKhm, symObjAddr: 0x2B8, symBinAddr: 0x35A9C, symSize: 0x14 }
  - { offset: 0x1C12B6, size: 0x8, addend: 0x0, symName: __ZN4absl12lts_2024011618container_internal14HashtablezInfo14kMaxStackDepthE, symObjAddr: 0x878, symBinAddr: 0x6B660, symSize: 0x0 }
  - { offset: 0x1C13EF, size: 0x8, addend: 0x0, symName: __ZN4absl12lts_2024011618container_internal23GlobalHashtablezSamplerEv, symObjAddr: 0x0, symBinAddr: 0x35AB0, symSize: 0x8C }
  - { offset: 0x1C1419, size: 0x8, addend: 0x0, symName: __ZZN4absl12lts_2024011618container_internal23GlobalHashtablezSamplerEvE7sampler, symObjAddr: 0x2C4A0, symBinAddr: 0x843E8, symSize: 0x0 }
  - { offset: 0x1C1466, size: 0x8, addend: 0x0, symName: __ZZN4absl12lts_2024011618container_internalL19ShouldForceSamplingEvE12global_state.0, symObjAddr: 0x944, symBinAddr: 0x8413C, symSize: 0x0 }
  - { offset: 0x1C149E, size: 0x8, addend: 0x0, symName: __ZN4absl12lts_2024011618container_internal12_GLOBAL__N_128g_hashtablez_config_listenerE.0, symObjAddr: 0x2C4B0, symBinAddr: 0x843F8, symSize: 0x0 }
  - { offset: 0x1C14B8, size: 0x8, addend: 0x0, symName: __ZN4absl12lts_2024011618container_internal12_GLOBAL__N_120g_hashtablez_enabledE.0, symObjAddr: 0x2C4B8, symBinAddr: 0x84400, symSize: 0x0 }
  - { offset: 0x1C14D2, size: 0x8, addend: 0x0, symName: __ZN4absl12lts_2024011618container_internal12_GLOBAL__N_129g_hashtablez_sample_parameterE.0, symObjAddr: 0x948, symBinAddr: 0x84140, symSize: 0x0 }
  - { offset: 0x1C1515, size: 0x8, addend: 0x0, symName: __ZN4absl12lts_2024011618container_internal10SampleSlowERNS1_13SamplingStateEm, symObjAddr: 0x14C, symBinAddr: 0x35BFC, symSize: 0x84 }
  - { offset: 0x1C1669, size: 0x8, addend: 0x0, symName: __ZN4absl12lts_2024011618container_internal12UnsampleSlowEPNS1_14HashtablezInfoE, symObjAddr: 0x320, symBinAddr: 0x35DD0, symSize: 0x40 }
  - { offset: 0x1C1727, size: 0x8, addend: 0x0, symName: __ZN4absl12lts_2024011618container_internal16RecordRehashSlowEPNS1_14HashtablezInfoEm, symObjAddr: 0x360, symBinAddr: 0x35E10, symSize: 0x1C }
  - { offset: 0x1C18A8, size: 0x8, addend: 0x0, symName: __ZN4absl12lts_2024011618container_internal21RecordReservationSlowEPNS1_14HashtablezInfoEm, symObjAddr: 0x37C, symBinAddr: 0x35E2C, symSize: 0x14 }
  - { offset: 0x1C18DF, size: 0x8, addend: 0x0, symName: __ZN4absl12lts_2024011618container_internal21RecordReservationSlowEPNS1_14HashtablezInfoEm, symObjAddr: 0x37C, symBinAddr: 0x35E2C, symSize: 0x14 }
  - { offset: 0x1C1903, size: 0x8, addend: 0x0, symName: __ZN4absl12lts_2024011618container_internal21RecordReservationSlowEPNS1_14HashtablezInfoEm, symObjAddr: 0x37C, symBinAddr: 0x35E2C, symSize: 0x14 }
  - { offset: 0x1C197F, size: 0x8, addend: 0x0, symName: __ZN4absl12lts_2024011618container_internal28RecordClearedReservationSlowEPNS1_14HashtablezInfoE, symObjAddr: 0x390, symBinAddr: 0x35E40, symSize: 0x8 }
  - { offset: 0x1C19A9, size: 0x8, addend: 0x0, symName: __ZN4absl12lts_2024011618container_internal28RecordClearedReservationSlowEPNS1_14HashtablezInfoE, symObjAddr: 0x390, symBinAddr: 0x35E40, symSize: 0x8 }
  - { offset: 0x1C19D3, size: 0x8, addend: 0x0, symName: __ZN4absl12lts_2024011618container_internal28RecordClearedReservationSlowEPNS1_14HashtablezInfoE, symObjAddr: 0x390, symBinAddr: 0x35E40, symSize: 0x8 }
  - { offset: 0x1C19FD, size: 0x8, addend: 0x0, symName: __ZN4absl12lts_2024011618container_internal24RecordStorageChangedSlowEPNS1_14HashtablezInfoEmm, symObjAddr: 0x398, symBinAddr: 0x35E48, symSize: 0x1C }
  - { offset: 0x1C1A41, size: 0x8, addend: 0x0, symName: __ZN4absl12lts_2024011618container_internal24RecordStorageChangedSlowEPNS1_14HashtablezInfoEmm, symObjAddr: 0x398, symBinAddr: 0x35E48, symSize: 0x1C }
  - { offset: 0x1C1A6B, size: 0x8, addend: 0x0, symName: __ZN4absl12lts_2024011618container_internal24RecordStorageChangedSlowEPNS1_14HashtablezInfoEmm, symObjAddr: 0x398, symBinAddr: 0x35E48, symSize: 0x1C }
  - { offset: 0x1C1B95, size: 0x8, addend: 0x0, symName: __ZN4absl12lts_2024011618container_internal16RecordInsertSlowEPNS1_14HashtablezInfoEmm, symObjAddr: 0x3B4, symBinAddr: 0x35E64, symSize: 0x7C }
  - { offset: 0x1C1E12, size: 0x8, addend: 0x0, symName: __ZN4absl12lts_2024011618container_internal15RecordEraseSlowEPNS1_14HashtablezInfoE, symObjAddr: 0x430, symBinAddr: 0x35EE0, symSize: 0x24 }
  - { offset: 0x1C1F28, size: 0x8, addend: 0x0, symName: __ZN4absl12lts_2024011618container_internal27SetHashtablezConfigListenerEPFvvE, symObjAddr: 0x454, symBinAddr: 0x35F04, symSize: 0x10 }
  - { offset: 0x1C1F52, size: 0x8, addend: 0x0, symName: __ZN4absl12lts_2024011618container_internal27SetHashtablezConfigListenerEPFvvE, symObjAddr: 0x454, symBinAddr: 0x35F04, symSize: 0x10 }
  - { offset: 0x1C1F73, size: 0x8, addend: 0x0, symName: __ZN4absl12lts_2024011618container_internal27SetHashtablezConfigListenerEPFvvE, symObjAddr: 0x454, symBinAddr: 0x35F04, symSize: 0x10 }
  - { offset: 0x1C1F93, size: 0x8, addend: 0x0, symName: __ZN4absl12lts_2024011618container_internal19IsHashtablezEnabledEv, symObjAddr: 0x464, symBinAddr: 0x35F14, symSize: 0x14 }
  - { offset: 0x1C1FB4, size: 0x8, addend: 0x0, symName: __ZN4absl12lts_2024011618container_internal19IsHashtablezEnabledEv, symObjAddr: 0x464, symBinAddr: 0x35F14, symSize: 0x14 }
  - { offset: 0x1C1FCE, size: 0x8, addend: 0x0, symName: __ZN4absl12lts_2024011618container_internal19IsHashtablezEnabledEv, symObjAddr: 0x464, symBinAddr: 0x35F14, symSize: 0x14 }
  - { offset: 0x1C2001, size: 0x8, addend: 0x0, symName: __ZN4absl12lts_2024011618container_internal20SetHashtablezEnabledEb, symObjAddr: 0x478, symBinAddr: 0x35F28, symSize: 0x24 }
  - { offset: 0x1C202D, size: 0x8, addend: 0x0, symName: __ZN4absl12lts_2024011618container_internal20SetHashtablezEnabledEb, symObjAddr: 0x478, symBinAddr: 0x35F28, symSize: 0x24 }
  - { offset: 0x1C204D, size: 0x8, addend: 0x0, symName: __ZN4absl12lts_2024011618container_internal20SetHashtablezEnabledEb, symObjAddr: 0x478, symBinAddr: 0x35F28, symSize: 0x24 }
  - { offset: 0x1C2073, size: 0x8, addend: 0x0, symName: __ZN4absl12lts_2024011618container_internal20SetHashtablezEnabledEb, symObjAddr: 0x478, symBinAddr: 0x35F28, symSize: 0x24 }
  - { offset: 0x1C20F5, size: 0x8, addend: 0x0, symName: __ZN4absl12lts_2024011618container_internal28SetHashtablezEnabledInternalEb, symObjAddr: 0x49C, symBinAddr: 0x35F4C, symSize: 0x10 }
  - { offset: 0x1C2118, size: 0x8, addend: 0x0, symName: __ZN4absl12lts_2024011618container_internal28SetHashtablezEnabledInternalEb, symObjAddr: 0x49C, symBinAddr: 0x35F4C, symSize: 0x10 }
  - { offset: 0x1C213E, size: 0x8, addend: 0x0, symName: __ZN4absl12lts_2024011618container_internal28SetHashtablezEnabledInternalEb, symObjAddr: 0x49C, symBinAddr: 0x35F4C, symSize: 0x10 }
  - { offset: 0x1C215E, size: 0x8, addend: 0x0, symName: __ZN4absl12lts_2024011618container_internal28GetHashtablezSampleParameterEv, symObjAddr: 0x4AC, symBinAddr: 0x35F5C, symSize: 0x10 }
  - { offset: 0x1C217F, size: 0x8, addend: 0x0, symName: __ZN4absl12lts_2024011618container_internal28GetHashtablezSampleParameterEv, symObjAddr: 0x4AC, symBinAddr: 0x35F5C, symSize: 0x10 }
  - { offset: 0x1C2199, size: 0x8, addend: 0x0, symName: __ZN4absl12lts_2024011618container_internal28GetHashtablezSampleParameterEv, symObjAddr: 0x4AC, symBinAddr: 0x35F5C, symSize: 0x10 }
  - { offset: 0x1C21DC, size: 0x8, addend: 0x0, symName: __ZN4absl12lts_2024011618container_internal28SetHashtablezSampleParameterEi, symObjAddr: 0x4BC, symBinAddr: 0x35F6C, symSize: 0x70 }
  - { offset: 0x1C22E2, size: 0x8, addend: 0x0, symName: __ZN4absl12lts_2024011618container_internal36SetHashtablezSampleParameterInternalEi, symObjAddr: 0x52C, symBinAddr: 0x35FDC, symSize: 0x54 }
  - { offset: 0x1C2372, size: 0x8, addend: 0x0, symName: __ZN4absl12lts_2024011618container_internal23GetHashtablezMaxSamplesEv, symObjAddr: 0x580, symBinAddr: 0x36030, symSize: 0x1C }
  - { offset: 0x1C2400, size: 0x8, addend: 0x0, symName: __ZN4absl12lts_2024011618container_internal23SetHashtablezMaxSamplesEm, symObjAddr: 0x59C, symBinAddr: 0x3604C, symSize: 0x2C }
  - { offset: 0x1C24A2, size: 0x8, addend: 0x0, symName: __ZN4absl12lts_2024011618container_internal31SetHashtablezMaxSamplesInternalEm, symObjAddr: 0x5C8, symBinAddr: 0x36078, symSize: 0x48 }
  - { offset: 0x1C48EC, size: 0x8, addend: 0x0, symName: __ZN4absl12lts_2024011618profiling_internal14SampleRecorderINS0_18container_internal14HashtablezInfoEEC2Ev, symObjAddr: 0x610, symBinAddr: 0x360C0, symSize: 0x74 }
  - { offset: 0x1C4F07, size: 0x8, addend: 0x0, symName: __ZN4absl12lts_2024011618container_internal14HashtablezInfoC2Ev, symObjAddr: 0x8C, symBinAddr: 0x35B3C, symSize: 0x1C }
  - { offset: 0x1C5052, size: 0x8, addend: 0x0, symName: __ZN4absl12lts_2024011618container_internal14HashtablezInfoC1Ev, symObjAddr: 0xA8, symBinAddr: 0x35B58, symSize: 0x1C }
  - { offset: 0x1C51B9, size: 0x8, addend: 0x0, symName: __ZN4absl12lts_2024011618container_internal14HashtablezInfoD2Ev, symObjAddr: 0xC4, symBinAddr: 0x35B74, symSize: 0x4 }
  - { offset: 0x1C51DB, size: 0x8, addend: 0x0, symName: __ZN4absl12lts_2024011618container_internal14HashtablezInfoD2Ev, symObjAddr: 0xC4, symBinAddr: 0x35B74, symSize: 0x4 }
  - { offset: 0x1C5211, size: 0x8, addend: 0x0, symName: __ZN4absl12lts_2024011618container_internal14HashtablezInfoD1Ev, symObjAddr: 0xC8, symBinAddr: 0x35B78, symSize: 0x4 }
  - { offset: 0x1C5233, size: 0x8, addend: 0x0, symName: __ZN4absl12lts_2024011618container_internal14HashtablezInfoD1Ev, symObjAddr: 0xC8, symBinAddr: 0x35B78, symSize: 0x4 }
  - { offset: 0x1C524E, size: 0x8, addend: 0x0, symName: __ZN4absl12lts_2024011618container_internal14HashtablezInfoD1Ev, symObjAddr: 0xC8, symBinAddr: 0x35B78, symSize: 0x4 }
  - { offset: 0x1C529F, size: 0x8, addend: 0x0, symName: __ZN4absl12lts_2024011618container_internal14HashtablezInfo18PrepareForSamplingExm, symObjAddr: 0xCC, symBinAddr: 0x35B7C, symSize: 0x80 }
  - { offset: 0x1C5707, size: 0x8, addend: 0x0, symName: __ZN4absl12lts_2024011618profiling_internal14SampleRecorderINS0_18container_internal14HashtablezInfoEE8RegisterIJRKxRmEEEPS4_DpOT_, symObjAddr: 0x1D0, symBinAddr: 0x35C80, symSize: 0x150 }
  - { offset: 0x1C5D19, size: 0x8, addend: 0x0, symName: __ZN4absl12lts_2024011618profiling_internal14SampleRecorderINS0_18container_internal14HashtablezInfoEE7PopDeadIJxmEEEPS4_DpT_, symObjAddr: 0x694, symBinAddr: 0x36134, symSize: 0xC0 }
  - { offset: 0x1C5ED9, size: 0x8, addend: 0x0, symName: __ZN4absl12lts_2024011618profiling_internal14SampleRecorderINS0_18container_internal14HashtablezInfoEE8PushDeadEPS4_, symObjAddr: 0x754, symBinAddr: 0x361F4, symSize: 0x7C }
  - { offset: 0x1C835D, size: 0x8, addend: 0x0, symName: _AbslContainerInternalSampleEverything_lts_20240116, symObjAddr: 0x0, symBinAddr: 0x36270, symSize: 0x8 }
  - { offset: 0x1C843F, size: 0x8, addend: 0x0, symName: _AbslContainerInternalSampleEverything_lts_20240116, symObjAddr: 0x0, symBinAddr: 0x36270, symSize: 0x8 }
  - { offset: 0x1CAEFA, size: 0x8, addend: 0x0, symName: __ZN4absl12lts_2024011611kuint128maxE, symObjAddr: 0x1DC0, symBinAddr: 0x6B670, symSize: 0x0 }
  - { offset: 0x1CAF09, size: 0x8, addend: 0x0, symName: __ZN4absl12lts_2024011612_GLOBAL__N_120MakeUint128FromFloatIfEENS0_7uint128ET_, symObjAddr: 0x28, symBinAddr: 0x362A0, symSize: 0x90 }
  - { offset: 0x1CAFC5, size: 0x8, addend: 0x0, symName: __ZN4absl12lts_202401167uint128C1Ef, symObjAddr: 0xB8, symBinAddr: 0x36330, symSize: 0x28 }
  - { offset: 0x1CAFD9, size: 0x8, addend: 0x0, symName: __ZN4absl12lts_2024011612_GLOBAL__N_120MakeUint128FromFloatIdEENS0_7uint128ET_, symObjAddr: 0x108, symBinAddr: 0x36380, symSize: 0xAC }
  - { offset: 0x1CB04E, size: 0x8, addend: 0x0, symName: __ZN4absl12lts_202401167uint128C1Ed, symObjAddr: 0x1B4, symBinAddr: 0x3642C, symSize: 0x28 }
  - { offset: 0x1CB062, size: 0x8, addend: 0x0, symName: __ZN4absl12lts_2024011612_GLOBAL__N_120MakeUint128FromFloatIeEENS0_7uint128ET_, symObjAddr: 0x204, symBinAddr: 0x3647C, symSize: 0xA0 }
  - { offset: 0x1CB11E, size: 0x8, addend: 0x0, symName: __ZN4absl12lts_202401167uint128C1Ee, symObjAddr: 0x2A4, symBinAddr: 0x3651C, symSize: 0x28 }
  - { offset: 0x1CB132, size: 0x8, addend: 0x0, symName: __ZN4absl12lts_2024011612_GLOBAL__N_124Uint128ToFormattedStringENS0_7uint128Ej, symObjAddr: 0x2D8, symBinAddr: 0x36550, symSize: 0x3D8 }
  - { offset: 0x1CBD01, size: 0x8, addend: 0x0, symName: __ZN4absl12lts_20240116lsERNSt3__113basic_ostreamIcNS1_11char_traitsIcEEEENS0_7uint128E, symObjAddr: 0x6B0, symBinAddr: 0x36928, symSize: 0x25C }
  - { offset: 0x1CC35A, size: 0x8, addend: 0x0, symName: __ZN4absl12lts_20240116lsERNSt3__113basic_ostreamIcNS1_11char_traitsIcEEEENS0_6int128E, symObjAddr: 0x9E8, symBinAddr: 0x36C60, symSize: 0x3E0 }
  - { offset: 0x1D13D9, size: 0x8, addend: 0x0, symName: __ZNSt3__114numeric_limitsIN4absl12lts_202401167uint128EE14is_specializedE, symObjAddr: 0x1DD0, symBinAddr: 0x6B680, symSize: 0x0 }
  - { offset: 0x1D13ED, size: 0x8, addend: 0x0, symName: __ZNSt3__114numeric_limitsIN4absl12lts_202401167uint128EE9is_signedE, symObjAddr: 0x1DD1, symBinAddr: 0x6B681, symSize: 0x0 }
  - { offset: 0x1D1401, size: 0x8, addend: 0x0, symName: __ZNSt3__114numeric_limitsIN4absl12lts_202401167uint128EE10is_integerE, symObjAddr: 0x1DD2, symBinAddr: 0x6B682, symSize: 0x0 }
  - { offset: 0x1D1415, size: 0x8, addend: 0x0, symName: __ZNSt3__114numeric_limitsIN4absl12lts_202401167uint128EE8is_exactE, symObjAddr: 0x1DD3, symBinAddr: 0x6B683, symSize: 0x0 }
  - { offset: 0x1D1429, size: 0x8, addend: 0x0, symName: __ZNSt3__114numeric_limitsIN4absl12lts_202401167uint128EE12has_infinityE, symObjAddr: 0x1DD4, symBinAddr: 0x6B684, symSize: 0x0 }
  - { offset: 0x1D143D, size: 0x8, addend: 0x0, symName: __ZNSt3__114numeric_limitsIN4absl12lts_202401167uint128EE13has_quiet_NaNE, symObjAddr: 0x1DD5, symBinAddr: 0x6B685, symSize: 0x0 }
  - { offset: 0x1D1451, size: 0x8, addend: 0x0, symName: __ZNSt3__114numeric_limitsIN4absl12lts_202401167uint128EE17has_signaling_NaNE, symObjAddr: 0x1DD6, symBinAddr: 0x6B686, symSize: 0x0 }
  - { offset: 0x1D1465, size: 0x8, addend: 0x0, symName: __ZNSt3__114numeric_limitsIN4absl12lts_202401167uint128EE10has_denormE, symObjAddr: 0x1DD8, symBinAddr: 0x6B688, symSize: 0x0 }
  - { offset: 0x1D1479, size: 0x8, addend: 0x0, symName: __ZNSt3__114numeric_limitsIN4absl12lts_202401167uint128EE15has_denorm_lossE, symObjAddr: 0x1DDC, symBinAddr: 0x6B68C, symSize: 0x0 }
  - { offset: 0x1D148D, size: 0x8, addend: 0x0, symName: __ZNSt3__114numeric_limitsIN4absl12lts_202401167uint128EE11round_styleE, symObjAddr: 0x1DE0, symBinAddr: 0x6B690, symSize: 0x0 }
  - { offset: 0x1D14A1, size: 0x8, addend: 0x0, symName: __ZNSt3__114numeric_limitsIN4absl12lts_202401167uint128EE9is_iec559E, symObjAddr: 0x1DE4, symBinAddr: 0x6B694, symSize: 0x0 }
  - { offset: 0x1D14B5, size: 0x8, addend: 0x0, symName: __ZNSt3__114numeric_limitsIN4absl12lts_202401167uint128EE10is_boundedE, symObjAddr: 0x1DE5, symBinAddr: 0x6B695, symSize: 0x0 }
  - { offset: 0x1D14C9, size: 0x8, addend: 0x0, symName: __ZNSt3__114numeric_limitsIN4absl12lts_202401167uint128EE9is_moduloE, symObjAddr: 0x1DE6, symBinAddr: 0x6B696, symSize: 0x0 }
  - { offset: 0x1D14DD, size: 0x8, addend: 0x0, symName: __ZNSt3__114numeric_limitsIN4absl12lts_202401167uint128EE6digitsE, symObjAddr: 0x1DE8, symBinAddr: 0x6B698, symSize: 0x0 }
  - { offset: 0x1D14F1, size: 0x8, addend: 0x0, symName: __ZNSt3__114numeric_limitsIN4absl12lts_202401167uint128EE8digits10E, symObjAddr: 0x1DEC, symBinAddr: 0x6B69C, symSize: 0x0 }
  - { offset: 0x1D1505, size: 0x8, addend: 0x0, symName: __ZNSt3__114numeric_limitsIN4absl12lts_202401167uint128EE12max_digits10E, symObjAddr: 0x1DF0, symBinAddr: 0x6B6A0, symSize: 0x0 }
  - { offset: 0x1D1519, size: 0x8, addend: 0x0, symName: __ZNSt3__114numeric_limitsIN4absl12lts_202401167uint128EE5radixE, symObjAddr: 0x1DF4, symBinAddr: 0x6B6A4, symSize: 0x0 }
  - { offset: 0x1D152D, size: 0x8, addend: 0x0, symName: __ZNSt3__114numeric_limitsIN4absl12lts_202401167uint128EE12min_exponentE, symObjAddr: 0x1DF8, symBinAddr: 0x6B6A8, symSize: 0x0 }
  - { offset: 0x1D1541, size: 0x8, addend: 0x0, symName: __ZNSt3__114numeric_limitsIN4absl12lts_202401167uint128EE14min_exponent10E, symObjAddr: 0x1DFC, symBinAddr: 0x6B6AC, symSize: 0x0 }
  - { offset: 0x1D1555, size: 0x8, addend: 0x0, symName: __ZNSt3__114numeric_limitsIN4absl12lts_202401167uint128EE12max_exponentE, symObjAddr: 0x1E00, symBinAddr: 0x6B6B0, symSize: 0x0 }
  - { offset: 0x1D1569, size: 0x8, addend: 0x0, symName: __ZNSt3__114numeric_limitsIN4absl12lts_202401167uint128EE14max_exponent10E, symObjAddr: 0x1E04, symBinAddr: 0x6B6B4, symSize: 0x0 }
  - { offset: 0x1D157D, size: 0x8, addend: 0x0, symName: __ZNSt3__114numeric_limitsIN4absl12lts_202401167uint128EE5trapsE, symObjAddr: 0x1E08, symBinAddr: 0x6B6B8, symSize: 0x0 }
  - { offset: 0x1D1591, size: 0x8, addend: 0x0, symName: __ZNSt3__114numeric_limitsIN4absl12lts_202401167uint128EE15tinyness_beforeE, symObjAddr: 0x1E09, symBinAddr: 0x6B6B9, symSize: 0x0 }
  - { offset: 0x1D15A5, size: 0x8, addend: 0x0, symName: __ZNSt3__114numeric_limitsIN4absl12lts_202401166int128EE14is_specializedE, symObjAddr: 0x1E0A, symBinAddr: 0x6B6BA, symSize: 0x0 }
  - { offset: 0x1D15B9, size: 0x8, addend: 0x0, symName: __ZNSt3__114numeric_limitsIN4absl12lts_202401166int128EE9is_signedE, symObjAddr: 0x1E0B, symBinAddr: 0x6B6BB, symSize: 0x0 }
  - { offset: 0x1D15CD, size: 0x8, addend: 0x0, symName: __ZNSt3__114numeric_limitsIN4absl12lts_202401166int128EE10is_integerE, symObjAddr: 0x1E0C, symBinAddr: 0x6B6BC, symSize: 0x0 }
  - { offset: 0x1D15E1, size: 0x8, addend: 0x0, symName: __ZNSt3__114numeric_limitsIN4absl12lts_202401166int128EE8is_exactE, symObjAddr: 0x1E0D, symBinAddr: 0x6B6BD, symSize: 0x0 }
  - { offset: 0x1D15F5, size: 0x8, addend: 0x0, symName: __ZNSt3__114numeric_limitsIN4absl12lts_202401166int128EE12has_infinityE, symObjAddr: 0x1E0E, symBinAddr: 0x6B6BE, symSize: 0x0 }
  - { offset: 0x1D1609, size: 0x8, addend: 0x0, symName: __ZNSt3__114numeric_limitsIN4absl12lts_202401166int128EE13has_quiet_NaNE, symObjAddr: 0x1E0F, symBinAddr: 0x6B6BF, symSize: 0x0 }
  - { offset: 0x1D161D, size: 0x8, addend: 0x0, symName: __ZNSt3__114numeric_limitsIN4absl12lts_202401166int128EE17has_signaling_NaNE, symObjAddr: 0x1E10, symBinAddr: 0x6B6C0, symSize: 0x0 }
  - { offset: 0x1D1631, size: 0x8, addend: 0x0, symName: __ZNSt3__114numeric_limitsIN4absl12lts_202401166int128EE10has_denormE, symObjAddr: 0x1E14, symBinAddr: 0x6B6C4, symSize: 0x0 }
  - { offset: 0x1D1645, size: 0x8, addend: 0x0, symName: __ZNSt3__114numeric_limitsIN4absl12lts_202401166int128EE15has_denorm_lossE, symObjAddr: 0x1E18, symBinAddr: 0x6B6C8, symSize: 0x0 }
  - { offset: 0x1D1659, size: 0x8, addend: 0x0, symName: __ZNSt3__114numeric_limitsIN4absl12lts_202401166int128EE11round_styleE, symObjAddr: 0x1E1C, symBinAddr: 0x6B6CC, symSize: 0x0 }
  - { offset: 0x1D166D, size: 0x8, addend: 0x0, symName: __ZNSt3__114numeric_limitsIN4absl12lts_202401166int128EE9is_iec559E, symObjAddr: 0x1E20, symBinAddr: 0x6B6D0, symSize: 0x0 }
  - { offset: 0x1D1681, size: 0x8, addend: 0x0, symName: __ZNSt3__114numeric_limitsIN4absl12lts_202401166int128EE10is_boundedE, symObjAddr: 0x1E21, symBinAddr: 0x6B6D1, symSize: 0x0 }
  - { offset: 0x1D1695, size: 0x8, addend: 0x0, symName: __ZNSt3__114numeric_limitsIN4absl12lts_202401166int128EE9is_moduloE, symObjAddr: 0x1E22, symBinAddr: 0x6B6D2, symSize: 0x0 }
  - { offset: 0x1D16A9, size: 0x8, addend: 0x0, symName: __ZNSt3__114numeric_limitsIN4absl12lts_202401166int128EE6digitsE, symObjAddr: 0x1E24, symBinAddr: 0x6B6D4, symSize: 0x0 }
  - { offset: 0x1D16BD, size: 0x8, addend: 0x0, symName: __ZNSt3__114numeric_limitsIN4absl12lts_202401166int128EE8digits10E, symObjAddr: 0x1E28, symBinAddr: 0x6B6D8, symSize: 0x0 }
  - { offset: 0x1D16D1, size: 0x8, addend: 0x0, symName: __ZNSt3__114numeric_limitsIN4absl12lts_202401166int128EE12max_digits10E, symObjAddr: 0x1E2C, symBinAddr: 0x6B6DC, symSize: 0x0 }
  - { offset: 0x1D16E5, size: 0x8, addend: 0x0, symName: __ZNSt3__114numeric_limitsIN4absl12lts_202401166int128EE5radixE, symObjAddr: 0x1E30, symBinAddr: 0x6B6E0, symSize: 0x0 }
  - { offset: 0x1D16F9, size: 0x8, addend: 0x0, symName: __ZNSt3__114numeric_limitsIN4absl12lts_202401166int128EE12min_exponentE, symObjAddr: 0x1E34, symBinAddr: 0x6B6E4, symSize: 0x0 }
  - { offset: 0x1D170D, size: 0x8, addend: 0x0, symName: __ZNSt3__114numeric_limitsIN4absl12lts_202401166int128EE14min_exponent10E, symObjAddr: 0x1E38, symBinAddr: 0x6B6E8, symSize: 0x0 }
  - { offset: 0x1D1721, size: 0x8, addend: 0x0, symName: __ZNSt3__114numeric_limitsIN4absl12lts_202401166int128EE12max_exponentE, symObjAddr: 0x1E3C, symBinAddr: 0x6B6EC, symSize: 0x0 }
  - { offset: 0x1D1735, size: 0x8, addend: 0x0, symName: __ZNSt3__114numeric_limitsIN4absl12lts_202401166int128EE14max_exponent10E, symObjAddr: 0x1E40, symBinAddr: 0x6B6F0, symSize: 0x0 }
  - { offset: 0x1D1749, size: 0x8, addend: 0x0, symName: __ZNSt3__114numeric_limitsIN4absl12lts_202401166int128EE5trapsE, symObjAddr: 0x1E44, symBinAddr: 0x6B6F4, symSize: 0x0 }
  - { offset: 0x1D175D, size: 0x8, addend: 0x0, symName: __ZNSt3__114numeric_limitsIN4absl12lts_202401166int128EE15tinyness_beforeE, symObjAddr: 0x1E45, symBinAddr: 0x6B6F5, symSize: 0x0 }
  - { offset: 0x1D197D, size: 0x8, addend: 0x0, symName: __ZN4absl12lts_202401167uint128C2Ef, symObjAddr: 0x0, symBinAddr: 0x36278, symSize: 0x28 }
  - { offset: 0x1D19D0, size: 0x8, addend: 0x0, symName: __ZN4absl12lts_2024011612_GLOBAL__N_120MakeUint128FromFloatIfEENS0_7uint128ET_.cold.1, symObjAddr: 0x1B94, symBinAddr: 0x630EC, symSize: 0x24 }
  - { offset: 0x1D19E8, size: 0x8, addend: 0x0, symName: __ZN4absl12lts_202401167uint128C1Ef, symObjAddr: 0xB8, symBinAddr: 0x36330, symSize: 0x28 }
  - { offset: 0x1D1A3B, size: 0x8, addend: 0x0, symName: __ZN4absl12lts_202401167uint128C2Ed, symObjAddr: 0xE0, symBinAddr: 0x36358, symSize: 0x28 }
  - { offset: 0x1D1A98, size: 0x8, addend: 0x0, symName: __ZN4absl12lts_202401167uint128C1Ed, symObjAddr: 0x1B4, symBinAddr: 0x3642C, symSize: 0x28 }
  - { offset: 0x1D1AEB, size: 0x8, addend: 0x0, symName: __ZN4absl12lts_202401167uint128C2Ee, symObjAddr: 0x1DC, symBinAddr: 0x36454, symSize: 0x28 }
  - { offset: 0x1D1B48, size: 0x8, addend: 0x0, symName: __ZN4absl12lts_202401167uint128C1Ee, symObjAddr: 0x2A4, symBinAddr: 0x3651C, symSize: 0x28 }
  - { offset: 0x1D1B9B, size: 0x8, addend: 0x0, symName: __ZNK4absl12lts_202401167uint1288ToStringEv, symObjAddr: 0x2CC, symBinAddr: 0x36544, symSize: 0xC }
  - { offset: 0x1D2294, size: 0x8, addend: 0x0, symName: __ZNK4absl12lts_202401166int1288ToStringEv, symObjAddr: 0x90C, symBinAddr: 0x36B84, symSize: 0xDC }
  - { offset: 0x1D328F, size: 0x8, addend: 0x0, symName: __ZN4absl12lts_2024011612_GLOBAL__N_120MakeUint128FromFloatIfEENS0_7uint128ET_.cold.1, symObjAddr: 0x1B94, symBinAddr: 0x630EC, symSize: 0x24 }
  - { offset: 0x1D3310, size: 0x8, addend: 0x0, symName: _OUTLINED_FUNCTION_0, symObjAddr: 0x1C00, symBinAddr: 0x37040, symSize: 0x8 }
  - { offset: 0x1D51CD, size: 0x8, addend: 0x0, symName: __ZN4absl12lts_2024011624synchronization_internal13KernelTimeout14SteadyClockNowEv, symObjAddr: 0x0, symBinAddr: 0x37048, symSize: 0x4 }
  - { offset: 0x1D51F0, size: 0x8, addend: 0x0, symName: __ZN4absl12lts_2024011624synchronization_internal13KernelTimeout10kNoTimeoutE, symObjAddr: 0x4A8, symBinAddr: 0x6B740, symSize: 0x0 }
  - { offset: 0x1D5204, size: 0x8, addend: 0x0, symName: __ZN4absl12lts_2024011624synchronization_internal13KernelTimeout9kMaxNanosE, symObjAddr: 0x4B0, symBinAddr: 0x6B748, symSize: 0x0 }
  - { offset: 0x1D622E, size: 0x8, addend: 0x0, symName: __ZN4absl12lts_2024011624synchronization_internal13KernelTimeout14SteadyClockNowEv, symObjAddr: 0x0, symBinAddr: 0x37048, symSize: 0x4 }
  - { offset: 0x1D6242, size: 0x8, addend: 0x0, symName: __ZN4absl12lts_2024011624synchronization_internal13KernelTimeoutC2ENS0_4TimeE, symObjAddr: 0x4, symBinAddr: 0x3704C, symSize: 0x64 }
  - { offset: 0x1D62F3, size: 0x8, addend: 0x0, symName: __ZN4absl12lts_2024011624synchronization_internal13KernelTimeoutC1ENS0_4TimeE, symObjAddr: 0x68, symBinAddr: 0x370B0, symSize: 0x8 }
  - { offset: 0x1D6355, size: 0x8, addend: 0x0, symName: __ZN4absl12lts_2024011624synchronization_internal13KernelTimeoutC2ENS0_8DurationE, symObjAddr: 0x70, symBinAddr: 0x370B8, symSize: 0x7C }
  - { offset: 0x1D6405, size: 0x8, addend: 0x0, symName: __ZN4absl12lts_2024011624synchronization_internal13KernelTimeoutC1ENS0_8DurationE, symObjAddr: 0xEC, symBinAddr: 0x37134, symSize: 0x8 }
  - { offset: 0x1D648F, size: 0x8, addend: 0x0, symName: __ZNK4absl12lts_2024011624synchronization_internal13KernelTimeout12MakeAbsNanosEv, symObjAddr: 0xF4, symBinAddr: 0x3713C, symSize: 0x64 }
  - { offset: 0x1D6535, size: 0x8, addend: 0x0, symName: __ZNK4absl12lts_2024011624synchronization_internal13KernelTimeout20InNanosecondsFromNowEv, symObjAddr: 0x158, symBinAddr: 0x371A0, symSize: 0x48 }
  - { offset: 0x1D65BE, size: 0x8, addend: 0x0, symName: __ZNK4absl12lts_2024011624synchronization_internal13KernelTimeout15MakeAbsTimespecEv, symObjAddr: 0x1A0, symBinAddr: 0x371E8, symSize: 0x5C }
  - { offset: 0x1D6695, size: 0x8, addend: 0x0, symName: __ZNK4absl12lts_2024011624synchronization_internal13KernelTimeout20MakeRelativeTimespecEv, symObjAddr: 0x1FC, symBinAddr: 0x37244, symSize: 0x5C }
  - { offset: 0x1D676C, size: 0x8, addend: 0x0, symName: __ZNK4absl12lts_2024011624synchronization_internal13KernelTimeout25MakeClockAbsoluteTimespecE9clockid_t, symObjAddr: 0x258, symBinAddr: 0x372A0, symSize: 0x128 }
  - { offset: 0x1D693E, size: 0x8, addend: 0x0, symName: __ZNK4absl12lts_2024011624synchronization_internal13KernelTimeout21InMillisecondsFromNowEv, symObjAddr: 0x380, symBinAddr: 0x373C8, symSize: 0x5C }
  - { offset: 0x1D6965, size: 0x8, addend: 0x0, symName: __ZNK4absl12lts_2024011624synchronization_internal13KernelTimeout25MakeClockAbsoluteTimespecE9clockid_t.cold.1, symObjAddr: 0x44C, symBinAddr: 0x63110, symSize: 0x5C }
  - { offset: 0x1D697D, size: 0x8, addend: 0x0, symName: __ZNK4absl12lts_2024011624synchronization_internal13KernelTimeout21InMillisecondsFromNowEv, symObjAddr: 0x380, symBinAddr: 0x373C8, symSize: 0x5C }
  - { offset: 0x1D69FA, size: 0x8, addend: 0x0, symName: __ZNK4absl12lts_2024011624synchronization_internal13KernelTimeout21InMillisecondsFromNowEv, symObjAddr: 0x380, symBinAddr: 0x373C8, symSize: 0x5C }
  - { offset: 0x1D6A4D, size: 0x8, addend: 0x0, symName: __ZNK4absl12lts_2024011624synchronization_internal13KernelTimeout17ToChronoTimePointEv, symObjAddr: 0x3DC, symBinAddr: 0x37424, symSize: 0x58 }
  - { offset: 0x1D6A87, size: 0x8, addend: 0x0, symName: __ZNK4absl12lts_2024011624synchronization_internal13KernelTimeout17ToChronoTimePointEv, symObjAddr: 0x3DC, symBinAddr: 0x37424, symSize: 0x58 }
  - { offset: 0x1D6B00, size: 0x8, addend: 0x0, symName: __ZNK4absl12lts_2024011624synchronization_internal13KernelTimeout16ToChronoDurationEv, symObjAddr: 0x434, symBinAddr: 0x3747C, symSize: 0x18 }
  - { offset: 0x1D6B2B, size: 0x8, addend: 0x0, symName: __ZNK4absl12lts_2024011624synchronization_internal13KernelTimeout16ToChronoDurationEv, symObjAddr: 0x434, symBinAddr: 0x3747C, symSize: 0x18 }
  - { offset: 0x1D8A28, size: 0x8, addend: 0x0, symName: __ZN4absl12lts_202401168LogEntry17kNoVerbosityLevelE, symObjAddr: 0x0, symBinAddr: 0x6B750, symSize: 0x0 }
  - { offset: 0x1D8D35, size: 0x8, addend: 0x0, symName: __ZN4absl12lts_2024011612log_internal33kAvoidEmptyLogEntryLibraryWarningE, symObjAddr: 0x8, symBinAddr: 0x6B758, symSize: 0x0 }
  - { offset: 0x1D900A, size: 0x8, addend: 0x0, symName: __ZN4absl12lts_202401168LogEntry15kNoVerboseLevelE, symObjAddr: 0x4, symBinAddr: 0x6B754, symSize: 0x0 }
  - { offset: 0x1DDC44, size: 0x8, addend: 0x0, symName: __ZN4absl12lts_2024011612log_internal16FormatLogMessageENS0_11LogSeverityENS0_13time_internal4cctz6detail10civil_timeINS3_10second_tagEEENS0_8DurationEiNS0_11string_viewEiNS1_12PrefixFormatESA_, symObjAddr: 0x0, symBinAddr: 0x37494, symSize: 0x104 }
  - { offset: 0x1DDF9C, size: 0x8, addend: 0x0, symName: __ZN4absl12lts_2024011612log_internal15FormatLogPrefixENS0_11LogSeverityENS0_4TimeEiNS0_11string_viewEiNS1_12PrefixFormatERNS0_4SpanIcEE, symObjAddr: 0x1F8, symBinAddr: 0x3768C, symSize: 0x408 }
  - { offset: 0x1DED6F, size: 0x8, addend: 0x0, symName: __ZN4absl12lts_202401169StrFormatIJciiiiixiNS0_11string_viewEiPKcS2_EEENSt3__112basic_stringIcNS5_11char_traitsIcEENS5_9allocatorIcEEEERKNS0_19str_format_internal18FormatSpecTemplateIJXspclsr19str_format_internalE14ArgumentToConvIT_EEEEEEDpRKSE_, symObjAddr: 0x104, symBinAddr: 0x37598, symSize: 0xF4 }
  - { offset: 0x1DF9C4, size: 0x8, addend: 0x0, symName: __ZN4absl12lts_202401168SNPrintFIJciiiEEEiPcmRKNS0_19str_format_internal18FormatSpecTemplateIJXspclsr19str_format_internalE14ArgumentToConvIT_EEEEEEDpRKS5_, symObjAddr: 0x648, symBinAddr: 0x37ADC, symSize: 0x8C }
  - { offset: 0x1E2D11, size: 0x8, addend: 0x0, symName: __ZN4absl12lts_202401164SpanIcE13remove_prefixEm, symObjAddr: 0x6D4, symBinAddr: 0x37B68, symSize: 0x50 }
  - { offset: 0x1E2E3A, size: 0x8, addend: 0x0, symName: __ZN4absl12lts_202401164SpanIcE13remove_suffixEm, symObjAddr: 0x600, symBinAddr: 0x37A94, symSize: 0x48 }
  - { offset: 0x1E59A0, size: 0x8, addend: 0x0, symName: __ZN4absl12lts_2024011612log_internal12_GLOBAL__N_18BasenameENS0_11string_viewE, symObjAddr: 0xB78, symBinAddr: 0x386E8, symSize: 0x5C }
  - { offset: 0x1E5A43, size: 0x8, addend: 0x0, symName: __ZN4absl12lts_2024011612log_internal10LogMessage14LogMessageDataC1EPKciNS0_11LogSeverityENS0_4TimeE, symObjAddr: 0xBD4, symBinAddr: 0x38744, symSize: 0x8 }
  - { offset: 0x1E5A80, size: 0x8, addend: 0x0, symName: __ZN4absl12lts_2024011612log_internal12_GLOBAL__N_113WriteToStringEPKcPv, symObjAddr: 0x199C, symBinAddr: 0x39350, symSize: 0x10 }
  - { offset: 0x1E5AB9, size: 0x8, addend: 0x0, symName: __ZN4absl12lts_2024011612log_internal12_GLOBAL__N_113WriteToStreamEPKcPv, symObjAddr: 0x19D8, symBinAddr: 0x3938C, symSize: 0x30 }
  - { offset: 0x1EC661, size: 0x8, addend: 0x0, symName: __ZN4absl12lts_2024011612log_internal10LogMessage5FlushEv, symObjAddr: 0x1024, symBinAddr: 0x38A3C, symSize: 0x170 }
  - { offset: 0x1EC689, size: 0x8, addend: 0x0, symName: __ZZN4absl12lts_2024011612log_internal10LogMessage5FlushEvE10seen_fatal, symObjAddr: 0x4B62D, symBinAddr: 0x84401, symSize: 0x0 }
  - { offset: 0x1ECCA6, size: 0x8, addend: 0x0, symName: _AbslInternalOnFatalLogMessage_lts_20240116, symObjAddr: 0x0, symBinAddr: 0x37BB8, symSize: 0x4 }
  - { offset: 0x1ECD62, size: 0x8, addend: 0x0, symName: __ZN4absl12lts_2024011612log_internal10LogMessagelsIcLi0EEERS2_RKT_, symObjAddr: 0x4, symBinAddr: 0x37BBC, symSize: 0x70 }
  - { offset: 0x1ECEBB, size: 0x8, addend: 0x0, symName: __ZN4absl12lts_2024011612log_internal10LogMessage11OstreamViewC2ERNS2_14LogMessageDataE, symObjAddr: 0x16D4, symBinAddr: 0x390D8, symSize: 0xF0 }
  - { offset: 0x1ED16E, size: 0x8, addend: 0x0, symName: __ZN4absl12lts_2024011612log_internal10LogMessage11OstreamViewD2Ev, symObjAddr: 0x17C4, symBinAddr: 0x391C8, symSize: 0xB4 }
  - { offset: 0x1ED2B3, size: 0x8, addend: 0x0, symName: __ZN4absl12lts_2024011612log_internal10LogMessage11OstreamViewC1ERNS2_14LogMessageDataE, symObjAddr: 0x74, symBinAddr: 0x37C2C, symSize: 0x4 }
  - { offset: 0x1ED2DC, size: 0x8, addend: 0x0, symName: __ZN4absl12lts_2024011612log_internal10LogMessage11OstreamViewC1ERNS2_14LogMessageDataE, symObjAddr: 0x74, symBinAddr: 0x37C2C, symSize: 0x4 }
  - { offset: 0x1ED2F6, size: 0x8, addend: 0x0, symName: __ZN4absl12lts_2024011612log_internal10LogMessage11OstreamView6streamEv, symObjAddr: 0x78, symBinAddr: 0x37C30, symSize: 0xC }
  - { offset: 0x1ED318, size: 0x8, addend: 0x0, symName: __ZN4absl12lts_2024011612log_internal10LogMessage11OstreamViewD1Ev, symObjAddr: 0x84, symBinAddr: 0x37C3C, symSize: 0x4 }
  - { offset: 0x1ED33A, size: 0x8, addend: 0x0, symName: __ZN4absl12lts_2024011612log_internal10LogMessage11OstreamViewD1Ev, symObjAddr: 0x84, symBinAddr: 0x37C3C, symSize: 0x4 }
  - { offset: 0x1ED358, size: 0x8, addend: 0x0, symName: __ZN4absl12lts_2024011612log_internal10LogMessagelsIaLi0EEERS2_RKT_, symObjAddr: 0x88, symBinAddr: 0x37C40, symSize: 0x70 }
  - { offset: 0x1ED4BC, size: 0x8, addend: 0x0, symName: __ZN4absl12lts_2024011612log_internal10LogMessagelsIhLi0EEERS2_RKT_, symObjAddr: 0xF8, symBinAddr: 0x37CB0, symSize: 0x70 }
  - { offset: 0x1ED620, size: 0x8, addend: 0x0, symName: __ZN4absl12lts_2024011612log_internal10LogMessagelsIsLi0EEERS2_RKT_, symObjAddr: 0x168, symBinAddr: 0x37D20, symSize: 0x64 }
  - { offset: 0x1ED755, size: 0x8, addend: 0x0, symName: __ZN4absl12lts_2024011612log_internal10LogMessagelsItLi0EEERS2_RKT_, symObjAddr: 0x1CC, symBinAddr: 0x37D84, symSize: 0x64 }
  - { offset: 0x1ED885, size: 0x8, addend: 0x0, symName: __ZN4absl12lts_2024011612log_internal10LogMessagelsIiLi0EEERS2_RKT_, symObjAddr: 0x230, symBinAddr: 0x37DE8, symSize: 0x64 }
  - { offset: 0x1ED9BA, size: 0x8, addend: 0x0, symName: __ZN4absl12lts_2024011612log_internal10LogMessagelsIjLi0EEERS2_RKT_, symObjAddr: 0x294, symBinAddr: 0x37E4C, symSize: 0x64 }
  - { offset: 0x1EDAEF, size: 0x8, addend: 0x0, symName: __ZN4absl12lts_2024011612log_internal10LogMessagelsIlLi0EEERS2_RKT_, symObjAddr: 0x2F8, symBinAddr: 0x37EB0, symSize: 0x64 }
  - { offset: 0x1EDC19, size: 0x8, addend: 0x0, symName: __ZN4absl12lts_2024011612log_internal10LogMessagelsImLi0EEERS2_RKT_, symObjAddr: 0x35C, symBinAddr: 0x37F14, symSize: 0x64 }
  - { offset: 0x1EDD4E, size: 0x8, addend: 0x0, symName: __ZN4absl12lts_2024011612log_internal10LogMessagelsIxLi0EEERS2_RKT_, symObjAddr: 0x3C0, symBinAddr: 0x37F78, symSize: 0x64 }
  - { offset: 0x1EDE83, size: 0x8, addend: 0x0, symName: __ZN4absl12lts_2024011612log_internal10LogMessagelsIyLi0EEERS2_RKT_, symObjAddr: 0x424, symBinAddr: 0x37FDC, symSize: 0x64 }
  - { offset: 0x1EDFB8, size: 0x8, addend: 0x0, symName: __ZN4absl12lts_2024011612log_internal10LogMessagelsIPvLi0EEERS2_RKT_, symObjAddr: 0x488, symBinAddr: 0x38040, symSize: 0x64 }
  - { offset: 0x1EE0ED, size: 0x8, addend: 0x0, symName: __ZN4absl12lts_2024011612log_internal10LogMessagelsIPKvLi0EEERS2_RKT_, symObjAddr: 0x4EC, symBinAddr: 0x380A4, symSize: 0x64 }
  - { offset: 0x1EE222, size: 0x8, addend: 0x0, symName: __ZN4absl12lts_2024011612log_internal10LogMessagelsIfLi0EEERS2_RKT_, symObjAddr: 0x550, symBinAddr: 0x38108, symSize: 0x64 }
  - { offset: 0x1EE357, size: 0x8, addend: 0x0, symName: __ZN4absl12lts_2024011612log_internal10LogMessagelsIdLi0EEERS2_RKT_, symObjAddr: 0x5B4, symBinAddr: 0x3816C, symSize: 0x64 }
  - { offset: 0x1EE487, size: 0x8, addend: 0x0, symName: __ZN4absl12lts_2024011612log_internal10LogMessagelsIbLi0EEERS2_RKT_, symObjAddr: 0x618, symBinAddr: 0x381D0, symSize: 0x64 }
  - { offset: 0x1EE5E7, size: 0x8, addend: 0x0, symName: __ZN4absl12lts_2024011612log_internal10LogMessage19CopyToEncodedBufferILNS2_10StringTypeE0EEEvNS0_11string_viewE, symObjAddr: 0x67C, symBinAddr: 0x38234, symSize: 0xAC }
  - { offset: 0x1EE7EE, size: 0x8, addend: 0x0, symName: __ZN4absl12lts_2024011612log_internal10LogMessage19CopyToEncodedBufferILNS2_10StringTypeE1EEEvNS0_11string_viewE, symObjAddr: 0x770, symBinAddr: 0x382E0, symSize: 0xAC }
  - { offset: 0x1EE94F, size: 0x8, addend: 0x0, symName: __ZN4absl12lts_2024011612log_internal10LogMessage19CopyToEncodedBufferILNS2_10StringTypeE0EEEvcm, symObjAddr: 0x81C, symBinAddr: 0x3838C, symSize: 0xEC }
  - { offset: 0x1EEB87, size: 0x8, addend: 0x0, symName: __ZN4absl12lts_2024011612log_internal10LogMessage19CopyToEncodedBufferILNS2_10StringTypeE1EEEvcm, symObjAddr: 0x908, symBinAddr: 0x38478, symSize: 0xEC }
  - { offset: 0x1EF42A, size: 0x8, addend: 0x0, symName: __ZN4absl12lts_2024011612log_internal10LogMessage14LogMessageDataC2EPKciNS0_11LogSeverityENS0_4TimeE, symObjAddr: 0x9F4, symBinAddr: 0x38564, symSize: 0x184 }
  - { offset: 0x1EFCD8, size: 0x8, addend: 0x0, symName: __ZN4absl12lts_2024011612log_internal10LogMessage14LogMessageDataC1EPKciNS0_11LogSeverityENS0_4TimeE, symObjAddr: 0xBD4, symBinAddr: 0x38744, symSize: 0x8 }
  - { offset: 0x1F001A, size: 0x8, addend: 0x0, symName: __ZN4absl12lts_2024011612log_internal10LogMessage14LogMessageData25FinalizeEncodingAndFormatEv, symObjAddr: 0xBDC, symBinAddr: 0x3874C, symSize: 0x1FC }
  - { offset: 0x1F065B, size: 0x8, addend: 0x0, symName: __ZN4absl12lts_2024011612log_internal10LogMessageC2EPKciNS0_11LogSeverityE, symObjAddr: 0xDD8, symBinAddr: 0x6316C, symSize: 0xD8 }
  - { offset: 0x1F08E5, size: 0x8, addend: 0x0, symName: __ZN4absl12lts_2024011612log_internal10LogMessageC2EPKciNS0_11LogSeverityE, symObjAddr: 0xDD8, symBinAddr: 0x6316C, symSize: 0xD8 }
  - { offset: 0x1F0AF9, size: 0x8, addend: 0x0, symName: __ZN4absl12lts_2024011612log_internal10LogMessage20LogBacktraceIfNeededEv, symObjAddr: 0xEB0, symBinAddr: 0x38948, symSize: 0xC4 }
  - { offset: 0x1F0D30, size: 0x8, addend: 0x0, symName: __ZNKSt3__114default_deleteIN4absl12lts_2024011612log_internal10LogMessage14LogMessageDataEEclB8ne200100EPS5_, symObjAddr: 0x1F68, symBinAddr: 0x39404, symSize: 0x50 }
  - { offset: 0x1F1052, size: 0x8, addend: 0x0, symName: __ZN4absl12lts_2024011613base_internal10ErrnoSaverD1Ev, symObjAddr: 0xF74, symBinAddr: 0x38A0C, symSize: 0x30 }
  - { offset: 0x1F10B6, size: 0x8, addend: 0x0, symName: __ZN4absl12lts_2024011612log_internal10LogMessageC1EPKciNS0_11LogSeverityE, symObjAddr: 0xFA4, symBinAddr: 0x63244, symSize: 0x4 }
  - { offset: 0x1F10ED, size: 0x8, addend: 0x0, symName: __ZN4absl12lts_2024011612log_internal10LogMessageC1EPKciNS0_11LogSeverityE, symObjAddr: 0xFA4, symBinAddr: 0x63244, symSize: 0x4 }
  - { offset: 0x1F1115, size: 0x8, addend: 0x0, symName: __ZN4absl12lts_2024011612log_internal10LogMessageC2EPKciNS2_7InfoTagE, symObjAddr: 0xFA8, symBinAddr: 0x63248, symSize: 0x8 }
  - { offset: 0x1F11CC, size: 0x8, addend: 0x0, symName: __ZN4absl12lts_2024011612log_internal10LogMessageC1EPKciNS2_7InfoTagE, symObjAddr: 0xFB0, symBinAddr: 0x63250, symSize: 0x8 }
  - { offset: 0x1F121B, size: 0x8, addend: 0x0, symName: __ZN4absl12lts_2024011612log_internal10LogMessageC1EPKciNS2_7InfoTagE, symObjAddr: 0xFB0, symBinAddr: 0x63250, symSize: 0x8 }
  - { offset: 0x1F1271, size: 0x8, addend: 0x0, symName: __ZN4absl12lts_2024011612log_internal10LogMessageC2EPKciNS2_10WarningTagE, symObjAddr: 0xFB8, symBinAddr: 0x63258, symSize: 0x8 }
  - { offset: 0x1F12E6, size: 0x8, addend: 0x0, symName: __ZN4absl12lts_2024011612log_internal10LogMessageC1EPKciNS2_10WarningTagE, symObjAddr: 0xFC0, symBinAddr: 0x63260, symSize: 0x8 }
  - { offset: 0x1F1335, size: 0x8, addend: 0x0, symName: __ZN4absl12lts_2024011612log_internal10LogMessageC1EPKciNS2_10WarningTagE, symObjAddr: 0xFC0, symBinAddr: 0x63260, symSize: 0x8 }
  - { offset: 0x1F138B, size: 0x8, addend: 0x0, symName: __ZN4absl12lts_2024011612log_internal10LogMessageC2EPKciNS2_8ErrorTagE, symObjAddr: 0xFC8, symBinAddr: 0x63268, symSize: 0x8 }
  - { offset: 0x1F1400, size: 0x8, addend: 0x0, symName: __ZN4absl12lts_2024011612log_internal10LogMessageC1EPKciNS2_8ErrorTagE, symObjAddr: 0xFD0, symBinAddr: 0x63270, symSize: 0x8 }
  - { offset: 0x1F144F, size: 0x8, addend: 0x0, symName: __ZN4absl12lts_2024011612log_internal10LogMessageC1EPKciNS2_8ErrorTagE, symObjAddr: 0xFD0, symBinAddr: 0x63270, symSize: 0x8 }
  - { offset: 0x1F14BF, size: 0x8, addend: 0x0, symName: __ZN4absl12lts_2024011612log_internal10LogMessageD2Ev, symObjAddr: 0xFD8, symBinAddr: 0x63278, symSize: 0x4C }
  - { offset: 0x1F1717, size: 0x8, addend: 0x0, symName: __ZN4absl12lts_2024011612log_internal10LogMessage9SendToLogEv, symObjAddr: 0x1644, symBinAddr: 0x39048, symSize: 0x80 }
  - { offset: 0x1F1933, size: 0x8, addend: 0x0, symName: __ZN4absl12lts_2024011612log_internal10LogMessage14SetFailQuietlyEv, symObjAddr: 0x16C4, symBinAddr: 0x390C8, symSize: 0x10 }
  - { offset: 0x1F1979, size: 0x8, addend: 0x0, symName: __ZN4absl12lts_2024011612log_internal10LogMessageD1Ev, symObjAddr: 0x11A4, symBinAddr: 0x632C4, symSize: 0x4 }
  - { offset: 0x1F19A6, size: 0x8, addend: 0x0, symName: __ZN4absl12lts_2024011612log_internal10LogMessageD1Ev, symObjAddr: 0x11A4, symBinAddr: 0x632C4, symSize: 0x4 }
  - { offset: 0x1F19B9, size: 0x8, addend: 0x0, symName: __ZN4absl12lts_2024011612log_internal10LogMessage10AtLocationENS0_11string_viewEi, symObjAddr: 0x11A8, symBinAddr: 0x38BAC, symSize: 0x50 }
  - { offset: 0x1F1A8D, size: 0x8, addend: 0x0, symName: __ZN4absl12lts_2024011612log_internal10LogMessage8NoPrefixEv, symObjAddr: 0x11F8, symBinAddr: 0x38BFC, symSize: 0xC }
  - { offset: 0x1F1AB7, size: 0x8, addend: 0x0, symName: __ZN4absl12lts_2024011612log_internal10LogMessage8NoPrefixEv, symObjAddr: 0x11F8, symBinAddr: 0x38BFC, symSize: 0xC }
  - { offset: 0x1F1AD4, size: 0x8, addend: 0x0, symName: __ZN4absl12lts_2024011612log_internal10LogMessage13WithVerbosityEi, symObjAddr: 0x1204, symBinAddr: 0x38C08, symSize: 0x18 }
  - { offset: 0x1F1B1D, size: 0x8, addend: 0x0, symName: __ZN4absl12lts_2024011612log_internal10LogMessage13WithTimestampENS0_4TimeE, symObjAddr: 0x121C, symBinAddr: 0x38C20, symSize: 0x10 }
  - { offset: 0x1F1B57, size: 0x8, addend: 0x0, symName: __ZN4absl12lts_2024011612log_internal10LogMessage13WithTimestampENS0_4TimeE, symObjAddr: 0x121C, symBinAddr: 0x38C20, symSize: 0x10 }
  - { offset: 0x1F1B74, size: 0x8, addend: 0x0, symName: __ZN4absl12lts_2024011612log_internal10LogMessage12WithThreadIDEi, symObjAddr: 0x122C, symBinAddr: 0x38C30, symSize: 0xC }
  - { offset: 0x1F1BAC, size: 0x8, addend: 0x0, symName: __ZN4absl12lts_2024011612log_internal10LogMessage12WithThreadIDEi, symObjAddr: 0x122C, symBinAddr: 0x38C30, symSize: 0xC }
  - { offset: 0x1F1BC9, size: 0x8, addend: 0x0, symName: __ZN4absl12lts_2024011612log_internal10LogMessage16WithMetadataFromERKNS0_8LogEntryE, symObjAddr: 0x1238, symBinAddr: 0x38C3C, symSize: 0x54 }
  - { offset: 0x1F1C01, size: 0x8, addend: 0x0, symName: __ZN4absl12lts_2024011612log_internal10LogMessage16WithMetadataFromERKNS0_8LogEntryE, symObjAddr: 0x1238, symBinAddr: 0x38C3C, symSize: 0x54 }
  - { offset: 0x1F1C7B, size: 0x8, addend: 0x0, symName: __ZN4absl12lts_2024011612log_internal10LogMessage10WithPerrorEv, symObjAddr: 0x128C, symBinAddr: 0x38C90, symSize: 0x10 }
  - { offset: 0x1F1CA5, size: 0x8, addend: 0x0, symName: __ZN4absl12lts_2024011612log_internal10LogMessage10WithPerrorEv, symObjAddr: 0x128C, symBinAddr: 0x38C90, symSize: 0x10 }
  - { offset: 0x1F1E54, size: 0x8, addend: 0x0, symName: __ZN4absl12lts_2024011612log_internal10LogMessage10ToSinkAlsoEPNS0_7LogSinkE, symObjAddr: 0x129C, symBinAddr: 0x38CA0, symSize: 0x118 }
  - { offset: 0x1F243B, size: 0x8, addend: 0x0, symName: __ZN4absl12lts_2024011623inlined_vector_internal7StorageIPNS0_7LogSinkELm16ENSt3__19allocatorIS4_EEE11EmplaceBackIJRKS4_EEERS4_DpOT_, symObjAddr: 0x205C, symBinAddr: 0x39454, symSize: 0x44 }
  - { offset: 0x1F2492, size: 0x8, addend: 0x0, symName: __ZN4absl12lts_2024011623inlined_vector_internal7StorageIPNS0_7LogSinkELm16ENSt3__19allocatorIS4_EEE11EmplaceBackIJRKS4_EEERS4_DpOT_, symObjAddr: 0x205C, symBinAddr: 0x39454, symSize: 0x44 }
  - { offset: 0x1F24AE, size: 0x8, addend: 0x0, symName: __ZN4absl12lts_2024011623inlined_vector_internal7StorageIPNS0_7LogSinkELm16ENSt3__19allocatorIS4_EEE11EmplaceBackIJRKS4_EEERS4_DpOT_, symObjAddr: 0x205C, symBinAddr: 0x39454, symSize: 0x44 }
  - { offset: 0x1F26F9, size: 0x8, addend: 0x0, symName: __ZN4absl12lts_2024011623inlined_vector_internal7StorageIPNS0_7LogSinkELm16ENSt3__19allocatorIS4_EEE11EmplaceBackIJRKS4_EEERS4_DpOT_, symObjAddr: 0x205C, symBinAddr: 0x39454, symSize: 0x44 }
  - { offset: 0x1F2742, size: 0x8, addend: 0x0, symName: __ZN4absl12lts_2024011612log_internal10LogMessage10ToSinkOnlyEPNS0_7LogSinkE, symObjAddr: 0x13B4, symBinAddr: 0x38DB8, symSize: 0x140 }
  - { offset: 0x1F2E8D, size: 0x8, addend: 0x0, symName: __ZN4absl12lts_2024011612log_internal10LogMessage21FailWithoutStackTraceEv, symObjAddr: 0x14F4, symBinAddr: 0x38EF8, symSize: 0x14 }
  - { offset: 0x1F2EBA, size: 0x8, addend: 0x0, symName: __ZN4absl12lts_2024011612log_internal10LogMessage11FailQuietlyEv, symObjAddr: 0x1508, symBinAddr: 0x38F0C, symSize: 0x10 }
  - { offset: 0x1F2ECD, size: 0x8, addend: 0x0, symName: __ZN4absl12lts_2024011612log_internal10LogMessage11FailQuietlyEv, symObjAddr: 0x1508, symBinAddr: 0x38F0C, symSize: 0x10 }
  - { offset: 0x1F2EE7, size: 0x8, addend: 0x0, symName: __ZN4absl12lts_2024011612log_internal10LogMessagelsERKNSt3__112basic_stringIcNS3_11char_traitsIcEENS3_9allocatorIcEEEE, symObjAddr: 0x1518, symBinAddr: 0x38F1C, symSize: 0x3C }
  - { offset: 0x1F2F07, size: 0x8, addend: 0x0, symName: __ZN4absl12lts_2024011612log_internal10LogMessagelsERKNSt3__112basic_stringIcNS3_11char_traitsIcEENS3_9allocatorIcEEEE, symObjAddr: 0x1518, symBinAddr: 0x38F1C, symSize: 0x3C }
  - { offset: 0x1F2FC0, size: 0x8, addend: 0x0, symName: __ZN4absl12lts_2024011612log_internal10LogMessagelsENS0_11string_viewE, symObjAddr: 0x1554, symBinAddr: 0x38F58, symSize: 0x24 }
  - { offset: 0x1F303A, size: 0x8, addend: 0x0, symName: __ZN4absl12lts_2024011612log_internal10LogMessagelsEPFRNSt3__113basic_ostreamIcNS3_11char_traitsIcEEEES8_E, symObjAddr: 0x1578, symBinAddr: 0x38F7C, symSize: 0x60 }
  - { offset: 0x1F31AB, size: 0x8, addend: 0x0, symName: __ZN4absl12lts_2024011612log_internal10LogMessagelsEPFRNSt3__18ios_baseES5_E, symObjAddr: 0x15D8, symBinAddr: 0x38FDC, symSize: 0x6C }
  - { offset: 0x1F3391, size: 0x8, addend: 0x0, symName: __ZN4absl12lts_2024011612log_internal10LogMessage12PrepareToDieEv, symObjAddr: 0x18F8, symBinAddr: 0x392AC, symSize: 0xA4 }
  - { offset: 0x1F356F, size: 0x8, addend: 0x0, symName: __ZN4absl12lts_2024011612log_internal10LogMessage3DieEv, symObjAddr: 0x19AC, symBinAddr: 0x39360, symSize: 0x2C }
  - { offset: 0x1F35E9, size: 0x8, addend: 0x0, symName: __ZN4absl12lts_2024011612log_internal12_GLOBAL__N_113WriteToStreamEPKcPv, symObjAddr: 0x19D8, symBinAddr: 0x3938C, symSize: 0x30 }
  - { offset: 0x1F35F4, size: 0x8, addend: 0x0, symName: __ZN4absl12lts_2024011612log_internal10LogMessage14SetFailQuietlyEv, symObjAddr: 0x16C4, symBinAddr: 0x390C8, symSize: 0x10 }
  - { offset: 0x1F361E, size: 0x8, addend: 0x0, symName: __ZN4absl12lts_2024011612log_internal10LogMessage14SetFailQuietlyEv, symObjAddr: 0x16C4, symBinAddr: 0x390C8, symSize: 0x10 }
  - { offset: 0x1F3788, size: 0x8, addend: 0x0, symName: __ZN4absl12lts_2024011612log_internal10LogMessage11OstreamViewD0Ev, symObjAddr: 0x18C8, symBinAddr: 0x3927C, symSize: 0x14 }
  - { offset: 0x1F37E6, size: 0x8, addend: 0x0, symName: __ZNK4absl12lts_2024011612log_internal10LogMessage7IsFatalEv, symObjAddr: 0x18DC, symBinAddr: 0x39290, symSize: 0x1C }
  - { offset: 0x1F380A, size: 0x8, addend: 0x0, symName: __ZNK4absl12lts_2024011612log_internal10LogMessage7IsFatalEv, symObjAddr: 0x18DC, symBinAddr: 0x39290, symSize: 0x1C }
  - { offset: 0x1F388B, size: 0x8, addend: 0x0, symName: __ZN4absl12lts_2024011612log_internal15LogMessageFatalC2EPKci, symObjAddr: 0x1A08, symBinAddr: 0x632C8, symSize: 0x8 }
  - { offset: 0x1F391B, size: 0x8, addend: 0x0, symName: __ZN4absl12lts_2024011612log_internal15LogMessageFatalC1EPKci, symObjAddr: 0x1A10, symBinAddr: 0x632D0, symSize: 0x8 }
  - { offset: 0x1F3965, size: 0x8, addend: 0x0, symName: __ZN4absl12lts_2024011612log_internal15LogMessageFatalC1EPKci, symObjAddr: 0x1A10, symBinAddr: 0x632D0, symSize: 0x8 }
  - { offset: 0x1F39E8, size: 0x8, addend: 0x0, symName: __ZN4absl12lts_2024011612log_internal15LogMessageFatalC2EPKciNS0_11string_viewE, symObjAddr: 0x1A18, symBinAddr: 0x632D8, symSize: 0x4C }
  - { offset: 0x1F3AE2, size: 0x8, addend: 0x0, symName: _OUTLINED_FUNCTION_0, symObjAddr: 0x2278, symBinAddr: 0x39570, symSize: 0x14 }
  - { offset: 0x1F3AFA, size: 0x8, addend: 0x0, symName: _OUTLINED_FUNCTION_2, symObjAddr: 0x2294, symBinAddr: 0x39584, symSize: 0x10 }
  - { offset: 0x1F3B12, size: 0x8, addend: 0x0, symName: _OUTLINED_FUNCTION_5, symObjAddr: 0x22C0, symBinAddr: 0x395A4, symSize: 0xC }
  - { offset: 0x1F3B34, size: 0x8, addend: 0x0, symName: _OUTLINED_FUNCTION_6, symObjAddr: 0x22CC, symBinAddr: 0x395B0, symSize: 0xC }
  - { offset: 0x1F3B4C, size: 0x8, addend: 0x0, symName: __ZN4absl12lts_2024011612log_internal15LogMessageFatalC1EPKciNS0_11string_viewE, symObjAddr: 0x1A64, symBinAddr: 0x63324, symSize: 0x4 }
  - { offset: 0x1F3BA2, size: 0x8, addend: 0x0, symName: __ZN4absl12lts_2024011612log_internal15LogMessageFatalC1EPKciNS0_11string_viewE, symObjAddr: 0x1A64, symBinAddr: 0x63324, symSize: 0x4 }
  - { offset: 0x1F3BD1, size: 0x8, addend: 0x0, symName: __ZN4absl12lts_2024011612log_internal15LogMessageFatalD2Ev, symObjAddr: 0x1A68, symBinAddr: 0x393BC, symSize: 0x18 }
  - { offset: 0x1F3C21, size: 0x8, addend: 0x0, symName: __ZN4absl12lts_2024011612log_internal15LogMessageFatalD1Ev, symObjAddr: 0x1A80, symBinAddr: 0x393D4, symSize: 0xC }
  - { offset: 0x1F3C4F, size: 0x8, addend: 0x0, symName: __ZN4absl12lts_2024011612log_internal22LogMessageQuietlyFatalC2EPKci, symObjAddr: 0x1A8C, symBinAddr: 0x63328, symSize: 0x1C }
  - { offset: 0x1F3C67, size: 0x8, addend: 0x0, symName: __ZN4absl12lts_2024011612log_internal22LogMessageQuietlyFatalC2EPKci, symObjAddr: 0x1A8C, symBinAddr: 0x63328, symSize: 0x1C }
  - { offset: 0x1F3CCE, size: 0x8, addend: 0x0, symName: _OUTLINED_FUNCTION_3, symObjAddr: 0x22A4, symBinAddr: 0x39594, symSize: 0x10 }
  - { offset: 0x1F3D20, size: 0x8, addend: 0x0, symName: __ZN4absl12lts_2024011612log_internal22LogMessageQuietlyFatalC1EPKci, symObjAddr: 0x1AA8, symBinAddr: 0x63344, symSize: 0x1C }
  - { offset: 0x1F3DD0, size: 0x8, addend: 0x0, symName: __ZN4absl12lts_2024011612log_internal22LogMessageQuietlyFatalC2EPKciNS0_11string_viewE, symObjAddr: 0x1AC4, symBinAddr: 0x63360, symSize: 0x50 }
  - { offset: 0x1F3ED7, size: 0x8, addend: 0x0, symName: __ZN4absl12lts_2024011612log_internal22LogMessageQuietlyFatalC1EPKciNS0_11string_viewE, symObjAddr: 0x1B14, symBinAddr: 0x633B0, symSize: 0x4 }
  - { offset: 0x1F3F2D, size: 0x8, addend: 0x0, symName: __ZN4absl12lts_2024011612log_internal22LogMessageQuietlyFatalC1EPKciNS0_11string_viewE, symObjAddr: 0x1B14, symBinAddr: 0x633B0, symSize: 0x4 }
  - { offset: 0x1F3F5C, size: 0x8, addend: 0x0, symName: __ZN4absl12lts_2024011612log_internal22LogMessageQuietlyFatalD2Ev, symObjAddr: 0x1B18, symBinAddr: 0x393E0, symSize: 0x18 }
  - { offset: 0x1F3FAC, size: 0x8, addend: 0x0, symName: __ZN4absl12lts_2024011612log_internal22LogMessageQuietlyFatalD1Ev, symObjAddr: 0x1B30, symBinAddr: 0x393F8, symSize: 0xC }
  - { offset: 0x1F4723, size: 0x8, addend: 0x0, symName: __ZN4absl12lts_2024011623inlined_vector_internal7StorageIPNS0_7LogSinkELm16ENSt3__19allocatorIS4_EEE15EmplaceBackSlowIJRKS4_EEERS4_DpOT_, symObjAddr: 0x20A0, symBinAddr: 0x39498, symSize: 0xD8 }
  - { offset: 0x1FA92D, size: 0x8, addend: 0x0, symName: __ZN4absl12lts_20240116lsERNSt3__113basic_ostreamIcNS1_11char_traitsIcEEEENS0_11LogSeverityE, symObjAddr: 0x0, symBinAddr: 0x395BC, symSize: 0x74 }
  - { offset: 0x1FAA79, size: 0x8, addend: 0x0, symName: __ZN4absl12lts_20240116lsERNSt3__113basic_ostreamIcNS1_11char_traitsIcEEEENS0_18LogSeverityAtLeastE, symObjAddr: 0x74, symBinAddr: 0x39630, symSize: 0x64 }
  - { offset: 0x1FAB33, size: 0x8, addend: 0x0, symName: __ZN4absl12lts_20240116lsERNSt3__113basic_ostreamIcNS1_11char_traitsIcEEEENS0_17LogSeverityAtMostE, symObjAddr: 0xD8, symBinAddr: 0x39694, symSize: 0x64 }
  - { offset: 0x1FD1B3, size: 0x8, addend: 0x0, symName: __ZNK4absl12lts_202401167LogSink11KeyFunctionEv, symObjAddr: 0x0, symBinAddr: 0x396F8, symSize: 0x4 }
  - { offset: 0x1FDE5A, size: 0x8, addend: 0x0, symName: __ZNK4absl12lts_202401167LogSink11KeyFunctionEv, symObjAddr: 0x0, symBinAddr: 0x396F8, symSize: 0x4 }
  - { offset: 0x1FDE7F, size: 0x8, addend: 0x0, symName: __ZN4absl12lts_202401167LogSinkD1Ev, symObjAddr: 0x4, symBinAddr: 0x633B4, symSize: 0x4 }
  - { offset: 0x1FDEA8, size: 0x8, addend: 0x0, symName: __ZN4absl12lts_202401167LogSinkD0Ev, symObjAddr: 0x8, symBinAddr: 0x633B8, symSize: 0x4 }
  - { offset: 0x1FDED1, size: 0x8, addend: 0x0, symName: __ZN4absl12lts_202401167LogSink5FlushEv, symObjAddr: 0xC, symBinAddr: 0x396FC, symSize: 0x4 }
  - { offset: 0x1FFDDB, size: 0x8, addend: 0x0, symName: __ZN4absl12lts_2024011612log_internal12_GLOBAL__N_111GlobalSinksEv, symObjAddr: 0x134, symBinAddr: 0x39834, symSize: 0x68 }
  - { offset: 0x1FFE08, size: 0x8, addend: 0x0, symName: __ZZN4absl12lts_2024011612log_internal12_GLOBAL__N_111GlobalSinksEvE12global_sinks, symObjAddr: 0x39E78, symBinAddr: 0x84408, symSize: 0x0 }
  - { offset: 0x1FFF55, size: 0x8, addend: 0x0, symName: __ZN4absl12lts_2024011612log_internal24ThreadIsLoggingToLogSinkEv, symObjAddr: 0x0, symBinAddr: 0x39700, symSize: 0x24 }
  - { offset: 0x1FFF9D, size: 0x8, addend: 0x0, symName: __ZN4absl12lts_2024011612log_internal10LogToSinksERKNS0_8LogEntryENS0_4SpanIPNS0_7LogSinkEEEb, symObjAddr: 0x24, symBinAddr: 0x39724, symSize: 0x110 }
  - { offset: 0x200325, size: 0x8, addend: 0x0, symName: __ZN4absl12lts_2024011612log_internal10AddLogSinkEPNS0_7LogSinkE, symObjAddr: 0x19C, symBinAddr: 0x3989C, symSize: 0x24 }
  - { offset: 0x20036B, size: 0x8, addend: 0x0, symName: __ZN4absl12lts_2024011612log_internal13RemoveLogSinkEPNS0_7LogSinkE, symObjAddr: 0x27C, symBinAddr: 0x3997C, symSize: 0xBC }
  - { offset: 0x200672, size: 0x8, addend: 0x0, symName: __ZN4absl12lts_2024011612log_internal13FlushLogSinksEv, symObjAddr: 0x338, symBinAddr: 0x39A38, symSize: 0xE4 }
  - { offset: 0x200B6A, size: 0x8, addend: 0x0, symName: __ZN4absl12lts_2024011613base_internal12CallOnceImplIZNS0_12log_internal12_GLOBAL__N_113StderrLogSink4SendERKNS0_8LogEntryEEUlvE_JEEEvPNSt3__16atomicIjEENS1_14SchedulingModeEOT_DpOT0_, symObjAddr: 0x560, symBinAddr: 0x39C5C, symSize: 0x180 }
  - { offset: 0x200B91, size: 0x8, addend: 0x0, symName: __ZZN4absl12lts_2024011613base_internal12CallOnceImplIZNS0_12log_internal12_GLOBAL__N_113StderrLogSink4SendERKNS0_8LogEntryEEUlvE_JEEEvPNSt3__16atomicIjEENS1_14SchedulingModeEOT_DpOT0_E5trans, symObjAddr: 0xD3C, symBinAddr: 0x6B7F8, symSize: 0x0 }
  - { offset: 0x20674E, size: 0x8, addend: 0x0, symName: __ZN4absl12lts_2024011612log_internal12_GLOBAL__N_113StderrLogSink4SendERKNS0_8LogEntryE, symObjAddr: 0x4A0, symBinAddr: 0x39BA0, symSize: 0x9C }
  - { offset: 0x206772, size: 0x8, addend: 0x0, symName: __ZZN4absl12lts_2024011612log_internal12_GLOBAL__N_113StderrLogSink4SendERKNS0_8LogEntryEE23warn_if_not_initialized, symObjAddr: 0x39EA0, symBinAddr: 0x84430, symSize: 0x0 }
  - { offset: 0x206BA6, size: 0x8, addend: 0x0, symName: __ZNK4absl12lts_202401168LogEntry36text_message_with_prefix_and_newlineEv, symObjAddr: 0x540, symBinAddr: 0x39C3C, symSize: 0x20 }
  - { offset: 0x206BCF, size: 0x8, addend: 0x0, symName: __ZNK4absl12lts_202401168LogEntry36text_message_with_prefix_and_newlineEv, symObjAddr: 0x540, symBinAddr: 0x39C3C, symSize: 0x20 }
  - { offset: 0x206C64, size: 0x8, addend: 0x0, symName: __ZN4absl12lts_2024011613base_internal12CallOnceImplIZNS0_12log_internal12_GLOBAL__N_113StderrLogSink4SendERKNS0_8LogEntryEEUlvE_JEEEvPNSt3__16atomicIjEENS1_14SchedulingModeEOT_DpOT0_, symObjAddr: 0x560, symBinAddr: 0x39C5C, symSize: 0x180 }
  - { offset: 0x206C6F, size: 0x8, addend: 0x0, symName: __ZN4absl12lts_2024011612NoDestructorINS0_12log_internal12_GLOBAL__N_116GlobalLogSinkSetEEC1IJELi0EEEDpOT_, symObjAddr: 0x41C, symBinAddr: 0x39B1C, symSize: 0x7C }
  - { offset: 0x206E41, size: 0x8, addend: 0x0, symName: __ZN4absl12lts_2024011612log_internal12_GLOBAL__N_116GlobalLogSinkSet10AddLogSinkEPNS0_7LogSinkE, symObjAddr: 0x1C0, symBinAddr: 0x398C0, symSize: 0xBC }
  - { offset: 0x207341, size: 0x8, addend: 0x0, symName: __ZNK4absl12lts_2024011613base_internal10AtomicHookIPFvNS0_11LogSeverityEPKciRKNSt3__112basic_stringIcNS6_11char_traitsIcEENS6_9allocatorIcEEEEEEclIJS3_RKS5_iRA38_S4_EEEvDpOT_, symObjAddr: 0x7C0, symBinAddr: 0x39DDC, symSize: 0x84 }
  - { offset: 0x20734C, size: 0x8, addend: 0x0, symName: __ZN4absl12lts_2024011612log_internal12_GLOBAL__N_116GlobalLogSinkSet10AddLogSinkEPNS0_7LogSinkE.cold.1, symObjAddr: 0xA64, symBinAddr: 0x633BC, symSize: 0x68 }
  - { offset: 0x2074DF, size: 0x8, addend: 0x0, symName: __ZN4absl12lts_2024011612log_internal13RemoveLogSinkEPNS0_7LogSinkE.cold.1, symObjAddr: 0xACC, symBinAddr: 0x63424, symSize: 0x68 }
  - { offset: 0x207811, size: 0x8, addend: 0x0, symName: __ZN4absl12lts_2024011612NoDestructorINS0_12log_internal12_GLOBAL__N_116GlobalLogSinkSetEEC1IJELi0EEEDpOT_.cold.1, symObjAddr: 0xB34, symBinAddr: 0x6348C, symSize: 0x3C }
  - { offset: 0x207947, size: 0x8, addend: 0x0, symName: __ZN4absl12lts_2024011612log_internal12_GLOBAL__N_113StderrLogSinkD1Ev, symObjAddr: 0x498, symBinAddr: 0x39B98, symSize: 0x4 }
  - { offset: 0x207970, size: 0x8, addend: 0x0, symName: __ZN4absl12lts_2024011612log_internal12_GLOBAL__N_113StderrLogSinkD0Ev, symObjAddr: 0x49C, symBinAddr: 0x39B9C, symSize: 0x4 }
  - { offset: 0x208134, size: 0x8, addend: 0x0, symName: __ZNK4absl12lts_2024011613base_internal10AtomicHookIPFvNS0_11LogSeverityEPKciRKNSt3__112basic_stringIcNS6_11char_traitsIcEENS6_9allocatorIcEEEEEEclIJS3_RKS5_iRA38_S4_EEEvDpOT_, symObjAddr: 0x7C0, symBinAddr: 0x39DDC, symSize: 0x84 }
  - { offset: 0x2087DD, size: 0x8, addend: 0x0, symName: __ZNK4absl12lts_2024011613base_internal10AtomicHookIPFvNS0_11LogSeverityEPKciRKNSt3__112basic_stringIcNS6_11char_traitsIcEENS6_9allocatorIcEEEEEEclIJS3_RKS5_iRA34_S4_EEEvDpOT_, symObjAddr: 0x9E0, symBinAddr: 0x39E60, symSize: 0x84 }
  - { offset: 0x208801, size: 0x8, addend: 0x0, symName: __ZNK4absl12lts_2024011613base_internal10AtomicHookIPFvNS0_11LogSeverityEPKciRKNSt3__112basic_stringIcNS6_11char_traitsIcEENS6_9allocatorIcEEEEEEclIJS3_RKS5_iRA34_S4_EEEvDpOT_, symObjAddr: 0x9E0, symBinAddr: 0x39E60, symSize: 0x84 }
  - { offset: 0x20AB10, size: 0x8, addend: 0x0, symName: __ZN4absl12lts_2024011613base_internal12_GLOBAL__N_119create_globals_onceE, symObjAddr: 0x13C10, symBinAddr: 0x84590, symSize: 0x0 }
  - { offset: 0x20AB2B, size: 0x8, addend: 0x0, symName: __ZN4absl12lts_2024011613base_internal12_GLOBAL__N_122unhooked_arena_storageE, symObjAddr: 0x13C18, symBinAddr: 0x84598, symSize: 0x0 }
  - { offset: 0x20AB46, size: 0x8, addend: 0x0, symName: __ZN4absl12lts_2024011613base_internal12_GLOBAL__N_137unhooked_async_sig_safe_arena_storageE, symObjAddr: 0x13D60, symBinAddr: 0x846E0, symSize: 0x0 }
  - { offset: 0x20AB61, size: 0x8, addend: 0x0, symName: __ZN4absl12lts_2024011613base_internal12_GLOBAL__N_121default_arena_storageE, symObjAddr: 0x13AC8, symBinAddr: 0x84448, symSize: 0x0 }
  - { offset: 0x20ABD9, size: 0x8, addend: 0x0, symName: __ZN4absl12lts_2024011613base_internal12_GLOBAL__N_118CreateGlobalArenasEv, symObjAddr: 0x34, symBinAddr: 0x39F18, symSize: 0x3C }
  - { offset: 0x20AD96, size: 0x8, addend: 0x0, symName: __ZN4absl12lts_2024011613base_internal12CallOnceImplIRFvvEJEEEvPNSt3__16atomicIjEENS1_14SchedulingModeEOT_DpOT0_, symObjAddr: 0x109C, symBinAddr: 0x3AF70, symSize: 0x11C }
  - { offset: 0x20ADBC, size: 0x8, addend: 0x0, symName: __ZZN4absl12lts_2024011613base_internal12CallOnceImplIRFvvEJEEEvPNSt3__16atomicIjEENS1_14SchedulingModeEOT_DpOT0_E5trans, symObjAddr: 0x1C5C, symBinAddr: 0x6B830, symSize: 0x0 }
  - { offset: 0x20B181, size: 0x8, addend: 0x0, symName: __ZN4absl12lts_2024011613base_internalL16DoAllocWithArenaEmPNS1_13LowLevelAlloc5ArenaE, symObjAddr: 0x800, symBinAddr: 0x3A6E4, symSize: 0x5A8 }
  - { offset: 0x20B84B, size: 0x8, addend: 0x0, symName: __ZN4absl12lts_2024011613base_internalL13AddToFreelistEPvPNS1_13LowLevelAlloc5ArenaE, symObjAddr: 0x6F0, symBinAddr: 0x3A5D4, symSize: 0xCC }
  - { offset: 0x20B978, size: 0x8, addend: 0x0, symName: __ZN4absl12lts_2024011613base_internalL18LLA_SkiplistLevelsEmmPj, symObjAddr: 0xDB8, symBinAddr: 0x3AC8C, symSize: 0x8C }
  - { offset: 0x20BA6E, size: 0x8, addend: 0x0, symName: __ZN4absl12lts_2024011613base_internalL18LLA_SkiplistInsertEPNS1_12_GLOBAL__N_19AllocListES4_PS4_, symObjAddr: 0xE44, symBinAddr: 0x3AD18, symSize: 0xAC }
  - { offset: 0x20BA79, size: 0x8, addend: 0x0, symName: __ZN4absl12lts_2024011613base_internalL18LLA_SkiplistInsertEPNS1_12_GLOBAL__N_19AllocListES4_PS4_, symObjAddr: 0xE44, symBinAddr: 0x3AD18, symSize: 0xAC }
  - { offset: 0x20BB2B, size: 0x8, addend: 0x0, symName: __ZN4absl12lts_2024011613base_internalL8CoalesceEPNS1_12_GLOBAL__N_19AllocListE, symObjAddr: 0xEF0, symBinAddr: 0x3ADC4, symSize: 0xC4 }
  - { offset: 0x20BCF9, size: 0x8, addend: 0x0, symName: __ZN4absl12lts_2024011613base_internalL18LLA_SkiplistDeleteEPNS1_12_GLOBAL__N_19AllocListES4_PS4_, symObjAddr: 0xFB4, symBinAddr: 0x3AE88, symSize: 0xE8 }
  - { offset: 0x20BDE1, size: 0x8, addend: 0x0, symName: __ZN4absl12lts_2024011613base_internal12CallOnceImplIRFvvEJEEEvPNSt3__16atomicIjEENS1_14SchedulingModeEOT_DpOT0_, symObjAddr: 0x109C, symBinAddr: 0x3AF70, symSize: 0x11C }
  - { offset: 0x20CCD9, size: 0x8, addend: 0x0, symName: __ZN4absl12lts_2024011613base_internal13LowLevelAlloc12DefaultArenaEv, symObjAddr: 0x0, symBinAddr: 0x39EE4, symSize: 0x34 }
  - { offset: 0x20CD18, size: 0x8, addend: 0x0, symName: __ZN4absl12lts_2024011613base_internal13LowLevelAlloc12DefaultArenaEv, symObjAddr: 0x0, symBinAddr: 0x39EE4, symSize: 0x34 }
  - { offset: 0x20CD3B, size: 0x8, addend: 0x0, symName: __ZN4absl12lts_2024011613base_internal13LowLevelAlloc12DefaultArenaEv, symObjAddr: 0x0, symBinAddr: 0x39EE4, symSize: 0x34 }
  - { offset: 0x20CD6C, size: 0x8, addend: 0x0, symName: __ZN4absl12lts_2024011613base_internal13LowLevelAlloc12DefaultArenaEv.cold.1, symObjAddr: 0x11B8, symBinAddr: 0x634C8, symSize: 0x14 }
  - { offset: 0x20CD87, size: 0x8, addend: 0x0, symName: __ZN4absl12lts_2024011613base_internal13LowLevelAlloc12DefaultArenaEv.cold.1, symObjAddr: 0x11B8, symBinAddr: 0x634C8, symSize: 0x14 }
  - { offset: 0x20CDC2, size: 0x8, addend: 0x0, symName: __ZN4absl12lts_2024011613base_internal13LowLevelAlloc5ArenaC2Ej, symObjAddr: 0x70, symBinAddr: 0x39F54, symSize: 0x90 }
  - { offset: 0x20CE72, size: 0x8, addend: 0x0, symName: __ZN4absl12lts_2024011613base_internal13LowLevelAlloc5ArenaC1Ej, symObjAddr: 0x100, symBinAddr: 0x39FE4, symSize: 0x4 }
  - { offset: 0x20CE9B, size: 0x8, addend: 0x0, symName: __ZN4absl12lts_2024011613base_internal13LowLevelAlloc5ArenaC1Ej, symObjAddr: 0x100, symBinAddr: 0x39FE4, symSize: 0x4 }
  - { offset: 0x20CF06, size: 0x8, addend: 0x0, symName: __ZN4absl12lts_2024011613base_internal13LowLevelAlloc8NewArenaEj, symObjAddr: 0x104, symBinAddr: 0x39FE8, symSize: 0x9C }
  - { offset: 0x20D197, size: 0x8, addend: 0x0, symName: __ZN4absl12lts_2024011613base_internal13LowLevelAlloc14AllocWithArenaEmPNS2_5ArenaE, symObjAddr: 0x1A0, symBinAddr: 0x3A084, symSize: 0x14 }
  - { offset: 0x20D1E7, size: 0x8, addend: 0x0, symName: __ZN4absl12lts_2024011613base_internal13LowLevelAlloc11DeleteArenaEPNS2_5ArenaE, symObjAddr: 0x1B4, symBinAddr: 0x3A098, symSize: 0x2E8 }
  - { offset: 0x20D1F2, size: 0x8, addend: 0x0, symName: __ZN4absl12lts_2024011613base_internal13LowLevelAlloc14AllocWithArenaEmPNS2_5ArenaE.cold.1, symObjAddr: 0x11E0, symBinAddr: 0x634DC, symSize: 0x5C }
  - { offset: 0x20D20A, size: 0x8, addend: 0x0, symName: __ZN4absl12lts_2024011613base_internal13LowLevelAlloc11DeleteArenaEPNS2_5ArenaE, symObjAddr: 0x1B4, symBinAddr: 0x3A098, symSize: 0x2E8 }
  - { offset: 0x20D5CC, size: 0x8, addend: 0x0, symName: __ZN4absl12lts_2024011613base_internal12_GLOBAL__N_19ArenaLockC1EPNS1_13LowLevelAlloc5ArenaE, symObjAddr: 0x49C, symBinAddr: 0x3A380, symSize: 0x98 }
  - { offset: 0x20D76A, size: 0x8, addend: 0x0, symName: __ZN4absl12lts_2024011613base_internal12_GLOBAL__N_19ArenaLock5LeaveEv, symObjAddr: 0x534, symBinAddr: 0x3A418, symSize: 0x70 }
  - { offset: 0x20D889, size: 0x8, addend: 0x0, symName: __ZN4absl12lts_2024011613base_internal13LowLevelAlloc4FreeEPv, symObjAddr: 0x5A4, symBinAddr: 0x3A488, symSize: 0xD4 }
  - { offset: 0x20D8DD, size: 0x8, addend: 0x0, symName: __ZN4absl12lts_2024011613base_internal13LowLevelAlloc4FreeEPv, symObjAddr: 0x5A4, symBinAddr: 0x3A488, symSize: 0xD4 }
  - { offset: 0x20D9F3, size: 0x8, addend: 0x0, symName: __ZN4absl12lts_2024011613base_internal12_GLOBAL__N_19ArenaLockD1Ev, symObjAddr: 0x678, symBinAddr: 0x3A55C, symSize: 0x78 }
  - { offset: 0x20DA64, size: 0x8, addend: 0x0, symName: __ZN4absl12lts_2024011613base_internal13LowLevelAlloc11DeleteArenaEPNS2_5ArenaE.cold.3, symObjAddr: 0x1264, symBinAddr: 0x63538, symSize: 0x5C }
  - { offset: 0x20DC34, size: 0x8, addend: 0x0, symName: __ZN4absl12lts_2024011613base_internal12_GLOBAL__N_19ArenaLock5LeaveEv.cold.1, symObjAddr: 0x12C0, symBinAddr: 0x63594, symSize: 0x4C }
  - { offset: 0x20DC74, size: 0x8, addend: 0x0, symName: __ZN4absl12lts_2024011613base_internalL13AddToFreelistEPvPNS1_13LowLevelAlloc5ArenaE.cold.1, symObjAddr: 0x130C, symBinAddr: 0x635E0, symSize: 0x5C }
  - { offset: 0x20DC8C, size: 0x8, addend: 0x0, symName: __ZN4absl12lts_2024011613base_internalL13AddToFreelistEPvPNS1_13LowLevelAlloc5ArenaE.cold.2, symObjAddr: 0x1368, symBinAddr: 0x6363C, symSize: 0x5C }
  - { offset: 0x20DCA4, size: 0x8, addend: 0x0, symName: __ZN4absl12lts_2024011613base_internal13LowLevelAlloc5AllocEm, symObjAddr: 0x7BC, symBinAddr: 0x3A6A0, symSize: 0x44 }
  - { offset: 0x20DDC4, size: 0x8, addend: 0x0, symName: __ZN4absl12lts_2024011613base_internalL18LLA_SkiplistLevelsEmmPj.cold.1, symObjAddr: 0x13D8, symBinAddr: 0x63698, symSize: 0x5C }
  - { offset: 0x20DDE1, size: 0x8, addend: 0x0, symName: __ZN4absl12lts_2024011613base_internalL18LLA_SkiplistDeleteEPNS1_12_GLOBAL__N_19AllocListES4_PS4_.cold.1, symObjAddr: 0x1434, symBinAddr: 0x636F4, symSize: 0x5C }
  - { offset: 0x20DE69, size: 0x8, addend: 0x0, symName: _OUTLINED_FUNCTION_0, symObjAddr: 0x1490, symBinAddr: 0x3B08C, symSize: 0x8 }
  - { offset: 0x20FD3D, size: 0x8, addend: 0x0, symName: __ZN4absl12lts_2024011613hash_internal12LowLevelHashEPKvmyPKy, symObjAddr: 0x0, symBinAddr: 0x3B094, symSize: 0x174 }
  - { offset: 0x20FE41, size: 0x8, addend: 0x0, symName: __ZN4absl12lts_2024011613hash_internal12LowLevelHashEPKvmyPKy, symObjAddr: 0x0, symBinAddr: 0x3B094, symSize: 0x174 }
  - { offset: 0x21342B, size: 0x8, addend: 0x0, symName: __ZN4absl12lts_2024011616strings_internal13JoinAlgorithmINSt3__111__wrap_iterIPKNS3_12basic_stringIcNS3_11char_traitsIcEENS3_9allocatorIcEEEEEEvEESA_T_SE_NS0_11string_viewENS1_11NoFormatterE, symObjAddr: 0x28BC, symBinAddr: 0x3CD74, symSize: 0x140 }
  - { offset: 0x213CF1, size: 0x8, addend: 0x0, symName: __ZN4absl12lts_2024011614flags_internal13AbslParseFlagENS0_11string_viewEPbPNSt3__112basic_stringIcNS4_11char_traitsIcEENS4_9allocatorIcEEEE, symObjAddr: 0x0, symBinAddr: 0x3B208, symSize: 0x174 }
  - { offset: 0x213FC3, size: 0x8, addend: 0x0, symName: __ZN4absl12lts_2024011614flags_internal13AbslParseFlagENS0_11string_viewEPsPNSt3__112basic_stringIcNS4_11char_traitsIcEENS4_9allocatorIcEEEE, symObjAddr: 0x174, symBinAddr: 0x3B37C, symSize: 0xEC }
  - { offset: 0x2141B2, size: 0x8, addend: 0x0, symName: __ZN4absl12lts_2024011614flags_internalL11NumericBaseENS0_11string_viewE, symObjAddr: 0x96C, symBinAddr: 0x3BB74, symSize: 0x84 }
  - { offset: 0x214227, size: 0x8, addend: 0x0, symName: __ZN4absl12lts_2024011614flags_internal13AbslParseFlagENS0_11string_viewEPNS0_7uint128EPNSt3__112basic_stringIcNS5_11char_traitsIcEENS5_9allocatorIcEEEE, symObjAddr: 0x9F0, symBinAddr: 0x3BBF8, symSize: 0xF8 }
  - { offset: 0x214262, size: 0x8, addend: 0x0, symName: __ZN4absl12lts_2024011614flags_internal13AbslParseFlagENS0_11string_viewEPtPNSt3__112basic_stringIcNS4_11char_traitsIcEENS4_9allocatorIcEEEE, symObjAddr: 0x260, symBinAddr: 0x3B468, symSize: 0xEC }
  - { offset: 0x214451, size: 0x8, addend: 0x0, symName: __ZN4absl12lts_2024011614flags_internal13AbslParseFlagENS0_11string_viewEPiPNSt3__112basic_stringIcNS4_11char_traitsIcEENS4_9allocatorIcEEEE, symObjAddr: 0x34C, symBinAddr: 0x3B554, symSize: 0xDC }
  - { offset: 0x214635, size: 0x8, addend: 0x0, symName: __ZN4absl12lts_2024011614flags_internal13AbslParseFlagENS0_11string_viewEPjPNSt3__112basic_stringIcNS4_11char_traitsIcEENS4_9allocatorIcEEEE, symObjAddr: 0x428, symBinAddr: 0x3B630, symSize: 0xDC }
  - { offset: 0x21484C, size: 0x8, addend: 0x0, symName: __ZN4absl12lts_2024011614flags_internal13AbslParseFlagENS0_11string_viewEPlPNSt3__112basic_stringIcNS4_11char_traitsIcEENS4_9allocatorIcEEEE, symObjAddr: 0x504, symBinAddr: 0x3B70C, symSize: 0xDC }
  - { offset: 0x214A63, size: 0x8, addend: 0x0, symName: __ZN4absl12lts_2024011614flags_internal13AbslParseFlagENS0_11string_viewEPmPNSt3__112basic_stringIcNS4_11char_traitsIcEENS4_9allocatorIcEEEE, symObjAddr: 0x5E0, symBinAddr: 0x3B7E8, symSize: 0xDC }
  - { offset: 0x214C7A, size: 0x8, addend: 0x0, symName: __ZN4absl12lts_2024011614flags_internal13AbslParseFlagENS0_11string_viewEPxPNSt3__112basic_stringIcNS4_11char_traitsIcEENS4_9allocatorIcEEEE, symObjAddr: 0x6BC, symBinAddr: 0x3B8C4, symSize: 0xDC }
  - { offset: 0x214E91, size: 0x8, addend: 0x0, symName: __ZN4absl12lts_2024011614flags_internal13AbslParseFlagENS0_11string_viewEPyPNSt3__112basic_stringIcNS4_11char_traitsIcEENS4_9allocatorIcEEEE, symObjAddr: 0x798, symBinAddr: 0x3B9A0, symSize: 0xDC }
  - { offset: 0x215078, size: 0x8, addend: 0x0, symName: __ZN4absl12lts_2024011614flags_internal13AbslParseFlagENS0_11string_viewEPNS0_6int128EPNSt3__112basic_stringIcNS5_11char_traitsIcEENS5_9allocatorIcEEEE, symObjAddr: 0x874, symBinAddr: 0x3BA7C, symSize: 0xF8 }
  - { offset: 0x21522E, size: 0x8, addend: 0x0, symName: __ZN4absl12lts_2024011614flags_internal13AbslParseFlagENS0_11string_viewEPNS0_7uint128EPNSt3__112basic_stringIcNS5_11char_traitsIcEENS5_9allocatorIcEEEE, symObjAddr: 0x9F0, symBinAddr: 0x3BBF8, symSize: 0xF8 }
  - { offset: 0x2153E4, size: 0x8, addend: 0x0, symName: __ZN4absl12lts_2024011614flags_internal13AbslParseFlagENS0_11string_viewEPfPNSt3__112basic_stringIcNS4_11char_traitsIcEENS4_9allocatorIcEEEE, symObjAddr: 0xAE8, symBinAddr: 0x3BCF0, symSize: 0x4 }
  - { offset: 0x21540E, size: 0x8, addend: 0x0, symName: __ZN4absl12lts_2024011614flags_internal13AbslParseFlagENS0_11string_viewEPfPNSt3__112basic_stringIcNS4_11char_traitsIcEENS4_9allocatorIcEEEE, symObjAddr: 0xAE8, symBinAddr: 0x3BCF0, symSize: 0x4 }
  - { offset: 0x21542F, size: 0x8, addend: 0x0, symName: __ZN4absl12lts_2024011614flags_internal13AbslParseFlagENS0_11string_viewEPdPNSt3__112basic_stringIcNS4_11char_traitsIcEENS4_9allocatorIcEEEE, symObjAddr: 0xAEC, symBinAddr: 0x3BCF4, symSize: 0x4 }
  - { offset: 0x215459, size: 0x8, addend: 0x0, symName: __ZN4absl12lts_2024011614flags_internal13AbslParseFlagENS0_11string_viewEPdPNSt3__112basic_stringIcNS4_11char_traitsIcEENS4_9allocatorIcEEEE, symObjAddr: 0xAEC, symBinAddr: 0x3BCF4, symSize: 0x4 }
  - { offset: 0x21547A, size: 0x8, addend: 0x0, symName: __ZN4absl12lts_2024011614flags_internal13AbslParseFlagENS0_11string_viewEPNSt3__112basic_stringIcNS3_11char_traitsIcEENS3_9allocatorIcEEEESA_, symObjAddr: 0xAF0, symBinAddr: 0x3BCF8, symSize: 0x28 }
  - { offset: 0x2154C2, size: 0x8, addend: 0x0, symName: __ZN4absl12lts_2024011614flags_internal13AbslParseFlagENS0_11string_viewEPNSt3__16vectorINS3_12basic_stringIcNS3_11char_traitsIcEENS3_9allocatorIcEEEENS8_ISA_EEEEPSA_, symObjAddr: 0xB18, symBinAddr: 0x3BD20, symSize: 0x84 }
  - { offset: 0x2156D4, size: 0x8, addend: 0x0, symName: __ZN4absl12lts_2024011614flags_internal7UnparseEb, symObjAddr: 0xBE8, symBinAddr: 0x3BDF0, symSize: 0x20 }
  - { offset: 0x215739, size: 0x8, addend: 0x0, symName: __ZN4absl12lts_2024011614flags_internal7UnparseEs, symObjAddr: 0xC08, symBinAddr: 0x3BE10, symSize: 0x4 }
  - { offset: 0x215767, size: 0x8, addend: 0x0, symName: __ZN4absl12lts_2024011614flags_internal7UnparseEs, symObjAddr: 0xC08, symBinAddr: 0x3BE10, symSize: 0x4 }
  - { offset: 0x215783, size: 0x8, addend: 0x0, symName: __ZN4absl12lts_2024011614flags_internal7UnparseEs, symObjAddr: 0xC08, symBinAddr: 0x3BE10, symSize: 0x4 }
  - { offset: 0x21579C, size: 0x8, addend: 0x0, symName: __ZN4absl12lts_2024011614flags_internal7UnparseEt, symObjAddr: 0xC0C, symBinAddr: 0x3BE14, symSize: 0x4 }
  - { offset: 0x2157CA, size: 0x8, addend: 0x0, symName: __ZN4absl12lts_2024011614flags_internal7UnparseEt, symObjAddr: 0xC0C, symBinAddr: 0x3BE14, symSize: 0x4 }
  - { offset: 0x2157E6, size: 0x8, addend: 0x0, symName: __ZN4absl12lts_2024011614flags_internal7UnparseEt, symObjAddr: 0xC0C, symBinAddr: 0x3BE14, symSize: 0x4 }
  - { offset: 0x215800, size: 0x8, addend: 0x0, symName: __ZN4absl12lts_2024011614flags_internal7UnparseEi, symObjAddr: 0xC10, symBinAddr: 0x3BE18, symSize: 0x4 }
  - { offset: 0x21581E, size: 0x8, addend: 0x0, symName: __ZN4absl12lts_2024011614flags_internal7UnparseEi, symObjAddr: 0xC10, symBinAddr: 0x3BE18, symSize: 0x4 }
  - { offset: 0x21583A, size: 0x8, addend: 0x0, symName: __ZN4absl12lts_2024011614flags_internal7UnparseEi, symObjAddr: 0xC10, symBinAddr: 0x3BE18, symSize: 0x4 }
  - { offset: 0x215853, size: 0x8, addend: 0x0, symName: __ZN4absl12lts_2024011614flags_internal7UnparseEj, symObjAddr: 0xC14, symBinAddr: 0x3BE1C, symSize: 0x4 }
  - { offset: 0x215881, size: 0x8, addend: 0x0, symName: __ZN4absl12lts_2024011614flags_internal7UnparseEj, symObjAddr: 0xC14, symBinAddr: 0x3BE1C, symSize: 0x4 }
  - { offset: 0x21589D, size: 0x8, addend: 0x0, symName: __ZN4absl12lts_2024011614flags_internal7UnparseEj, symObjAddr: 0xC14, symBinAddr: 0x3BE1C, symSize: 0x4 }
  - { offset: 0x2158B6, size: 0x8, addend: 0x0, symName: __ZN4absl12lts_2024011614flags_internal7UnparseEl, symObjAddr: 0xC18, symBinAddr: 0x3BE20, symSize: 0x4 }
  - { offset: 0x2158E4, size: 0x8, addend: 0x0, symName: __ZN4absl12lts_2024011614flags_internal7UnparseEl, symObjAddr: 0xC18, symBinAddr: 0x3BE20, symSize: 0x4 }
  - { offset: 0x215900, size: 0x8, addend: 0x0, symName: __ZN4absl12lts_2024011614flags_internal7UnparseEl, symObjAddr: 0xC18, symBinAddr: 0x3BE20, symSize: 0x4 }
  - { offset: 0x215919, size: 0x8, addend: 0x0, symName: __ZN4absl12lts_2024011614flags_internal7UnparseEm, symObjAddr: 0xC1C, symBinAddr: 0x3BE24, symSize: 0x4 }
  - { offset: 0x215947, size: 0x8, addend: 0x0, symName: __ZN4absl12lts_2024011614flags_internal7UnparseEm, symObjAddr: 0xC1C, symBinAddr: 0x3BE24, symSize: 0x4 }
  - { offset: 0x215963, size: 0x8, addend: 0x0, symName: __ZN4absl12lts_2024011614flags_internal7UnparseEm, symObjAddr: 0xC1C, symBinAddr: 0x3BE24, symSize: 0x4 }
  - { offset: 0x21597C, size: 0x8, addend: 0x0, symName: __ZN4absl12lts_2024011614flags_internal7UnparseEx, symObjAddr: 0xC20, symBinAddr: 0x3BE28, symSize: 0x4 }
  - { offset: 0x2159AA, size: 0x8, addend: 0x0, symName: __ZN4absl12lts_2024011614flags_internal7UnparseEx, symObjAddr: 0xC20, symBinAddr: 0x3BE28, symSize: 0x4 }
  - { offset: 0x2159C6, size: 0x8, addend: 0x0, symName: __ZN4absl12lts_2024011614flags_internal7UnparseEx, symObjAddr: 0xC20, symBinAddr: 0x3BE28, symSize: 0x4 }
  - { offset: 0x2159DF, size: 0x8, addend: 0x0, symName: __ZN4absl12lts_2024011614flags_internal7UnparseEy, symObjAddr: 0xC24, symBinAddr: 0x3BE2C, symSize: 0x4 }
  - { offset: 0x215A0D, size: 0x8, addend: 0x0, symName: __ZN4absl12lts_2024011614flags_internal7UnparseEy, symObjAddr: 0xC24, symBinAddr: 0x3BE2C, symSize: 0x4 }
  - { offset: 0x215A29, size: 0x8, addend: 0x0, symName: __ZN4absl12lts_2024011614flags_internal7UnparseEy, symObjAddr: 0xC24, symBinAddr: 0x3BE2C, symSize: 0x4 }
  - { offset: 0x215A43, size: 0x8, addend: 0x0, symName: __ZN4absl12lts_2024011614flags_internal7UnparseENS0_6int128E, symObjAddr: 0xC28, symBinAddr: 0x3BE30, symSize: 0xF0 }
  - { offset: 0x215C77, size: 0x8, addend: 0x0, symName: __ZN4absl12lts_2024011614flags_internal7UnparseENS0_7uint128E, symObjAddr: 0xE6C, symBinAddr: 0x3BF20, symSize: 0xF0 }
  - { offset: 0x215EAA, size: 0x8, addend: 0x0, symName: __ZN4absl12lts_2024011614flags_internal7UnparseEf, symObjAddr: 0xF5C, symBinAddr: 0x3C010, symSize: 0x4 }
  - { offset: 0x215ED9, size: 0x8, addend: 0x0, symName: __ZN4absl12lts_2024011614flags_internal7UnparseEf, symObjAddr: 0xF5C, symBinAddr: 0x3C010, symSize: 0x4 }
  - { offset: 0x215EF5, size: 0x8, addend: 0x0, symName: __ZN4absl12lts_2024011614flags_internal23UnparseFloatingPointValIfEENSt3__112basic_stringIcNS3_11char_traitsIcEENS3_9allocatorIcEEEET_, symObjAddr: 0xF60, symBinAddr: 0x3C014, symSize: 0x164 }
  - { offset: 0x2164AD, size: 0x8, addend: 0x0, symName: __ZN4absl12lts_2024011614flags_internal7UnparseEd, symObjAddr: 0x10C4, symBinAddr: 0x3C178, symSize: 0x4 }
  - { offset: 0x2164DC, size: 0x8, addend: 0x0, symName: __ZN4absl12lts_2024011614flags_internal7UnparseEd, symObjAddr: 0x10C4, symBinAddr: 0x3C178, symSize: 0x4 }
  - { offset: 0x2164F8, size: 0x8, addend: 0x0, symName: __ZN4absl12lts_2024011614flags_internal23UnparseFloatingPointValIdEENSt3__112basic_stringIcNS3_11char_traitsIcEENS3_9allocatorIcEEEET_, symObjAddr: 0x10C8, symBinAddr: 0x3C17C, symSize: 0x168 }
  - { offset: 0x216A9A, size: 0x8, addend: 0x0, symName: __ZN4absl12lts_2024011614flags_internal15AbslUnparseFlagENS0_11string_viewE, symObjAddr: 0x1230, symBinAddr: 0x3C2E4, symSize: 0x20 }
  - { offset: 0x216ACA, size: 0x8, addend: 0x0, symName: __ZN4absl12lts_2024011614flags_internal15AbslUnparseFlagENS0_11string_viewE, symObjAddr: 0x1230, symBinAddr: 0x3C2E4, symSize: 0x20 }
  - { offset: 0x216B4E, size: 0x8, addend: 0x0, symName: __ZN4absl12lts_2024011614flags_internal15AbslUnparseFlagERKNSt3__16vectorINS2_12basic_stringIcNS2_11char_traitsIcEENS2_9allocatorIcEEEENS7_IS9_EEEE, symObjAddr: 0x1250, symBinAddr: 0x3C304, symSize: 0x18 }
  - { offset: 0x216B7E, size: 0x8, addend: 0x0, symName: __ZN4absl12lts_2024011614flags_internal15AbslUnparseFlagERKNSt3__16vectorINS2_12basic_stringIcNS2_11char_traitsIcEENS2_9allocatorIcEEEENS7_IS9_EEEE, symObjAddr: 0x1250, symBinAddr: 0x3C304, symSize: 0x18 }
  - { offset: 0x216B9B, size: 0x8, addend: 0x0, symName: __ZN4absl12lts_2024011614flags_internal15AbslUnparseFlagERKNSt3__16vectorINS2_12basic_stringIcNS2_11char_traitsIcEENS2_9allocatorIcEEEENS7_IS9_EEEE, symObjAddr: 0x1250, symBinAddr: 0x3C304, symSize: 0x18 }
  - { offset: 0x217645, size: 0x8, addend: 0x0, symName: __ZN4absl12lts_2024011613AbslParseFlagENS0_11string_viewEPNS0_11LogSeverityEPNSt3__112basic_stringIcNS4_11char_traitsIcEENS4_9allocatorIcEEEE, symObjAddr: 0x1268, symBinAddr: 0x3C31C, symSize: 0x1F8 }
  - { offset: 0x217970, size: 0x8, addend: 0x0, symName: __ZN4absl12lts_2024011615AbslUnparseFlagENS0_11LogSeverityE, symObjAddr: 0x1460, symBinAddr: 0x3C514, symSize: 0x20 }
  - { offset: 0x21E166, size: 0x8, addend: 0x0, symName: __ZNSt3__16vectorINS_12basic_stringIcNS_11char_traitsIcEENS_9allocatorIcEEEENS4_IS6_EEE16__init_with_sizeB8ne200100INS_11__wrap_iterIPKN4absl12lts_2024011611string_viewEEESG_EEvT_T0_m, symObjAddr: 0x22C4, symBinAddr: 0x3CAC0, symSize: 0x84 }
  - { offset: 0x21E179, size: 0x8, addend: 0x0, symName: __ZNSt3__135__uninitialized_allocator_copy_implB8ne200100INS_9allocatorIN4absl12lts_2024011611string_viewEEEPZNKS3_16strings_internal8SplitterINS3_6ByCharENS3_10AllowEmptyES4_E18ConvertToContainerINS_6vectorIS4_S5_EES4_Lb0EEclERKSA_E8raw_viewSI_PS4_EET2_RT_T0_T1_SK_, symObjAddr: 0x2208, symBinAddr: 0x3CA4C, symSize: 0x34 }
  - { offset: 0x21E2A3, size: 0x8, addend: 0x0, symName: __ZNKSt3__111__copy_implclB8ne200100IPZNK4absl12lts_2024011616strings_internal8SplitterINS3_6ByCharENS3_10AllowEmptyENS3_11string_viewEE18ConvertToContainerINS_6vectorIS8_NS_9allocatorIS8_EEEES8_Lb0EEclERKS9_E8raw_viewSJ_PS8_EENS_4pairIT_T1_EESM_T0_SN_, symObjAddr: 0x223C, symBinAddr: 0x3CA80, symSize: 0x40 }
  - { offset: 0x21E478, size: 0x8, addend: 0x0, symName: __ZNSt3__135__uninitialized_allocator_copy_implB8ne200100INS_9allocatorINS_12basic_stringIcNS_11char_traitsIcEENS1_IcEEEEEEPKN4absl12lts_2024011611string_viewESC_PS6_EET2_RT_T0_T1_SE_, symObjAddr: 0x23E8, symBinAddr: 0x3CBD0, symSize: 0xB4 }
  - { offset: 0x21E6FA, size: 0x8, addend: 0x0, symName: __ZNSt3__119__allocate_at_leastB8ne200100INS_9allocatorINS_12basic_stringIcNS_11char_traitsIcEENS1_IcEEEEEEEENS_19__allocation_resultINS_16allocator_traitsIT_E7pointerEEERSA_m, symObjAddr: 0x23A4, symBinAddr: 0x3CB8C, symSize: 0x44 }
  - { offset: 0x21E79F, size: 0x8, addend: 0x0, symName: __ZNSt3__135__uninitialized_allocator_copy_implB8ne200100INS_9allocatorINS_12basic_stringIcNS_11char_traitsIcEENS1_IcEEEEEEPKN4absl12lts_2024011611string_viewESC_PS6_EET2_RT_T0_T1_SE_, symObjAddr: 0x23E8, symBinAddr: 0x3CBD0, symSize: 0xB4 }
  - { offset: 0x21FABF, size: 0x8, addend: 0x0, symName: __ZNK4absl12lts_2024011616strings_internal8SplitterINS0_6ByCharENS0_10AllowEmptyENS0_11string_viewEE18ConvertToContainerINSt3__16vectorIS5_NS8_9allocatorIS5_EEEES5_Lb0EEclERKS6_, symObjAddr: 0x1D68, symBinAddr: 0x3C5AC, symSize: 0xC4 }
  - { offset: 0x2202C1, size: 0x8, addend: 0x0, symName: __ZNK4absl12lts_2024011616strings_internal8SplitterINS0_6ByCharENS0_10AllowEmptyENS0_11string_viewEE18ConvertToContainerINSt3__16vectorINS8_12basic_stringIcNS8_11char_traitsIcEENS8_9allocatorIcEEEENSD_ISF_EEEESF_Lb0EEclERKS6_, symObjAddr: 0x1CF0, symBinAddr: 0x3C534, symSize: 0x78 }
  - { offset: 0x22065E, size: 0x8, addend: 0x0, symName: __ZNSt3__16vectorINS_12basic_stringIcNS_11char_traitsIcEENS_9allocatorIcEEEENS4_IS6_EEE13__vdeallocateEv, symObjAddr: 0x2554, symBinAddr: 0x3CD3C, symSize: 0x38 }
  - { offset: 0x22071A, size: 0x8, addend: 0x0, symName: __ZNSt3__16vectorINS_12basic_stringIcNS_11char_traitsIcEENS_9allocatorIcEEEENS4_IS6_EEE16__destroy_vectorclB8ne200100Ev, symObjAddr: 0x2514, symBinAddr: 0x3CCFC, symSize: 0x40 }
  - { offset: 0x2207C5, size: 0x8, addend: 0x0, symName: __ZNSt3__16vectorINS_12basic_stringIcNS_11char_traitsIcEENS_9allocatorIcEEEENS4_IS6_EEE5clearB8ne200100Ev, symObjAddr: 0xB9C, symBinAddr: 0x3BDA4, symSize: 0x4C }
  - { offset: 0x221C46, size: 0x8, addend: 0x0, symName: __ZNSt3__16vectorINS_12basic_stringIcNS_11char_traitsIcEENS_9allocatorIcEEEENS4_IS6_EEE16__init_with_sizeB8ne200100INS_11__wrap_iterIPKN4absl12lts_2024011611string_viewEEESG_EEvT_T0_m, symObjAddr: 0x22C4, symBinAddr: 0x3CAC0, symSize: 0x84 }
  - { offset: 0x221FAD, size: 0x8, addend: 0x0, symName: __ZN4absl12lts_2024011616strings_internal13SplitIteratorINS1_8SplitterINS0_6ByCharENS0_10AllowEmptyENS0_11string_viewEEEEC2ENS8_5StateEPKS7_, symObjAddr: 0x1ED4, symBinAddr: 0x3C718, symSize: 0x60 }
  - { offset: 0x222062, size: 0x8, addend: 0x0, symName: __ZN4absl12lts_2024011616strings_internal13SplitIteratorINS1_8SplitterINS0_6ByCharENS0_10AllowEmptyENS0_11string_viewEEEEppEv, symObjAddr: 0x1E2C, symBinAddr: 0x3C670, symSize: 0xA8 }
  - { offset: 0x2220E5, size: 0x8, addend: 0x0, symName: __ZNSt3__16vectorIN4absl12lts_2024011611string_viewENS_9allocatorIS3_EEE18__insert_with_sizeB8ne200100IPZNKS2_16strings_internal8SplitterINS2_6ByCharENS2_10AllowEmptyES3_E18ConvertToContainerIS6_S3_Lb0EEclERKSC_E8raw_viewSI_EENS_11__wrap_iterIPS3_EENSJ_IPKS3_EET_T0_l, symObjAddr: 0x1F34, symBinAddr: 0x3C778, symSize: 0x250 }
  - { offset: 0x222FB2, size: 0x8, addend: 0x0, symName: __ZNSt3__114__split_bufferIN4absl12lts_2024011611string_viewERNS_9allocatorIS3_EEE28__construct_at_end_with_sizeIPZNKS2_16strings_internal8SplitterINS2_6ByCharENS2_10AllowEmptyES3_E18ConvertToContainerINS_6vectorIS3_S5_EES3_Lb0EEclERKSD_E8raw_viewEEvT_m, symObjAddr: 0x2184, symBinAddr: 0x3C9C8, symSize: 0x84 }
  - { offset: 0x22317C, size: 0x8, addend: 0x0, symName: __ZNKSt3__111__copy_implclB8ne200100IPZNK4absl12lts_2024011616strings_internal8SplitterINS3_6ByCharENS3_10AllowEmptyENS3_11string_viewEE18ConvertToContainerINS_6vectorIS8_NS_9allocatorIS8_EEEES8_Lb0EEclERKS9_E8raw_viewSJ_PS8_EENS_4pairIT_T1_EESM_T0_SN_, symObjAddr: 0x223C, symBinAddr: 0x3CA80, symSize: 0x40 }
  - { offset: 0x22364A, size: 0x8, addend: 0x0, symName: __ZNSt3__16vectorINS_12basic_stringIcNS_11char_traitsIcEENS_9allocatorIcEEEENS4_IS6_EEE11__vallocateB8ne200100Em, symObjAddr: 0x2348, symBinAddr: 0x3CB44, symSize: 0x48 }
  - { offset: 0x2236B4, size: 0x8, addend: 0x0, symName: __ZNSt3__119__allocate_at_leastB8ne200100INS_9allocatorINS_12basic_stringIcNS_11char_traitsIcEENS1_IcEEEEEEEENS_19__allocation_resultINS_16allocator_traitsIT_E7pointerEEERSA_m, symObjAddr: 0x23A4, symBinAddr: 0x3CB8C, symSize: 0x44 }
  - { offset: 0x2237FB, size: 0x8, addend: 0x0, symName: __ZNSt3__128__exception_guard_exceptionsINS_29_AllocatorDestroyRangeReverseINS_9allocatorINS_12basic_stringIcNS_11char_traitsIcEENS2_IcEEEEEEPS7_EEED2B8ne200100Ev, symObjAddr: 0x249C, symBinAddr: 0x3CC84, symSize: 0x34 }
  - { offset: 0x22383A, size: 0x8, addend: 0x0, symName: __ZNKSt3__129_AllocatorDestroyRangeReverseINS_9allocatorINS_12basic_stringIcNS_11char_traitsIcEENS1_IcEEEEEEPS6_EclB8ne200100Ev, symObjAddr: 0x24D0, symBinAddr: 0x3CCB8, symSize: 0x44 }
  - { offset: 0x223EEA, size: 0x8, addend: 0x0, symName: __ZN4absl12lts_2024011616strings_internal13JoinAlgorithmINSt3__111__wrap_iterIPKNS3_12basic_stringIcNS3_11char_traitsIcEENS3_9allocatorIcEEEEEEvEESA_T_SE_NS0_11string_viewENS1_11NoFormatterE, symObjAddr: 0x28BC, symBinAddr: 0x3CD74, symSize: 0x140 }
  - { offset: 0x226D7C, size: 0x8, addend: 0x0, symName: __ZN4absl12lts_2024011616EqualsIgnoreCaseENS0_11string_viewES1_, symObjAddr: 0x0, symBinAddr: 0x3CEB4, symSize: 0x3C }
  - { offset: 0x226DEB, size: 0x8, addend: 0x0, symName: __ZN4absl12lts_2024011621StrContainsIgnoreCaseENS0_11string_viewES1_, symObjAddr: 0x4C, symBinAddr: 0x3CEF0, symSize: 0x94 }
  - { offset: 0x226E8E, size: 0x8, addend: 0x0, symName: __ZN4absl12lts_2024011620StartsWithIgnoreCaseENS0_11string_viewES1_, symObjAddr: 0xE0, symBinAddr: 0x3CF84, symSize: 0x5C }
  - { offset: 0x226F5C, size: 0x8, addend: 0x0, symName: __ZN4absl12lts_2024011621StrContainsIgnoreCaseENS0_11string_viewEc, symObjAddr: 0x13C, symBinAddr: 0x3CFE0, symSize: 0x88 }
  - { offset: 0x2270CD, size: 0x8, addend: 0x0, symName: __ZN4absl12lts_2024011618EndsWithIgnoreCaseENS0_11string_viewES1_, symObjAddr: 0x200, symBinAddr: 0x3D068, symSize: 0x58 }
  - { offset: 0x22721B, size: 0x8, addend: 0x0, symName: __ZN4absl12lts_2024011623FindLongestCommonPrefixENS0_11string_viewES1_, symObjAddr: 0x258, symBinAddr: 0x3D0C0, symSize: 0x104 }
  - { offset: 0x227700, size: 0x8, addend: 0x0, symName: __ZN4absl12lts_2024011623FindLongestCommonSuffixENS0_11string_viewES1_, symObjAddr: 0x35C, symBinAddr: 0x3D1C4, symSize: 0x78 }
  - { offset: 0x22794C, size: 0x8, addend: 0x0, symName: __ZN4absl12lts_2024011618EndsWithIgnoreCaseENS0_11string_viewES1_, symObjAddr: 0x200, symBinAddr: 0x3D068, symSize: 0x58 }
  - { offset: 0x227BE5, size: 0x8, addend: 0x0, symName: __ZN4absl12lts_2024011623FindLongestCommonPrefixENS0_11string_viewES1_.cold.3, symObjAddr: 0x454, symBinAddr: 0x63750, symSize: 0x2C }
  - { offset: 0x227C00, size: 0x8, addend: 0x0, symName: __ZN4absl12lts_2024011623FindLongestCommonPrefixENS0_11string_viewES1_.cold.3, symObjAddr: 0x454, symBinAddr: 0x63750, symSize: 0x2C }
  - { offset: 0x227C14, size: 0x8, addend: 0x0, symName: __ZN4absl12lts_2024011623FindLongestCommonPrefixENS0_11string_viewES1_.cold.3, symObjAddr: 0x454, symBinAddr: 0x63750, symSize: 0x2C }
  - { offset: 0x227C28, size: 0x8, addend: 0x0, symName: __ZN4absl12lts_2024011623FindLongestCommonPrefixENS0_11string_viewES1_.cold.3, symObjAddr: 0x454, symBinAddr: 0x63750, symSize: 0x2C }
  - { offset: 0x229B50, size: 0x8, addend: 0x0, symName: __ZN4absl12lts_2024011616strings_internal10memcasecmpEPKcS3_m, symObjAddr: 0x0, symBinAddr: 0x3D23C, symSize: 0x54 }
  - { offset: 0x229B84, size: 0x8, addend: 0x0, symName: __ZN4absl12lts_2024011616strings_internal10memcasecmpEPKcS3_m, symObjAddr: 0x0, symBinAddr: 0x3D23C, symSize: 0x54 }
  - { offset: 0x229BEC, size: 0x8, addend: 0x0, symName: __ZN4absl12lts_2024011616strings_internal10memcasecmpEPKcS3_m, symObjAddr: 0x0, symBinAddr: 0x3D23C, symSize: 0x54 }
  - { offset: 0x22CE1E, size: 0x8, addend: 0x0, symName: '__ZN4absl12lts_2024011613base_internal12CallOnceImplIZNS0_12_GLOBAL__N_115GetMutexGlobalsEvE3$_0JEEEvPNSt3__16atomicIjEENS1_14SchedulingModeEOT_DpOT0_', symObjAddr: 0x33DC, symBinAddr: 0x3F9EC, symSize: 0x224 }
  - { offset: 0x22CE45, size: 0x8, addend: 0x0, symName: '__ZZN4absl12lts_2024011613base_internal12CallOnceImplIZNS0_12_GLOBAL__N_115GetMutexGlobalsEvE3$_0JEEEvPNSt3__16atomicIjEENS1_14SchedulingModeEOT_DpOT0_E5trans', symObjAddr: 0x52D8, symBinAddr: 0x6B8B0, symSize: 0x0 }
  - { offset: 0x22D4DA, size: 0x8, addend: 0x0, symName: __ZN4absl12lts_2024011624synchronization_internal10MutexDelayEii, symObjAddr: 0x150, symBinAddr: 0x3D330, symSize: 0xC0 }
  - { offset: 0x22D85C, size: 0x8, addend: 0x0, symName: __ZN4absl12lts_202401169Condition5kTrueE, symObjAddr: 0x5300, symBinAddr: 0x81CB0, symSize: 0x0 }
  - { offset: 0x22D877, size: 0x8, addend: 0x0, symName: __MergedGlobals, symObjAddr: 0x5418, symBinAddr: 0x84160, symSize: 0x0 }
  - { offset: 0x22D891, size: 0x8, addend: 0x0, symName: __MergedGlobals, symObjAddr: 0x5418, symBinAddr: 0x84160, symSize: 0x0 }
  - { offset: 0x22D8AD, size: 0x8, addend: 0x0, symName: __ZN4absl12lts_2024011612_GLOBAL__N_115cond_var_tracerE, symObjAddr: 0x5400, symBinAddr: 0x84148, symSize: 0x0 }
  - { offset: 0x22D8C7, size: 0x8, addend: 0x0, symName: __ZN4absl12lts_2024011612_GLOBAL__N_124synch_deadlock_detectionE.0, symObjAddr: 0x5410, symBinAddr: 0x84158, symSize: 0x0 }
  - { offset: 0x22D8E1, size: 0x8, addend: 0x0, symName: __ZN4absl12lts_2024011612_GLOBAL__N_122synch_check_invariantsE.0, symObjAddr: 0x4E1CC, symBinAddr: 0x8688C, symSize: 0x0 }
  - { offset: 0x22D8FB, size: 0x8, addend: 0x0, symName: __ZN4absl12lts_2024011612_GLOBAL__N_17globalsE, symObjAddr: 0x4E200, symBinAddr: 0x868C0, symSize: 0x0 }
  - { offset: 0x22D9E9, size: 0x8, addend: 0x0, symName: __ZN4absl12lts_2024011612_GLOBAL__N_18GetStackEPPvi, symObjAddr: 0x363C, symBinAddr: 0x3FC4C, symSize: 0x8 }
  - { offset: 0x22DA79, size: 0x8, addend: 0x0, symName: __ZN4absl12lts_20240116L16EnsureSynchEventEPNSt3__16atomicIlEEPKcll, symObjAddr: 0x458, symBinAddr: 0x3D628, symSize: 0x240 }
  - { offset: 0x22DAA5, size: 0x8, addend: 0x0, symName: __ZZN4absl12lts_20240116L16EnsureSynchEventEPNSt3__16atomicIlEEPKcllE17synch_event_count, symObjAddr: 0x4C188, symBinAddr: 0x84848, symSize: 0x0 }
  - { offset: 0x22DE5A, size: 0x8, addend: 0x0, symName: __ZN4absl12lts_20240116L14synch_event_muE, symObjAddr: 0x4E1C8, symBinAddr: 0x86888, symSize: 0x0 }
  - { offset: 0x22DE75, size: 0x8, addend: 0x0, symName: __ZN4absl12lts_20240116L11synch_eventE, symObjAddr: 0x4C190, symBinAddr: 0x84850, symSize: 0x0 }
  - { offset: 0x22DEF5, size: 0x8, addend: 0x0, symName: __ZN4absl12lts_20240116L17deadlock_graph_muE, symObjAddr: 0x4E1D0, symBinAddr: 0x86890, symSize: 0x0 }
  - { offset: 0x22DF0F, size: 0x8, addend: 0x0, symName: __ZN4absl12lts_20240116L14deadlock_graphE, symObjAddr: 0x4C180, symBinAddr: 0x84840, symSize: 0x0 }
  - { offset: 0x22DF1C, size: 0x8, addend: 0x0, symName: __ZN4absl12lts_20240116L11StackStringEPPviPcib, symObjAddr: 0x3644, symBinAddr: 0x3FC54, symSize: 0x148 }
  - { offset: 0x22E036, size: 0x8, addend: 0x0, symName: __ZN4absl12lts_20240116L11kExclusiveSE, symObjAddr: 0x5288, symBinAddr: 0x6B860, symSize: 0x0 }
  - { offset: 0x22E051, size: 0x8, addend: 0x0, symName: __ZN4absl12lts_20240116L8kSharedSE, symObjAddr: 0x52B0, symBinAddr: 0x6B888, symSize: 0x0 }
  - { offset: 0x22E06C, size: 0x8, addend: 0x0, symName: __ZN4absl12lts_20240116L16event_propertiesE, symObjAddr: 0x5320, symBinAddr: 0x81CD0, symSize: 0x0 }
  - { offset: 0x22E09C, size: 0x8, addend: 0x0, symName: __ZN4absl12lts_2024011621RegisterMutexProfilerEPFvxE, symObjAddr: 0x18, symBinAddr: 0x3D2A8, symSize: 0x10 }
  - { offset: 0x22E0DB, size: 0x8, addend: 0x0, symName: __ZN4absl12lts_2024011619RegisterMutexTracerEPFvPKcPKvxE, symObjAddr: 0x80, symBinAddr: 0x3D310, symSize: 0x10 }
  - { offset: 0x22E11A, size: 0x8, addend: 0x0, symName: __ZN4absl12lts_2024011621RegisterCondVarTracerEPFvPKcPKvE, symObjAddr: 0xE8, symBinAddr: 0x3D320, symSize: 0x10 }
  - { offset: 0x22E1B8, size: 0x8, addend: 0x0, symName: __ZN4absl12lts_20240116L15UnrefSynchEventEPNS0_10SynchEventE, symObjAddr: 0x698, symBinAddr: 0x3D868, symSize: 0xC0 }
  - { offset: 0x22E398, size: 0x8, addend: 0x0, symName: __ZN4absl12lts_2024011629EnableMutexInvariantDebuggingEb, symObjAddr: 0x758, symBinAddr: 0x3D928, symSize: 0x10 }
  - { offset: 0x22E3C9, size: 0x8, addend: 0x0, symName: __ZN4absl12lts_2024011629EnableMutexInvariantDebuggingEb, symObjAddr: 0x758, symBinAddr: 0x3D928, symSize: 0x10 }
  - { offset: 0x22E3F0, size: 0x8, addend: 0x0, symName: __ZN4absl12lts_2024011629EnableMutexInvariantDebuggingEb, symObjAddr: 0x758, symBinAddr: 0x3D928, symSize: 0x10 }
  - { offset: 0x22E411, size: 0x8, addend: 0x0, symName: __ZN4absl12lts_2024011629SetMutexDeadlockDetectionModeENS0_15OnDeadlockCycleE, symObjAddr: 0x7B4, symBinAddr: 0x3D984, symSize: 0x10 }
  - { offset: 0x22E43D, size: 0x8, addend: 0x0, symName: __ZN4absl12lts_2024011629SetMutexDeadlockDetectionModeENS0_15OnDeadlockCycleE, symObjAddr: 0x7B4, symBinAddr: 0x3D984, symSize: 0x10 }
  - { offset: 0x22E45F, size: 0x8, addend: 0x0, symName: __ZN4absl12lts_2024011629SetMutexDeadlockDetectionModeENS0_15OnDeadlockCycleE, symObjAddr: 0x7B4, symBinAddr: 0x3D984, symSize: 0x10 }
  - { offset: 0x22E507, size: 0x8, addend: 0x0, symName: __ZN4absl12lts_20240116L18MuEquivalentWaiterEPNS0_13base_internal14PerThreadSynchES3_, symObjAddr: 0x928, symBinAddr: 0x3DAF8, symSize: 0x3C }
  - { offset: 0x22E553, size: 0x8, addend: 0x0, symName: __ZN4absl12lts_20240116L7DequeueEPNS0_13base_internal14PerThreadSynchES3_, symObjAddr: 0x964, symBinAddr: 0x3DB34, symSize: 0x78 }
  - { offset: 0x22E5BC, size: 0x8, addend: 0x0, symName: __ZN4absl12lts_20240116L10GetGraphIdEPNS0_5MutexE, symObjAddr: 0xB48, symBinAddr: 0x3DD18, symSize: 0xA8 }
  - { offset: 0x22E772, size: 0x8, addend: 0x0, symName: __ZN4absl12lts_20240116L17Synch_GetAllLocksEv, symObjAddr: 0xBF0, symBinAddr: 0x3DDC0, symSize: 0x4C }
  - { offset: 0x22E7FF, size: 0x8, addend: 0x0, symName: __ZN4absl12lts_20240116L16GetGraphIdLockedEPNS0_5MutexE, symObjAddr: 0x3600, symBinAddr: 0x3FC10, symSize: 0x3C }
  - { offset: 0x22E84C, size: 0x8, addend: 0x0, symName: __ZN4absl12lts_20240116L13GetSynchEventEPKv, symObjAddr: 0xC3C, symBinAddr: 0x3DE0C, symSize: 0x100 }
  - { offset: 0x22EA5D, size: 0x8, addend: 0x0, symName: __ZN4absl12lts_20240116L22DebugOnlyDeadlockCheckEPNS0_5MutexE, symObjAddr: 0xDC4, symBinAddr: 0x3DF94, symSize: 0x49C }
  - { offset: 0x22F100, size: 0x8, addend: 0x0, symName: __ZN4absl12lts_20240116L9LockEnterEPNS0_5MutexENS0_24synchronization_internal7GraphIdEPNS0_14SynchLocksHeldE, symObjAddr: 0x37D4, symBinAddr: 0x3FD9C, symSize: 0x78 }
  - { offset: 0x22F47E, size: 0x8, addend: 0x0, symName: __ZN4absl12lts_20240116L23CheckForMutexCorruptionElPKc, symObjAddr: 0x298C, symBinAddr: 0x3F144, symSize: 0x28 }
  - { offset: 0x22F4CE, size: 0x8, addend: 0x0, symName: __ZN4absl12lts_20240116L7EnqueueEPNS0_13base_internal14PerThreadSynchEPNS0_15SynchWaitParamsEli, symObjAddr: 0x29B4, symBinAddr: 0x3F16C, symSize: 0x33C }
  - { offset: 0x22F4D9, size: 0x8, addend: 0x0, symName: __ZN4absl12lts_20240116L14PostSynchEventEPvi, symObjAddr: 0x23F8, symBinAddr: 0x3EBB0, symSize: 0x18C }
  - { offset: 0x22F739, size: 0x8, addend: 0x0, symName: __ZN4absl12lts_20240116L16ExactlyOneReaderEl, symObjAddr: 0x2954, symBinAddr: 0x3F10C, symSize: 0x38 }
  - { offset: 0x22F788, size: 0x8, addend: 0x0, symName: __ZN4absl12lts_20240116L23CheckForMutexCorruptionElPKc, symObjAddr: 0x298C, symBinAddr: 0x3F144, symSize: 0x28 }
  - { offset: 0x22F792, size: 0x8, addend: 0x0, symName: __ZN4absl12lts_20240116L7EnqueueEPNS0_13base_internal14PerThreadSynchEPNS0_15SynchWaitParamsEli, symObjAddr: 0x29B4, symBinAddr: 0x3F16C, symSize: 0x33C }
  - { offset: 0x22FBDE, size: 0x8, addend: 0x0, symName: __ZN4absl12lts_202401165Mutex5TransEPKNS0_6MuHowSE, symObjAddr: 0x2CF0, symBinAddr: 0x64194, symSize: 0xC }
  - { offset: 0x22FC22, size: 0x8, addend: 0x0, symName: __ZN4absl12lts_20240116L18DebugOnlyLockLeaveEPNS0_5MutexE, symObjAddr: 0x27AC, symBinAddr: 0x3EF64, symSize: 0xE8 }
  - { offset: 0x22FD0F, size: 0x8, addend: 0x0, symName: __ZN4absl12lts_202401165Mutex12ReaderUnlockEv, symObjAddr: 0x2894, symBinAddr: 0x3F04C, symSize: 0xC0 }
  - { offset: 0x22FFC2, size: 0x8, addend: 0x0, symName: __ZN4absl12lts_20240116L11DereferenceEPv, symObjAddr: 0x335C, symBinAddr: 0x3F96C, symSize: 0x8 }
  - { offset: 0x2329DC, size: 0x8, addend: 0x0, symName: _AbslInternalMutexYield_lts_20240116, symObjAddr: 0x0, symBinAddr: 0x3D290, symSize: 0x18 }
  - { offset: 0x232A2D, size: 0x8, addend: 0x0, symName: __ZN4absl12lts_2024011613base_internal10AtomicHookIPFvxEE5StoreES4_, symObjAddr: 0x28, symBinAddr: 0x3D2B8, symSize: 0x58 }
  - { offset: 0x232B03, size: 0x8, addend: 0x0, symName: __ZN4absl12lts_2024011619RegisterMutexTracerEPFvPKcPKvxE, symObjAddr: 0x80, symBinAddr: 0x3D310, symSize: 0x10 }
  - { offset: 0x232BA6, size: 0x8, addend: 0x0, symName: __ZN4absl12lts_2024011613base_internal10AtomicHookIPFvxEE5StoreES4_.cold.2, symObjAddr: 0x3870, symBinAddr: 0x64360, symSize: 0x24 }
  - { offset: 0x232BD3, size: 0x8, addend: 0x0, symName: __ZN4absl12lts_2024011613base_internal10AtomicHookIPFvxEE5StoreES4_.cold.1, symObjAddr: 0x384C, symBinAddr: 0x6433C, symSize: 0x24 }
  - { offset: 0x232C7F, size: 0x8, addend: 0x0, symName: __ZN4absl12lts_2024011621RegisterCondVarTracerEPFvPKcPKvE, symObjAddr: 0xE8, symBinAddr: 0x3D320, symSize: 0x10 }
  - { offset: 0x232DD4, size: 0x8, addend: 0x0, symName: __ZN4absl12lts_2024011624synchronization_internal10MutexDelayEii, symObjAddr: 0x150, symBinAddr: 0x3D330, symSize: 0xC0 }
  - { offset: 0x232F3E, size: 0x8, addend: 0x0, symName: __ZN4absl12lts_2024011613base_internal15SchedulingGuard12ScopedEnableD1Ev, symObjAddr: 0x210, symBinAddr: 0x3D3F0, symSize: 0x78 }
  - { offset: 0x23300B, size: 0x8, addend: 0x0, symName: __ZN4absl12lts_202401165Mutex17IncrementSynchSemEPS1_PNS0_13base_internal14PerThreadSynchE, symObjAddr: 0x288, symBinAddr: 0x3D468, symSize: 0x8 }
  - { offset: 0x233085, size: 0x8, addend: 0x0, symName: __ZN4absl12lts_202401165Mutex17DecrementSynchSemEPS1_PNS0_13base_internal14PerThreadSynchENS0_24synchronization_internal13KernelTimeoutE, symObjAddr: 0x290, symBinAddr: 0x3D470, symSize: 0x40 }
  - { offset: 0x233142, size: 0x8, addend: 0x0, symName: __ZN4absl12lts_202401165Mutex45InternalAttemptToUseMutexInFatalSignalHandlerEv, symObjAddr: 0x2D0, symBinAddr: 0x3D4B0, symSize: 0x2C }
  - { offset: 0x23315F, size: 0x8, addend: 0x0, symName: __ZN4absl12lts_202401165Mutex17DecrementSynchSemEPS1_PNS0_13base_internal14PerThreadSynchENS0_24synchronization_internal13KernelTimeoutE.cold.1, symObjAddr: 0x3924, symBinAddr: 0x64384, symSize: 0x28 }
  - { offset: 0x2331AD, size: 0x8, addend: 0x0, symName: __ZN4absl12lts_202401165Mutex45InternalAttemptToUseMutexInFatalSignalHandlerEv, symObjAddr: 0x2D0, symBinAddr: 0x3D4B0, symSize: 0x2C }
  - { offset: 0x23323E, size: 0x8, addend: 0x0, symName: __ZN4absl12lts_202401165MutexD2Ev, symObjAddr: 0x2FC, symBinAddr: 0x3D4DC, symSize: 0x28 }
  - { offset: 0x233292, size: 0x8, addend: 0x0, symName: __ZN4absl12lts_202401165Mutex18ForgetDeadlockInfoEv, symObjAddr: 0x360, symBinAddr: 0x3D530, symSize: 0xB8 }
  - { offset: 0x2332BE, size: 0x8, addend: 0x0, symName: __ZN4absl12lts_202401165Mutex18ForgetDeadlockInfoEv, symObjAddr: 0x360, symBinAddr: 0x3D530, symSize: 0xB8 }
  - { offset: 0x2332D9, size: 0x8, addend: 0x0, symName: __ZN4absl12lts_202401165Mutex18ForgetDeadlockInfoEv, symObjAddr: 0x360, symBinAddr: 0x3D530, symSize: 0xB8 }
  - { offset: 0x233456, size: 0x8, addend: 0x0, symName: __ZN4absl12lts_202401165Mutex4DtorEv, symObjAddr: 0x324, symBinAddr: 0x3D504, symSize: 0x4 }
  - { offset: 0x233478, size: 0x8, addend: 0x0, symName: __ZN4absl12lts_202401165Mutex4DtorEv, symObjAddr: 0x324, symBinAddr: 0x3D504, symSize: 0x4 }
  - { offset: 0x2334A8, size: 0x8, addend: 0x0, symName: __ZN4absl12lts_202401165MutexD1Ev, symObjAddr: 0x338, symBinAddr: 0x3D508, symSize: 0x28 }
  - { offset: 0x233661, size: 0x8, addend: 0x0, symName: __ZN4absl12lts_202401165Mutex14EnableDebugLogEPKc, symObjAddr: 0x418, symBinAddr: 0x3D5E8, symSize: 0x40 }
  - { offset: 0x2337FE, size: 0x8, addend: 0x0, symName: __ZN4absl12lts_202401165Mutex24EnableInvariantDebuggingEPFvPvES2_, symObjAddr: 0x768, symBinAddr: 0x3D938, symSize: 0x4C }
  - { offset: 0x23384A, size: 0x8, addend: 0x0, symName: __ZN4absl12lts_202401165Mutex24EnableInvariantDebuggingEPFvPvES2_, symObjAddr: 0x768, symBinAddr: 0x3D938, symSize: 0x4C }
  - { offset: 0x233865, size: 0x8, addend: 0x0, symName: __ZN4absl12lts_202401165Mutex24EnableInvariantDebuggingEPFvPvES2_, symObjAddr: 0x768, symBinAddr: 0x3D938, symSize: 0x4C }
  - { offset: 0x233940, size: 0x8, addend: 0x0, symName: __ZN4absl12lts_202401165Mutex9TryRemoveEPNS0_13base_internal14PerThreadSynchE, symObjAddr: 0x7C4, symBinAddr: 0x3D994, symSize: 0x164 }
  - { offset: 0x23399A, size: 0x8, addend: 0x0, symName: __ZN4absl12lts_202401165Mutex9TryRemoveEPNS0_13base_internal14PerThreadSynchE, symObjAddr: 0x7C4, symBinAddr: 0x3D994, symSize: 0x164 }
  - { offset: 0x2339BC, size: 0x8, addend: 0x0, symName: __ZN4absl12lts_202401165Mutex9TryRemoveEPNS0_13base_internal14PerThreadSynchE, symObjAddr: 0x7C4, symBinAddr: 0x3D994, symSize: 0x164 }
  - { offset: 0x233C2A, size: 0x8, addend: 0x0, symName: __ZN4absl12lts_202401169Condition15GuaranteedEqualEPKS1_S3_, symObjAddr: 0x3380, symBinAddr: 0x3F990, symSize: 0x50 }
  - { offset: 0x233C90, size: 0x8, addend: 0x0, symName: __ZN4absl12lts_202401165Mutex5BlockEPNS0_13base_internal14PerThreadSynchE, symObjAddr: 0x9DC, symBinAddr: 0x3DBAC, symSize: 0xC8 }
  - { offset: 0x233DBE, size: 0x8, addend: 0x0, symName: __ZN4absl12lts_202401165Mutex6WakeupEPNS0_13base_internal14PerThreadSynchE, symObjAddr: 0xAA4, symBinAddr: 0x3DC74, symSize: 0x34 }
  - { offset: 0x233DC9, size: 0x8, addend: 0x0, symName: __ZN4absl12lts_202401165Mutex5BlockEPNS0_13base_internal14PerThreadSynchE.cold.1, symObjAddr: 0x394C, symBinAddr: 0x643AC, symSize: 0x5C }
  - { offset: 0x233E04, size: 0x8, addend: 0x0, symName: __ZN4absl12lts_202401165Mutex6WakeupEPNS0_13base_internal14PerThreadSynchE, symObjAddr: 0xAA4, symBinAddr: 0x3DC74, symSize: 0x34 }
  - { offset: 0x233EFE, size: 0x8, addend: 0x0, symName: __ZNK4absl12lts_202401165Mutex13AssertNotHeldEv, symObjAddr: 0xAD8, symBinAddr: 0x3DCA8, symSize: 0x70 }
  - { offset: 0x234033, size: 0x8, addend: 0x0, symName: __ZN4absl12lts_20240116L10GetGraphIdEPNS0_5MutexE, symObjAddr: 0xB48, symBinAddr: 0x3DD18, symSize: 0xA8 }
  - { offset: 0x234045, size: 0x8, addend: 0x0, symName: __ZNK4absl12lts_202401165Mutex13AssertNotHeldEv.cold.1, symObjAddr: 0x39A8, symBinAddr: 0x64408, symSize: 0x68 }
  - { offset: 0x2340AC, size: 0x8, addend: 0x0, symName: __ZN4absl12lts_202401165Mutex4LockEv, symObjAddr: 0xD3C, symBinAddr: 0x3DF0C, symSize: 0x88 }
  - { offset: 0x234280, size: 0x8, addend: 0x0, symName: __ZN4absl12lts_202401165Mutex4LockEv.cold.1, symObjAddr: 0x3A10, symBinAddr: 0x64470, symSize: 0x54 }
  - { offset: 0x23429B, size: 0x8, addend: 0x0, symName: __ZN4absl12lts_202401165Mutex4LockEv.cold.1, symObjAddr: 0x3A10, symBinAddr: 0x64470, symSize: 0x54 }
  - { offset: 0x2342B9, size: 0x8, addend: 0x0, symName: __ZN4absl12lts_202401165Mutex4LockEv.cold.1, symObjAddr: 0x3A10, symBinAddr: 0x64470, symSize: 0x54 }
  - { offset: 0x2342D4, size: 0x8, addend: 0x0, symName: __ZN4absl12lts_202401165Mutex4LockEv.cold.1, symObjAddr: 0x3A10, symBinAddr: 0x64470, symSize: 0x54 }
  - { offset: 0x234566, size: 0x8, addend: 0x0, symName: __ZN4absl12lts_202401165Mutex8LockSlowEPKNS0_6MuHowSEPKNS0_9ConditionEi, symObjAddr: 0x1260, symBinAddr: 0x6377C, symSize: 0xD0 }
  - { offset: 0x234688, size: 0x8, addend: 0x0, symName: __ZN4absl12lts_202401165Mutex10ReaderLockEv, symObjAddr: 0x1330, symBinAddr: 0x3E430, symSize: 0xA4 }
  - { offset: 0x23469B, size: 0x8, addend: 0x0, symName: __ZN4absl12lts_202401165Mutex20LockSlowWithDeadlineEPKNS0_6MuHowSEPKNS0_9ConditionENS0_24synchronization_internal13KernelTimeoutEi, symObjAddr: 0x146C, symBinAddr: 0x3E56C, symSize: 0x144 }
  - { offset: 0x2349E2, size: 0x8, addend: 0x0, symName: __ZN4absl12lts_202401165Mutex10ReaderLockEv, symObjAddr: 0x1330, symBinAddr: 0x3E430, symSize: 0xA4 }
  - { offset: 0x234B66, size: 0x8, addend: 0x0, symName: __ZN4absl12lts_202401165Mutex10ReaderLockEv.cold.1, symObjAddr: 0x3A64, symBinAddr: 0x644C4, symSize: 0xC }
  - { offset: 0x234B7E, size: 0x8, addend: 0x0, symName: __ZN4absl12lts_202401165Mutex14LockWhenCommonERKNS0_9ConditionENS0_24synchronization_internal13KernelTimeoutEb, symObjAddr: 0x13D4, symBinAddr: 0x3E4D4, symSize: 0x98 }
  - { offset: 0x234DA3, size: 0x8, addend: 0x0, symName: __ZN4absl12lts_202401165Mutex12LockSlowLoopEPNS0_15SynchWaitParamsEi, symObjAddr: 0x1F64, symBinAddr: 0x3E7BC, symSize: 0x354 }
  - { offset: 0x23546C, size: 0x8, addend: 0x0, symName: __ZN4absl12lts_202401165Mutex7TryLockEv, symObjAddr: 0x22B8, symBinAddr: 0x640F4, symSize: 0xA0 }
  - { offset: 0x235477, size: 0x8, addend: 0x0, symName: __ZN4absl12lts_202401165Mutex10UnlockSlowEPNS0_15SynchWaitParamsE, symObjAddr: 0x16BC, symBinAddr: 0x6384C, symSize: 0x8A8 }
  - { offset: 0x235FFF, size: 0x8, addend: 0x0, symName: __ZN4absl12lts_202401165Mutex12LockSlowLoopEPNS0_15SynchWaitParamsEi, symObjAddr: 0x1F64, symBinAddr: 0x3E7BC, symSize: 0x354 }
  - { offset: 0x236012, size: 0x8, addend: 0x0, symName: __ZN4absl12lts_202401165Mutex11AwaitCommonERKNS0_9ConditionENS0_24synchronization_internal13KernelTimeoutE, symObjAddr: 0x15B0, symBinAddr: 0x3E6B0, symSize: 0xE4 }
  - { offset: 0x2362BE, size: 0x8, addend: 0x0, symName: __ZNK4absl12lts_202401165Mutex16AssertReaderHeldEv, symObjAddr: 0x1694, symBinAddr: 0x3E794, symSize: 0x20 }
  - { offset: 0x2362C9, size: 0x8, addend: 0x0, symName: __ZNK4absl12lts_202401165Mutex16AssertReaderHeldEv, symObjAddr: 0x1694, symBinAddr: 0x3E794, symSize: 0x20 }
  - { offset: 0x2362F5, size: 0x8, addend: 0x0, symName: __ZNK4absl12lts_202401165Mutex16AssertReaderHeldEv, symObjAddr: 0x1694, symBinAddr: 0x3E794, symSize: 0x20 }
  - { offset: 0x236317, size: 0x8, addend: 0x0, symName: __ZNK4absl12lts_202401165Mutex16AssertReaderHeldEv, symObjAddr: 0x1694, symBinAddr: 0x3E794, symSize: 0x20 }
  - { offset: 0x236354, size: 0x8, addend: 0x0, symName: __ZNK4absl12lts_202401169Condition4EvalEv, symObjAddr: 0x16B4, symBinAddr: 0x3E7B4, symSize: 0x8 }
  - { offset: 0x23635F, size: 0x8, addend: 0x0, symName: __ZN4absl12lts_202401165Mutex11AwaitCommonERKNS0_9ConditionENS0_24synchronization_internal13KernelTimeoutE.cold.1, symObjAddr: 0x3A70, symBinAddr: 0x644D0, symSize: 0x5C }
  - { offset: 0x236377, size: 0x8, addend: 0x0, symName: __ZNK4absl12lts_202401165Mutex16AssertReaderHeldEv.cold.1, symObjAddr: 0x3ACC, symBinAddr: 0x6452C, symSize: 0x68 }
  - { offset: 0x2363AE, size: 0x8, addend: 0x0, symName: __ZNK4absl12lts_202401169Condition4EvalEv, symObjAddr: 0x16B4, symBinAddr: 0x3E7B4, symSize: 0x8 }
  - { offset: 0x236577, size: 0x8, addend: 0x0, symName: _OUTLINED_FUNCTION_0, symObjAddr: 0x42E0, symBinAddr: 0x3FE14, symSize: 0x10 }
  - { offset: 0x23658F, size: 0x8, addend: 0x0, symName: __ZN4absl12lts_202401165Mutex12LockSlowLoopEPNS0_15SynchWaitParamsEi.cold.4, symObjAddr: 0x3C48, symBinAddr: 0x646A8, symSize: 0x5C }
  - { offset: 0x2365A7, size: 0x8, addend: 0x0, symName: __ZN4absl12lts_202401165Mutex12LockSlowLoopEPNS0_15SynchWaitParamsEi.cold.3, symObjAddr: 0x3BEC, symBinAddr: 0x6464C, symSize: 0x5C }
  - { offset: 0x2365BF, size: 0x8, addend: 0x0, symName: __ZN4absl12lts_202401165Mutex12LockSlowLoopEPNS0_15SynchWaitParamsEi.cold.2, symObjAddr: 0x3B90, symBinAddr: 0x645F0, symSize: 0x5C }
  - { offset: 0x2365D7, size: 0x8, addend: 0x0, symName: __ZN4absl12lts_202401165Mutex12LockSlowLoopEPNS0_15SynchWaitParamsEi.cold.1, symObjAddr: 0x3B34, symBinAddr: 0x64594, symSize: 0x5C }
  - { offset: 0x2365EF, size: 0x8, addend: 0x0, symName: __ZN4absl12lts_202401165Mutex12LockSlowLoopEPNS0_15SynchWaitParamsEi.cold.5, symObjAddr: 0x3CA4, symBinAddr: 0x64704, symSize: 0x5C }
  - { offset: 0x236607, size: 0x8, addend: 0x0, symName: __ZN4absl12lts_202401165Mutex7TryLockEv, symObjAddr: 0x22B8, symBinAddr: 0x640F4, symSize: 0xA0 }
  - { offset: 0x236785, size: 0x8, addend: 0x0, symName: __ZN4absl12lts_202401165Mutex11TryLockSlowEv, symObjAddr: 0x2358, symBinAddr: 0x3EB10, symSize: 0xA0 }
  - { offset: 0x236968, size: 0x8, addend: 0x0, symName: __ZN4absl12lts_202401165Mutex13ReaderTryLockEv, symObjAddr: 0x2584, symBinAddr: 0x3ED3C, symSize: 0xCC }
  - { offset: 0x236B00, size: 0x8, addend: 0x0, symName: __ZN4absl12lts_202401165Mutex17ReaderTryLockSlowEv, symObjAddr: 0x2650, symBinAddr: 0x3EE08, symSize: 0xB8 }
  - { offset: 0x236CA3, size: 0x8, addend: 0x0, symName: __ZN4absl12lts_202401165Mutex6UnlockEv, symObjAddr: 0x2708, symBinAddr: 0x3EEC0, symSize: 0xA4 }
  - { offset: 0x236E20, size: 0x8, addend: 0x0, symName: __ZN4absl12lts_20240116L18DebugOnlyLockLeaveEPNS0_5MutexE, symObjAddr: 0x27AC, symBinAddr: 0x3EF64, symSize: 0xE8 }
  - { offset: 0x236E2B, size: 0x8, addend: 0x0, symName: __ZN4absl12lts_202401165Mutex6UnlockEv.cold.1, symObjAddr: 0x3D00, symBinAddr: 0x64760, symSize: 0x4C }
  - { offset: 0x236E43, size: 0x8, addend: 0x0, symName: __ZN4absl12lts_202401165Mutex6UnlockEv.cold.2, symObjAddr: 0x3D4C, symBinAddr: 0x647AC, symSize: 0x50 }
  - { offset: 0x236E7C, size: 0x8, addend: 0x0, symName: __ZN4absl12lts_20240116L18DebugOnlyLockLeaveEPNS0_5MutexE.cold.2, symObjAddr: 0x3DC4, symBinAddr: 0x64824, symSize: 0x68 }
  - { offset: 0x236EC2, size: 0x8, addend: 0x0, symName: __ZN4absl12lts_20240116L18DebugOnlyLockLeaveEPNS0_5MutexE.cold.1, symObjAddr: 0x3D9C, symBinAddr: 0x647FC, symSize: 0x28 }
  - { offset: 0x236EF0, size: 0x8, addend: 0x0, symName: __ZN4absl12lts_202401165Mutex12ReaderUnlockEv, symObjAddr: 0x2894, symBinAddr: 0x3F04C, symSize: 0xC0 }
  - { offset: 0x23702A, size: 0x8, addend: 0x0, symName: __ZN4absl12lts_20240116L16ExactlyOneReaderEl, symObjAddr: 0x2954, symBinAddr: 0x3F10C, symSize: 0x38 }
  - { offset: 0x237035, size: 0x8, addend: 0x0, symName: __ZN4absl12lts_202401165Mutex12ReaderUnlockEv.cold.1, symObjAddr: 0x3E2C, symBinAddr: 0x6488C, symSize: 0x28 }
  - { offset: 0x23704D, size: 0x8, addend: 0x0, symName: __ZN4absl12lts_20240116L16ExactlyOneReaderEl.cold.1, symObjAddr: 0x3E54, symBinAddr: 0x648B4, symSize: 0x28 }
  - { offset: 0x237065, size: 0x8, addend: 0x0, symName: __ZN4absl12lts_20240116L16ExactlyOneReaderEl.cold.2, symObjAddr: 0x3E7C, symBinAddr: 0x648DC, symSize: 0x28 }
  - { offset: 0x23707D, size: 0x8, addend: 0x0, symName: __ZN4absl12lts_20240116L23CheckForMutexCorruptionElPKc.cold.1, symObjAddr: 0x3EA4, symBinAddr: 0x64904, symSize: 0xCC }
  - { offset: 0x237186, size: 0x8, addend: 0x0, symName: __ZN4absl12lts_20240116L7EnqueueEPNS0_13base_internal14PerThreadSynchEPNS0_15SynchWaitParamsEli.cold.1, symObjAddr: 0x3F70, symBinAddr: 0x649D0, symSize: 0x5C }
  - { offset: 0x2371B4, size: 0x8, addend: 0x0, symName: __ZN4absl12lts_20240116L7EnqueueEPNS0_13base_internal14PerThreadSynchEPNS0_15SynchWaitParamsEli.cold.2, symObjAddr: 0x3FCC, symBinAddr: 0x64A2C, symSize: 0x5C }
  - { offset: 0x2371CC, size: 0x8, addend: 0x0, symName: __ZN4absl12lts_20240116L7EnqueueEPNS0_13base_internal14PerThreadSynchEPNS0_15SynchWaitParamsEli.cold.3, symObjAddr: 0x4028, symBinAddr: 0x64A88, symSize: 0x28 }
  - { offset: 0x2371E4, size: 0x8, addend: 0x0, symName: __ZN4absl12lts_20240116L7EnqueueEPNS0_13base_internal14PerThreadSynchEPNS0_15SynchWaitParamsEli.cold.4, symObjAddr: 0x4050, symBinAddr: 0x64AB0, symSize: 0x5C }
  - { offset: 0x2371FC, size: 0x8, addend: 0x0, symName: __ZN4absl12lts_202401165Mutex5TransEPKNS0_6MuHowSE, symObjAddr: 0x2CF0, symBinAddr: 0x64194, symSize: 0xC }
  - { offset: 0x237280, size: 0x8, addend: 0x0, symName: __ZN4absl12lts_202401165Mutex3FerEPNS0_13base_internal14PerThreadSynchE, symObjAddr: 0x2CFC, symBinAddr: 0x3F4A8, symSize: 0x19C }
  - { offset: 0x23765F, size: 0x8, addend: 0x0, symName: __ZNK4absl12lts_202401165Mutex10AssertHeldEv, symObjAddr: 0x2E98, symBinAddr: 0x3F644, symSize: 0x18 }
  - { offset: 0x23766A, size: 0x8, addend: 0x0, symName: __ZN4absl12lts_202401165Mutex3FerEPNS0_13base_internal14PerThreadSynchE.cold.1, symObjAddr: 0x40AC, symBinAddr: 0x64B0C, symSize: 0x5C }
  - { offset: 0x237682, size: 0x8, addend: 0x0, symName: __ZN4absl12lts_202401165Mutex3FerEPNS0_13base_internal14PerThreadSynchE.cold.2, symObjAddr: 0x4108, symBinAddr: 0x64B68, symSize: 0x5C }
  - { offset: 0x23769A, size: 0x8, addend: 0x0, symName: __ZN4absl12lts_202401165Mutex3FerEPNS0_13base_internal14PerThreadSynchE.cold.4, symObjAddr: 0x41C0, symBinAddr: 0x64C20, symSize: 0x5C }
  - { offset: 0x2376B2, size: 0x8, addend: 0x0, symName: __ZN4absl12lts_202401165Mutex3FerEPNS0_13base_internal14PerThreadSynchE.cold.3, symObjAddr: 0x4164, symBinAddr: 0x64BC4, symSize: 0x5C }
  - { offset: 0x2376CA, size: 0x8, addend: 0x0, symName: __ZNK4absl12lts_202401165Mutex10AssertHeldEv, symObjAddr: 0x2E98, symBinAddr: 0x3F644, symSize: 0x18 }
  - { offset: 0x2376F6, size: 0x8, addend: 0x0, symName: __ZNK4absl12lts_202401165Mutex10AssertHeldEv, symObjAddr: 0x2E98, symBinAddr: 0x3F644, symSize: 0x18 }
  - { offset: 0x237718, size: 0x8, addend: 0x0, symName: __ZNK4absl12lts_202401165Mutex10AssertHeldEv, symObjAddr: 0x2E98, symBinAddr: 0x3F644, symSize: 0x18 }
  - { offset: 0x237755, size: 0x8, addend: 0x0, symName: __ZN4absl12lts_202401167CondVar14EnableDebugLogEPKc, symObjAddr: 0x2EB0, symBinAddr: 0x3F65C, symSize: 0x2C }
  - { offset: 0x237760, size: 0x8, addend: 0x0, symName: __ZNK4absl12lts_202401165Mutex10AssertHeldEv.cold.1, symObjAddr: 0x421C, symBinAddr: 0x64C7C, symSize: 0x68 }
  - { offset: 0x2377AD, size: 0x8, addend: 0x0, symName: __ZN4absl12lts_202401167CondVar14EnableDebugLogEPKc, symObjAddr: 0x2EB0, symBinAddr: 0x3F65C, symSize: 0x2C }
  - { offset: 0x23782A, size: 0x8, addend: 0x0, symName: __ZN4absl12lts_202401167CondVar6RemoveEPNS0_13base_internal14PerThreadSynchE, symObjAddr: 0x2EDC, symBinAddr: 0x3F688, symSize: 0xAC }
  - { offset: 0x237B31, size: 0x8, addend: 0x0, symName: __ZN4absl12lts_202401167CondVar10WaitCommonEPNS0_5MutexENS0_24synchronization_internal13KernelTimeoutE, symObjAddr: 0x2F88, symBinAddr: 0x641A0, symSize: 0x19C }
  - { offset: 0x237F84, size: 0x8, addend: 0x0, symName: __ZN4absl12lts_202401167CondVar6SignalEv, symObjAddr: 0x3124, symBinAddr: 0x3F734, symSize: 0xD8 }
  - { offset: 0x237F97, size: 0x8, addend: 0x0, symName: _OUTLINED_FUNCTION_5, symObjAddr: 0x4314, symBinAddr: 0x3FE48, symSize: 0x14 }
  - { offset: 0x238004, size: 0x8, addend: 0x0, symName: __ZN4absl12lts_202401167CondVar6SignalEv, symObjAddr: 0x3124, symBinAddr: 0x3F734, symSize: 0xD8 }
  - { offset: 0x2382ED, size: 0x8, addend: 0x0, symName: __ZN4absl12lts_202401167CondVar9SignalAllEv, symObjAddr: 0x31FC, symBinAddr: 0x3F80C, symSize: 0xD8 }
  - { offset: 0x23855B, size: 0x8, addend: 0x0, symName: __ZN4absl12lts_2024011619ReleasableMutexLock7ReleaseEv, symObjAddr: 0x32D4, symBinAddr: 0x3F8E4, symSize: 0x30 }
  - { offset: 0x2385AE, size: 0x8, addend: 0x0, symName: __ZN4absl12lts_202401169Condition10AlwaysTrueEPKS1_, symObjAddr: 0x3304, symBinAddr: 0x3F914, symSize: 0x8 }
  - { offset: 0x2385B9, size: 0x8, addend: 0x0, symName: __ZN4absl12lts_2024011619ReleasableMutexLock7ReleaseEv.cold.1, symObjAddr: 0x4284, symBinAddr: 0x64CE4, symSize: 0x5C }
  - { offset: 0x2385D1, size: 0x8, addend: 0x0, symName: __ZN4absl12lts_202401169Condition10AlwaysTrueEPKS1_, symObjAddr: 0x3304, symBinAddr: 0x3F914, symSize: 0x8 }
  - { offset: 0x2385F2, size: 0x8, addend: 0x0, symName: __ZN4absl12lts_202401169ConditionC2EPFbPvES2_, symObjAddr: 0x330C, symBinAddr: 0x3F91C, symSize: 0x14 }
  - { offset: 0x238620, size: 0x8, addend: 0x0, symName: __ZN4absl12lts_202401169Condition19CallVoidPtrFunctionEPKS1_, symObjAddr: 0x3320, symBinAddr: 0x3F930, symSize: 0xC }
  - { offset: 0x2386AA, size: 0x8, addend: 0x0, symName: __ZN4absl12lts_202401169ConditionC1EPFbPvES2_, symObjAddr: 0x332C, symBinAddr: 0x3F93C, symSize: 0x14 }
  - { offset: 0x2386F4, size: 0x8, addend: 0x0, symName: __ZN4absl12lts_202401169ConditionC1EPFbPvES2_, symObjAddr: 0x332C, symBinAddr: 0x3F93C, symSize: 0x14 }
  - { offset: 0x238748, size: 0x8, addend: 0x0, symName: __ZN4absl12lts_202401169ConditionC2EPKb, symObjAddr: 0x3340, symBinAddr: 0x3F950, symSize: 0x1C }
  - { offset: 0x2387E8, size: 0x8, addend: 0x0, symName: __ZN4absl12lts_202401169ConditionC1EPKb, symObjAddr: 0x3364, symBinAddr: 0x3F974, symSize: 0x1C }
  - { offset: 0x238824, size: 0x8, addend: 0x0, symName: __ZN4absl12lts_202401169ConditionC1EPKb, symObjAddr: 0x3364, symBinAddr: 0x3F974, symSize: 0x1C }
  - { offset: 0x238863, size: 0x8, addend: 0x0, symName: __ZN4absl12lts_2024011613base_internal10AtomicHookIPFvxEE13DummyFunctionEx, symObjAddr: 0x33D0, symBinAddr: 0x3F9E0, symSize: 0x4 }
  - { offset: 0x238882, size: 0x8, addend: 0x0, symName: __ZN4absl12lts_2024011613base_internal10AtomicHookIPFvPKcPKvxEE13DummyFunctionES4_S6_x, symObjAddr: 0x33D4, symBinAddr: 0x3F9E4, symSize: 0x4 }
  - { offset: 0x2388B5, size: 0x8, addend: 0x0, symName: __ZN4absl12lts_2024011613base_internal10AtomicHookIPFvPKcPKvEE13DummyFunctionES4_S6_, symObjAddr: 0x33D8, symBinAddr: 0x3F9E8, symSize: 0x4 }
  - { offset: 0x2389FF, size: 0x8, addend: 0x0, symName: _OUTLINED_FUNCTION_1, symObjAddr: 0x42F0, symBinAddr: 0x3FE24, symSize: 0x8 }
  - { offset: 0x238A17, size: 0x8, addend: 0x0, symName: _OUTLINED_FUNCTION_2, symObjAddr: 0x42F8, symBinAddr: 0x3FE2C, symSize: 0x8 }
  - { offset: 0x238A2F, size: 0x8, addend: 0x0, symName: _OUTLINED_FUNCTION_3, symObjAddr: 0x4300, symBinAddr: 0x3FE34, symSize: 0x8 }
  - { offset: 0x238A47, size: 0x8, addend: 0x0, symName: _OUTLINED_FUNCTION_4, symObjAddr: 0x4308, symBinAddr: 0x3FE3C, symSize: 0xC }
  - { offset: 0x23BAA0, size: 0x8, addend: 0x0, symName: __ZN4absl12lts_2024011612Notification6NotifyEv, symObjAddr: 0x0, symBinAddr: 0x3FE5C, symSize: 0xA4 }
  - { offset: 0x23BC57, size: 0x8, addend: 0x0, symName: __ZN4absl12lts_2024011612NotificationD2Ev, symObjAddr: 0xA4, symBinAddr: 0x3FF00, symSize: 0x34 }
  - { offset: 0x23BCED, size: 0x8, addend: 0x0, symName: __ZN4absl12lts_2024011612NotificationD1Ev, symObjAddr: 0xE8, symBinAddr: 0x3FF34, symSize: 0x4 }
  - { offset: 0x23BD1A, size: 0x8, addend: 0x0, symName: __ZN4absl12lts_2024011612NotificationD1Ev, symObjAddr: 0xE8, symBinAddr: 0x3FF34, symSize: 0x4 }
  - { offset: 0x23BE19, size: 0x8, addend: 0x0, symName: __ZNK4absl12lts_2024011612Notification19WaitForNotificationEv, symObjAddr: 0xEC, symBinAddr: 0x3FF38, symSize: 0x8C }
  - { offset: 0x23BF47, size: 0x8, addend: 0x0, symName: __ZN4absl12lts_2024011612Notification23HasBeenNotifiedInternalEPKNSt3__16atomicIbEE, symObjAddr: 0x178, symBinAddr: 0x3FFC4, symSize: 0xC }
  - { offset: 0x23BF67, size: 0x8, addend: 0x0, symName: __ZN4absl12lts_2024011612Notification23HasBeenNotifiedInternalEPKNSt3__16atomicIbEE, symObjAddr: 0x178, symBinAddr: 0x3FFC4, symSize: 0xC }
  - { offset: 0x23BF88, size: 0x8, addend: 0x0, symName: __ZN4absl12lts_2024011612Notification23HasBeenNotifiedInternalEPKNSt3__16atomicIbEE, symObjAddr: 0x178, symBinAddr: 0x3FFC4, symSize: 0xC }
  - { offset: 0x23BFD7, size: 0x8, addend: 0x0, symName: __ZNK4absl12lts_2024011612Notification30WaitForNotificationWithTimeoutENS0_8DurationE, symObjAddr: 0x184, symBinAddr: 0x3FFD0, symSize: 0xAC }
  - { offset: 0x23C15A, size: 0x8, addend: 0x0, symName: __ZNK4absl12lts_2024011612Notification31WaitForNotificationWithDeadlineENS0_4TimeE, symObjAddr: 0x230, symBinAddr: 0x4007C, symSize: 0xAC }
  - { offset: 0x23C2DF, size: 0x8, addend: 0x0, symName: __ZN4absl12lts_202401169Condition19CastAndCallFunctionIKNSt3__16atomicIbEEEEbPKS1_, symObjAddr: 0x2DC, symBinAddr: 0x40128, symSize: 0xC }
  - { offset: 0x23C326, size: 0x8, addend: 0x0, symName: __ZN4absl12lts_202401169Condition19CastAndCallFunctionIKNSt3__16atomicIbEEEEbPKS1_, symObjAddr: 0x2DC, symBinAddr: 0x40128, symSize: 0xC }
  - { offset: 0x23E235, size: 0x8, addend: 0x0, symName: __ZN4absl12lts_2024011612log_internal9kCharNullE, symObjAddr: 0x0, symBinAddr: 0x6B8D4, symSize: 0x0 }
  - { offset: 0x23E24F, size: 0x8, addend: 0x0, symName: __ZN4absl12lts_2024011612log_internal15kSignedCharNullE, symObjAddr: 0x7, symBinAddr: 0x6B8DB, symSize: 0x0 }
  - { offset: 0x23E269, size: 0x8, addend: 0x0, symName: __ZN4absl12lts_2024011612log_internal17kUnsignedCharNullE, symObjAddr: 0xE, symBinAddr: 0x6B8E2, symSize: 0x0 }
  - { offset: 0x241647, size: 0x8, addend: 0x0, symName: __ZN4absl12lts_2024011610SimpleAtofENS0_11string_viewEPf, symObjAddr: 0x0, symBinAddr: 0x40134, symSize: 0x13C }
  - { offset: 0x2416E9, size: 0x8, addend: 0x0, symName: __ZN4absl12lts_2024011612_GLOBAL__N_112LookupTablesIiE13kVmaxOverBaseE, symObjAddr: 0x2C38, symBinAddr: 0x6BD38, symSize: 0x0 }
  - { offset: 0x241732, size: 0x8, addend: 0x0, symName: __ZN4absl12lts_2024011612_GLOBAL__N_111kAsciiToIntE, symObjAddr: 0x2B38, symBinAddr: 0x6BC38, symSize: 0x0 }
  - { offset: 0x24174A, size: 0x8, addend: 0x0, symName: __ZN4absl12lts_2024011612_GLOBAL__N_112LookupTablesIiE13kVminOverBaseE, symObjAddr: 0x2CCC, symBinAddr: 0x6BDCC, symSize: 0x0 }
  - { offset: 0x241762, size: 0x8, addend: 0x0, symName: __ZN4absl12lts_2024011612_GLOBAL__N_112LookupTablesIxE13kVmaxOverBaseE, symObjAddr: 0x2D60, symBinAddr: 0x6BE60, symSize: 0x0 }
  - { offset: 0x2417A8, size: 0x8, addend: 0x0, symName: __ZN4absl12lts_2024011612_GLOBAL__N_112LookupTablesIxE13kVminOverBaseE, symObjAddr: 0x2E88, symBinAddr: 0x6BF88, symSize: 0x0 }
  - { offset: 0x2417C0, size: 0x8, addend: 0x0, symName: __ZN4absl12lts_2024011612_GLOBAL__N_112LookupTablesINS0_6int128EE13kVmaxOverBaseE, symObjAddr: 0x2FB0, symBinAddr: 0x6C0B0, symSize: 0x0 }
  - { offset: 0x241806, size: 0x8, addend: 0x0, symName: __ZN4absl12lts_2024011612_GLOBAL__N_112LookupTablesINS0_6int128EE13kVminOverBaseE, symObjAddr: 0x3200, symBinAddr: 0x6C300, symSize: 0x0 }
  - { offset: 0x24181E, size: 0x8, addend: 0x0, symName: __ZN4absl12lts_2024011612_GLOBAL__N_112LookupTablesIjE13kVmaxOverBaseE, symObjAddr: 0x3450, symBinAddr: 0x6C550, symSize: 0x0 }
  - { offset: 0x241864, size: 0x8, addend: 0x0, symName: __ZN4absl12lts_2024011612_GLOBAL__N_112LookupTablesIyE13kVmaxOverBaseE, symObjAddr: 0x34E8, symBinAddr: 0x6C5E8, symSize: 0x0 }
  - { offset: 0x2418AA, size: 0x8, addend: 0x0, symName: __ZN4absl12lts_2024011612_GLOBAL__N_112LookupTablesINS0_7uint128EE13kVmaxOverBaseE, symObjAddr: 0x3610, symBinAddr: 0x6C710, symSize: 0x0 }
  - { offset: 0x24193F, size: 0x8, addend: 0x0, symName: __ZN4absl12lts_2024011612_GLOBAL__N_125DoFastIntToBufferBackwardIjPcEENSt3__19enable_ifIXsr3std11is_unsignedIT_EE5valueET0_E4typeES6_S7_j, symObjAddr: 0x784, symBinAddr: 0x408B8, symSize: 0x164 }
  - { offset: 0x24198E, size: 0x8, addend: 0x0, symName: __ZN4absl12lts_2024011612_GLOBAL__N_125DoFastIntToBufferBackwardIjPcEENSt3__19enable_ifIXsr3std11is_unsignedIT_EE5valueET0_E4typeES6_S7_j, symObjAddr: 0x784, symBinAddr: 0x408B8, symSize: 0x164 }
  - { offset: 0x241D60, size: 0x8, addend: 0x0, symName: __ZN4absl12lts_2024011612_GLOBAL__N_125DoFastIntToBufferBackwardIyPcEENSt3__19enable_ifIXsr3std11is_unsignedIT_EE5valueET0_E4typeES6_S7_j, symObjAddr: 0x8E8, symBinAddr: 0x40A1C, symSize: 0x208 }
  - { offset: 0x241DAF, size: 0x8, addend: 0x0, symName: __ZN4absl12lts_2024011612_GLOBAL__N_125DoFastIntToBufferBackwardIyPcEENSt3__19enable_ifIXsr3std11is_unsignedIT_EE5valueET0_E4typeES6_S7_j, symObjAddr: 0x8E8, symBinAddr: 0x40A1C, symSize: 0x208 }
  - { offset: 0x242A44, size: 0x8, addend: 0x0, symName: __ZN4absl12lts_2024011612_GLOBAL__N_124safe_parse_sign_and_baseEPNS0_11string_viewEPiPb, symObjAddr: 0x2098, symBinAddr: 0x42118, symSize: 0x19C }
  - { offset: 0x242B94, size: 0x8, addend: 0x0, symName: __ZN4absl12lts_2024011610SimpleAtobENS0_11string_viewEPb.cold.1, symObjAddr: 0x2234, symBinAddr: 0x64DB8, symSize: 0x5C }
  - { offset: 0x243178, size: 0x8, addend: 0x0, symName: __ZN4absl12lts_2024011616numbers_internal8kHexCharE, symObjAddr: 0x28F0, symBinAddr: 0x6B9F0, symSize: 0x0 }
  - { offset: 0x243193, size: 0x8, addend: 0x0, symName: __ZN4absl12lts_2024011616numbers_internal9kHexTableE, symObjAddr: 0x2901, symBinAddr: 0x6BA01, symSize: 0x0 }
  - { offset: 0x2431A1, size: 0x8, addend: 0x0, symName: __ZN4absl12lts_2024011616numbers_internal12PutTwoDigitsEjPc, symObjAddr: 0x3E8, symBinAddr: 0x4051C, symSize: 0x40 }
  - { offset: 0x24325E, size: 0x8, addend: 0x0, symName: __ZN4absl12lts_2024011616numbers_internal15FastIntToBufferEjPc, symObjAddr: 0x428, symBinAddr: 0x4055C, symSize: 0xB4 }
  - { offset: 0x2432D9, size: 0x8, addend: 0x0, symName: __ZN4absl12lts_2024011616numbers_internal15FastIntToBufferEjPc, symObjAddr: 0x428, symBinAddr: 0x4055C, symSize: 0xB4 }
  - { offset: 0x24337C, size: 0x8, addend: 0x0, symName: __ZN4absl12lts_2024011616numbers_internal23FastIntToBufferBackwardEjPcj, symObjAddr: 0x4DC, symBinAddr: 0x40610, symSize: 0x4 }
  - { offset: 0x2433A8, size: 0x8, addend: 0x0, symName: __ZN4absl12lts_2024011616numbers_internal23FastIntToBufferBackwardEjPcj, symObjAddr: 0x4DC, symBinAddr: 0x40610, symSize: 0x4 }
  - { offset: 0x24341C, size: 0x8, addend: 0x0, symName: __ZN4absl12lts_2024011616numbers_internal15FastIntToBufferEiPc, symObjAddr: 0x4E0, symBinAddr: 0x40614, symSize: 0xD0 }
  - { offset: 0x2434ED, size: 0x8, addend: 0x0, symName: __ZN4absl12lts_2024011616numbers_internal23FastIntToBufferBackwardEiPcj, symObjAddr: 0x5B0, symBinAddr: 0x406E4, symSize: 0x20 }
  - { offset: 0x24351B, size: 0x8, addend: 0x0, symName: __ZN4absl12lts_2024011616numbers_internal23FastIntToBufferBackwardEiPcj, symObjAddr: 0x5B0, symBinAddr: 0x406E4, symSize: 0x20 }
  - { offset: 0x2435E0, size: 0x8, addend: 0x0, symName: __ZN4absl12lts_2024011616numbers_internal15FastIntToBufferEyPc, symObjAddr: 0x5D0, symBinAddr: 0x40704, symSize: 0xBC }
  - { offset: 0x243683, size: 0x8, addend: 0x0, symName: __ZN4absl12lts_2024011616numbers_internal23FastIntToBufferBackwardEyPcj, symObjAddr: 0x68C, symBinAddr: 0x407C0, symSize: 0x4 }
  - { offset: 0x2436AF, size: 0x8, addend: 0x0, symName: __ZN4absl12lts_2024011616numbers_internal23FastIntToBufferBackwardEyPcj, symObjAddr: 0x68C, symBinAddr: 0x407C0, symSize: 0x4 }
  - { offset: 0x243723, size: 0x8, addend: 0x0, symName: __ZN4absl12lts_2024011616numbers_internal15FastIntToBufferExPc, symObjAddr: 0x690, symBinAddr: 0x407C4, symSize: 0xD4 }
  - { offset: 0x2437F4, size: 0x8, addend: 0x0, symName: __ZN4absl12lts_2024011616numbers_internal23FastIntToBufferBackwardExPcj, symObjAddr: 0x764, symBinAddr: 0x40898, symSize: 0x20 }
  - { offset: 0x243822, size: 0x8, addend: 0x0, symName: __ZN4absl12lts_2024011616numbers_internal23FastIntToBufferBackwardExPcj, symObjAddr: 0x764, symBinAddr: 0x40898, symSize: 0x20 }
  - { offset: 0x2438D6, size: 0x8, addend: 0x0, symName: __ZN4absl12lts_2024011616numbers_internal32GetNumDigitsOrNegativeIfNegativeEa, symObjAddr: 0xAF0, symBinAddr: 0x40C24, symSize: 0x28 }
  - { offset: 0x243908, size: 0x8, addend: 0x0, symName: __ZN4absl12lts_2024011616numbers_internal32GetNumDigitsOrNegativeIfNegativeEa, symObjAddr: 0xAF0, symBinAddr: 0x40C24, symSize: 0x28 }
  - { offset: 0x24393C, size: 0x8, addend: 0x0, symName: __ZN4absl12lts_2024011616numbers_internal32GetNumDigitsOrNegativeIfNegativeEa, symObjAddr: 0xAF0, symBinAddr: 0x40C24, symSize: 0x28 }
  - { offset: 0x243985, size: 0x8, addend: 0x0, symName: __ZN4absl12lts_2024011616numbers_internal32GetNumDigitsOrNegativeIfNegativeEh, symObjAddr: 0xB18, symBinAddr: 0x40C4C, symSize: 0x1C }
  - { offset: 0x2439B7, size: 0x8, addend: 0x0, symName: __ZN4absl12lts_2024011616numbers_internal32GetNumDigitsOrNegativeIfNegativeEh, symObjAddr: 0xB18, symBinAddr: 0x40C4C, symSize: 0x1C }
  - { offset: 0x2439D3, size: 0x8, addend: 0x0, symName: __ZN4absl12lts_2024011616numbers_internal32GetNumDigitsOrNegativeIfNegativeEh, symObjAddr: 0xB18, symBinAddr: 0x40C4C, symSize: 0x1C }
  - { offset: 0x243A5D, size: 0x8, addend: 0x0, symName: __ZN4absl12lts_2024011616numbers_internal32GetNumDigitsOrNegativeIfNegativeEs, symObjAddr: 0xB34, symBinAddr: 0x64D40, symSize: 0x44 }
  - { offset: 0x243A8F, size: 0x8, addend: 0x0, symName: __ZN4absl12lts_2024011616numbers_internal32GetNumDigitsOrNegativeIfNegativeEs, symObjAddr: 0xB34, symBinAddr: 0x64D40, symSize: 0x44 }
  - { offset: 0x243AC3, size: 0x8, addend: 0x0, symName: __ZN4absl12lts_2024011616numbers_internal32GetNumDigitsOrNegativeIfNegativeEs, symObjAddr: 0xB34, symBinAddr: 0x64D40, symSize: 0x44 }
  - { offset: 0x243B0A, size: 0x8, addend: 0x0, symName: __ZN4absl12lts_2024011616numbers_internal32GetNumDigitsOrNegativeIfNegativeEt, symObjAddr: 0xB78, symBinAddr: 0x64D84, symSize: 0x34 }
  - { offset: 0x243B3C, size: 0x8, addend: 0x0, symName: __ZN4absl12lts_2024011616numbers_internal32GetNumDigitsOrNegativeIfNegativeEt, symObjAddr: 0xB78, symBinAddr: 0x64D84, symSize: 0x34 }
  - { offset: 0x243B58, size: 0x8, addend: 0x0, symName: __ZN4absl12lts_2024011616numbers_internal32GetNumDigitsOrNegativeIfNegativeEt, symObjAddr: 0xB78, symBinAddr: 0x64D84, symSize: 0x34 }
  - { offset: 0x243B82, size: 0x8, addend: 0x0, symName: __ZN4absl12lts_2024011616numbers_internal32GetNumDigitsOrNegativeIfNegativeEi, symObjAddr: 0xBAC, symBinAddr: 0x40C68, symSize: 0x94 }
  - { offset: 0x243BDC, size: 0x8, addend: 0x0, symName: __ZN4absl12lts_2024011616numbers_internal32GetNumDigitsOrNegativeIfNegativeEi, symObjAddr: 0xBAC, symBinAddr: 0x40C68, symSize: 0x94 }
  - { offset: 0x243C20, size: 0x8, addend: 0x0, symName: __ZN4absl12lts_2024011616numbers_internal32GetNumDigitsOrNegativeIfNegativeEj, symObjAddr: 0xC40, symBinAddr: 0x40CFC, symSize: 0x88 }
  - { offset: 0x243CEF, size: 0x8, addend: 0x0, symName: __ZN4absl12lts_2024011616numbers_internal32GetNumDigitsOrNegativeIfNegativeEl, symObjAddr: 0xCC8, symBinAddr: 0x40D84, symSize: 0xA0 }
  - { offset: 0x243D49, size: 0x8, addend: 0x0, symName: __ZN4absl12lts_2024011616numbers_internal32GetNumDigitsOrNegativeIfNegativeEl, symObjAddr: 0xCC8, symBinAddr: 0x40D84, symSize: 0xA0 }
  - { offset: 0x243D8D, size: 0x8, addend: 0x0, symName: __ZN4absl12lts_2024011616numbers_internal32GetNumDigitsOrNegativeIfNegativeEm, symObjAddr: 0xD68, symBinAddr: 0x40E24, symSize: 0x90 }
  - { offset: 0x243DFC, size: 0x8, addend: 0x0, symName: __ZN4absl12lts_2024011616numbers_internal32GetNumDigitsOrNegativeIfNegativeEx, symObjAddr: 0xDF8, symBinAddr: 0x40EB4, symSize: 0xA0 }
  - { offset: 0x243E56, size: 0x8, addend: 0x0, symName: __ZN4absl12lts_2024011616numbers_internal32GetNumDigitsOrNegativeIfNegativeEx, symObjAddr: 0xDF8, symBinAddr: 0x40EB4, symSize: 0xA0 }
  - { offset: 0x243E9A, size: 0x8, addend: 0x0, symName: __ZN4absl12lts_2024011616numbers_internal32GetNumDigitsOrNegativeIfNegativeEy, symObjAddr: 0xE98, symBinAddr: 0x40F54, symSize: 0x90 }
  - { offset: 0x243F09, size: 0x8, addend: 0x0, symName: __ZN4absl12lts_2024011616numbers_internal17SixDigitsToBufferEdPc, symObjAddr: 0xF28, symBinAddr: 0x40FE4, symSize: 0x79C }
  - { offset: 0x244117, size: 0x8, addend: 0x0, symName: __ZN4absl12lts_2024011616numbers_internal17safe_strto32_baseENS0_11string_viewEPii, symObjAddr: 0x16C4, symBinAddr: 0x41780, symSize: 0x18C }
  - { offset: 0x244288, size: 0x8, addend: 0x0, symName: __ZN4absl12lts_2024011616numbers_internal17safe_strto64_baseENS0_11string_viewEPxi, symObjAddr: 0x1850, symBinAddr: 0x4190C, symSize: 0x188 }
  - { offset: 0x244292, size: 0x8, addend: 0x0, symName: __ZN4absl12lts_2024011616numbers_internal17safe_strto64_baseENS0_11string_viewEPxi, symObjAddr: 0x1850, symBinAddr: 0x4190C, symSize: 0x188 }
  - { offset: 0x24440C, size: 0x8, addend: 0x0, symName: __ZN4absl12lts_2024011616numbers_internal18safe_strto128_baseENS0_11string_viewEPNS0_6int128Ei, symObjAddr: 0x19D8, symBinAddr: 0x41A94, symSize: 0x248 }
  - { offset: 0x244416, size: 0x8, addend: 0x0, symName: __ZN4absl12lts_2024011616numbers_internal18safe_strto128_baseENS0_11string_viewEPNS0_6int128Ei, symObjAddr: 0x19D8, symBinAddr: 0x41A94, symSize: 0x248 }
  - { offset: 0x244913, size: 0x8, addend: 0x0, symName: __ZN4absl12lts_2024011616numbers_internal18safe_strtou32_baseENS0_11string_viewEPji, symObjAddr: 0x1C20, symBinAddr: 0x41CDC, symSize: 0xFC }
  - { offset: 0x24491D, size: 0x8, addend: 0x0, symName: __ZN4absl12lts_2024011616numbers_internal18safe_strtou32_baseENS0_11string_viewEPji, symObjAddr: 0x1C20, symBinAddr: 0x41CDC, symSize: 0xFC }
  - { offset: 0x244A25, size: 0x8, addend: 0x0, symName: __ZN4absl12lts_2024011616numbers_internal18safe_strtou64_baseENS0_11string_viewEPyi, symObjAddr: 0x1D1C, symBinAddr: 0x41DD8, symSize: 0xFC }
  - { offset: 0x244A2F, size: 0x8, addend: 0x0, symName: __ZN4absl12lts_2024011616numbers_internal18safe_strtou64_baseENS0_11string_viewEPyi, symObjAddr: 0x1D1C, symBinAddr: 0x41DD8, symSize: 0xFC }
  - { offset: 0x244B40, size: 0x8, addend: 0x0, symName: __ZN4absl12lts_2024011616numbers_internal19safe_strtou128_baseENS0_11string_viewEPNS0_7uint128Ei, symObjAddr: 0x1E18, symBinAddr: 0x41ED4, symSize: 0x150 }
  - { offset: 0x244B4A, size: 0x8, addend: 0x0, symName: __ZN4absl12lts_2024011616numbers_internal19safe_strtou128_baseENS0_11string_viewEPNS0_7uint128Ei, symObjAddr: 0x1E18, symBinAddr: 0x41ED4, symSize: 0x150 }
  - { offset: 0x244E92, size: 0x8, addend: 0x0, symName: __ZN4absl12lts_2024011610SimpleAtofENS0_11string_viewEPf, symObjAddr: 0x0, symBinAddr: 0x40134, symSize: 0x13C }
  - { offset: 0x24504C, size: 0x8, addend: 0x0, symName: __ZN4absl12lts_2024011610SimpleAtodENS0_11string_viewEPd, symObjAddr: 0x13C, symBinAddr: 0x40270, symSize: 0x13C }
  - { offset: 0x245206, size: 0x8, addend: 0x0, symName: __ZN4absl12lts_2024011610SimpleAtobENS0_11string_viewEPb, symObjAddr: 0x278, symBinAddr: 0x403AC, symSize: 0x170 }
  - { offset: 0x245384, size: 0x8, addend: 0x0, symName: __ZN4absl12lts_2024011616numbers_internal12PutTwoDigitsEjPc, symObjAddr: 0x3E8, symBinAddr: 0x4051C, symSize: 0x40 }
  - { offset: 0x245555, size: 0x8, addend: 0x0, symName: __ZN4absl12lts_20240116L7PowFiveEyi, symObjAddr: 0x1FA4, symBinAddr: 0x42024, symSize: 0x88 }
  - { offset: 0x2458FA, size: 0x8, addend: 0x0, symName: __ZN4absl12lts_20240116L5Mul32ENSt3__14pairIyyEEj, symObjAddr: 0x202C, symBinAddr: 0x420AC, symSize: 0x6C }
  - { offset: 0x246D5B, size: 0x8, addend: 0x0, symName: __ZN4absl12lts_20240116L7PowFiveEyi, symObjAddr: 0x1FA4, symBinAddr: 0x42024, symSize: 0x88 }
  - { offset: 0x246D72, size: 0x8, addend: 0x0, symName: __ZN4absl12lts_2024011610SimpleAtobENS0_11string_viewEPb.cold.1, symObjAddr: 0x2234, symBinAddr: 0x64DB8, symSize: 0x5C }
  - { offset: 0x246D8C, size: 0x8, addend: 0x0, symName: __ZN4absl12lts_2024011616numbers_internal12PutTwoDigitsEjPc.cold.1, symObjAddr: 0x2290, symBinAddr: 0x64E14, symSize: 0x28 }
  - { offset: 0x2472A2, size: 0x8, addend: 0x0, symName: __ZN4absl12lts_2024011616numbers_internal17SixDigitsToBufferEdPc.cold.1, symObjAddr: 0x22B8, symBinAddr: 0x64E3C, symSize: 0x28 }
  - { offset: 0x2472BA, size: 0x8, addend: 0x0, symName: __ZN4absl12lts_2024011616numbers_internal17safe_strto32_baseENS0_11string_viewEPii.cold.2, symObjAddr: 0x2304, symBinAddr: 0x64E88, symSize: 0x24 }
  - { offset: 0x2472FE, size: 0x8, addend: 0x0, symName: __ZN4absl12lts_2024011616numbers_internal17safe_strto32_baseENS0_11string_viewEPii.cold.3, symObjAddr: 0x2328, symBinAddr: 0x64EAC, symSize: 0x24 }
  - { offset: 0x247342, size: 0x8, addend: 0x0, symName: __ZN4absl12lts_2024011616numbers_internal17safe_strto32_baseENS0_11string_viewEPii.cold.1, symObjAddr: 0x22E0, symBinAddr: 0x64E64, symSize: 0x24 }
  - { offset: 0x2477D1, size: 0x8, addend: 0x0, symName: _OUTLINED_FUNCTION_0, symObjAddr: 0x2560, symBinAddr: 0x422B4, symSize: 0x8 }
  - { offset: 0x2477E9, size: 0x8, addend: 0x0, symName: _OUTLINED_FUNCTION_1, symObjAddr: 0x2568, symBinAddr: 0x422BC, symSize: 0x8 }
  - { offset: 0x247801, size: 0x8, addend: 0x0, symName: _OUTLINED_FUNCTION_2, symObjAddr: 0x2570, symBinAddr: 0x422C4, symSize: 0x8 }
  - { offset: 0x2496B6, size: 0x8, addend: 0x0, symName: __ZN4absl12lts_2024011616strings_internal13OStringStream9Streambuf8overflowEi, symObjAddr: 0x0, symBinAddr: 0x422CC, symSize: 0x30 }
  - { offset: 0x24CC85, size: 0x8, addend: 0x0, symName: __ZN4absl12lts_2024011616strings_internal13OStringStream9Streambuf8overflowEi, symObjAddr: 0x0, symBinAddr: 0x422CC, symSize: 0x30 }
  - { offset: 0x24CCBF, size: 0x8, addend: 0x0, symName: __ZN4absl12lts_2024011616strings_internal13OStringStream9Streambuf6xsputnEPKcl, symObjAddr: 0x30, symBinAddr: 0x422FC, symSize: 0x30 }
  - { offset: 0x24CCCA, size: 0x8, addend: 0x0, symName: __ZN4absl12lts_2024011616strings_internal13OStringStream9Streambuf8overflowEi.cold.1, symObjAddr: 0xC8, symBinAddr: 0x64ED0, symSize: 0x28 }
  - { offset: 0x24CCE2, size: 0x8, addend: 0x0, symName: __ZN4absl12lts_2024011616strings_internal13OStringStream9Streambuf6xsputnEPKcl, symObjAddr: 0x30, symBinAddr: 0x422FC, symSize: 0x30 }
  - { offset: 0x24CD2B, size: 0x8, addend: 0x0, symName: __ZN4absl12lts_2024011616strings_internal13OStringStream9StreambufD1Ev, symObjAddr: 0x60, symBinAddr: 0x4232C, symSize: 0x34 }
  - { offset: 0x24CD36, size: 0x8, addend: 0x0, symName: __ZN4absl12lts_2024011616strings_internal13OStringStream9Streambuf6xsputnEPKcl.cold.1, symObjAddr: 0xF0, symBinAddr: 0x64EF8, symSize: 0x28 }
  - { offset: 0x24CD89, size: 0x8, addend: 0x0, symName: __ZN4absl12lts_2024011616strings_internal13OStringStream9StreambufD1Ev, symObjAddr: 0x60, symBinAddr: 0x4232C, symSize: 0x34 }
  - { offset: 0x24CDFF, size: 0x8, addend: 0x0, symName: __ZN4absl12lts_2024011616strings_internal13OStringStream9StreambufD0Ev, symObjAddr: 0x94, symBinAddr: 0x42360, symSize: 0x34 }
  - { offset: 0x24ED0E, size: 0x8, addend: 0x0, symName: __ZN4absl12lts_2024011619str_format_internal13BufferRawSink5WriteENS0_11string_viewE, symObjAddr: 0x0, symBinAddr: 0x42394, symSize: 0x58 }
  - { offset: 0x24FABC, size: 0x8, addend: 0x0, symName: __ZN4absl12lts_2024011619str_format_internal13BufferRawSink5WriteENS0_11string_viewE, symObjAddr: 0x0, symBinAddr: 0x42394, symSize: 0x58 }
  - { offset: 0x24FDBF, size: 0x8, addend: 0x0, symName: __ZN4absl12lts_2024011619str_format_internal11FILERawSink5WriteENS0_11string_viewE, symObjAddr: 0x58, symBinAddr: 0x423EC, symSize: 0x110 }
  - { offset: 0x24FF76, size: 0x8, addend: 0x0, symName: __ZN4absl12lts_2024011619str_format_internal12_GLOBAL__N_115ClearErrnoGuardD1Ev, symObjAddr: 0x168, symBinAddr: 0x424FC, symSize: 0x3C }
  - { offset: 0x251CFD, size: 0x8, addend: 0x0, symName: __ZN4absl12lts_2024011619str_format_internal32ConsumeUnboundConversionNoInlineEPKcS3_PNS1_17UnboundConversionEPi, symObjAddr: 0x0, symBinAddr: 0x42538, symSize: 0x4 }
  - { offset: 0x251D20, size: 0x8, addend: 0x0, symName: __ZN4absl12lts_2024011619str_format_internal13ConvTagHolder5valueE, symObjAddr: 0x1B7D, symBinAddr: 0x6C9C2, symSize: 0x0 }
  - { offset: 0x252014, size: 0x8, addend: 0x0, symName: __ZN4absl12lts_2024011619str_format_internal32ConsumeUnboundConversionNoInlineEPKcS3_PNS1_17UnboundConversionEPi, symObjAddr: 0x0, symBinAddr: 0x42538, symSize: 0x4 }
  - { offset: 0x252069, size: 0x8, addend: 0x0, symName: __ZN4absl12lts_2024011619str_format_internal32ConsumeUnboundConversionNoInlineEPKcS3_PNS1_17UnboundConversionEPi, symObjAddr: 0x0, symBinAddr: 0x42538, symSize: 0x4 }
  - { offset: 0x252090, size: 0x8, addend: 0x0, symName: __ZN4absl12lts_2024011619str_format_internal24ConsumeUnboundConversionEPKcS3_PNS1_17UnboundConversionEPi, symObjAddr: 0x4, symBinAddr: 0x4253C, symSize: 0x10 }
  - { offset: 0x252102, size: 0x8, addend: 0x0, symName: __ZN4absl12lts_2024011619str_format_internal17ConsumeConversionILb0EEEPKcS4_S4_PNS1_17UnboundConversionEPi, symObjAddr: 0xA14, symBinAddr: 0x42F4C, symSize: 0x3F4 }
  - { offset: 0x2524CD, size: 0x8, addend: 0x0, symName: __ZNK4absl12lts_2024011619str_format_internal7ConvTag8as_flagsEv, symObjAddr: 0xE08, symBinAddr: 0x43340, symSize: 0x44 }
  - { offset: 0x2524E2, size: 0x8, addend: 0x0, symName: __ZN4absl12lts_2024011619str_format_internal17ConsumeConversionILb1EEEPKcS4_S4_PNS1_17UnboundConversionEPi, symObjAddr: 0x480, symBinAddr: 0x429B8, symSize: 0x594 }
  - { offset: 0x25291C, size: 0x8, addend: 0x0, symName: __ZN4absl12lts_2024011619str_format_internal17ConsumeConversionILb0EEEPKcS4_S4_PNS1_17UnboundConversionEPi, symObjAddr: 0xA14, symBinAddr: 0x42F4C, symSize: 0x3F4 }
  - { offset: 0x252930, size: 0x8, addend: 0x0, symName: __ZN4absl12lts_2024011619str_format_internal17LengthModToStringENS0_9LengthModE, symObjAddr: 0x14, symBinAddr: 0x4254C, symSize: 0x2C }
  - { offset: 0x25298B, size: 0x8, addend: 0x0, symName: __ZN4absl12lts_2024011619str_format_internal17ParseFormatStringINS1_16ParsedFormatBase20ParsedFormatConsumerEEEbNS0_11string_viewET_, symObjAddr: 0x110, symBinAddr: 0x42648, symSize: 0x1F8 }
  - { offset: 0x252DE2, size: 0x8, addend: 0x0, symName: __ZNK4absl12lts_2024011619str_format_internal16ParsedFormatBase18MatchesConversionsEbSt16initializer_listINS0_23FormatConversionCharSetEE, symObjAddr: 0x308, symBinAddr: 0x42840, symSize: 0x174 }
  - { offset: 0x252E75, size: 0x8, addend: 0x0, symName: __ZN4absl12lts_2024011619str_format_internal29FormatConversionCharToConvIntEc, symObjAddr: 0xEF4, symBinAddr: 0x4342C, symSize: 0xF0 }
  - { offset: 0x252F14, size: 0x8, addend: 0x0, symName: __ZN4absl12lts_2024011619str_format_internal20CheckFastPathSettingERKNS1_17UnboundConversionE, symObjAddr: 0xE80, symBinAddr: 0x433B8, symSize: 0x74 }
  - { offset: 0x25888C, size: 0x8, addend: 0x0, symName: __ZNSt3__119__allocate_at_leastB8ne200100INS_9allocatorIN4absl12lts_2024011619str_format_internal16ParsedFormatBase14ConversionItemEEEEENS_19__allocation_resultINS_16allocator_traitsIT_E7pointerEEERSA_m, symObjAddr: 0x16F8, symBinAddr: 0x4389C, symSize: 0x34 }
  - { offset: 0x259EFE, size: 0x8, addend: 0x0, symName: __ZN4absl12lts_2024011619str_format_internal16ParsedFormatBaseC2ENS0_11string_viewEbSt16initializer_listINS0_23FormatConversionCharSetEE, symObjAddr: 0x40, symBinAddr: 0x42578, symSize: 0xD0 }
  - { offset: 0x25A15B, size: 0x8, addend: 0x0, symName: __ZNK4absl12lts_2024011619str_format_internal16ParsedFormatBase18MatchesConversionsEbSt16initializer_listINS0_23FormatConversionCharSetEE, symObjAddr: 0x308, symBinAddr: 0x42840, symSize: 0x174 }
  - { offset: 0x25A6C1, size: 0x8, addend: 0x0, symName: __ZN4absl12lts_2024011619str_format_internal16ParsedFormatBaseC2ENS0_11string_viewEbSt16initializer_listINS0_23FormatConversionCharSetEE.cold.1, symObjAddr: 0x1774, symBinAddr: 0x64F20, symSize: 0x18 }
  - { offset: 0x25A93C, size: 0x8, addend: 0x0, symName: __ZN4absl12lts_2024011619str_format_internal16ParsedFormatBase20ParsedFormatConsumer6AppendENS0_11string_viewE, symObjAddr: 0x157C, symBinAddr: 0x43734, symSize: 0x94 }
  - { offset: 0x25AA39, size: 0x8, addend: 0x0, symName: __ZNSt3__16vectorIN4absl12lts_2024011619str_format_internal16ParsedFormatBase14ConversionItemENS_9allocatorIS5_EEE9push_backB8ne200100EOS5_, symObjAddr: 0x1610, symBinAddr: 0x437C8, symSize: 0xD4 }
  - { offset: 0x25B111, size: 0x8, addend: 0x0, symName: __ZNSt3__112__hash_tableIiNS_4hashIiEENS_8equal_toIiEENS_9allocatorIiEEE25__emplace_unique_key_argsIiJRKiEEENS_4pairINS_15__hash_iteratorIPNS_11__hash_nodeIiPvEEEEbEERKT_DpOT0_, symObjAddr: 0xFE4, symBinAddr: 0x4351C, symSize: 0x218 }
  - { offset: 0x25B823, size: 0x8, addend: 0x0, symName: __ZN4absl12lts_2024011619str_format_internal16ParsedFormatBaseC1ENS0_11string_viewEbSt16initializer_listINS0_23FormatConversionCharSetEE, symObjAddr: 0x47C, symBinAddr: 0x429B4, symSize: 0x4 }
  - { offset: 0x25B878, size: 0x8, addend: 0x0, symName: __ZN4absl12lts_2024011619str_format_internal16ParsedFormatBaseC1ENS0_11string_viewEbSt16initializer_listINS0_23FormatConversionCharSetEE, symObjAddr: 0x47C, symBinAddr: 0x429B4, symSize: 0x4 }
  - { offset: 0x25B958, size: 0x8, addend: 0x0, symName: __ZNK4absl12lts_2024011619str_format_internal7ConvTag8as_flagsEv, symObjAddr: 0xE08, symBinAddr: 0x43340, symSize: 0x44 }
  - { offset: 0x25B9DF, size: 0x8, addend: 0x0, symName: __ZNK4absl12lts_2024011619str_format_internal7ConvTag9as_lengthEv, symObjAddr: 0xE4C, symBinAddr: 0x43384, symSize: 0x34 }
  - { offset: 0x25B9EA, size: 0x8, addend: 0x0, symName: __ZN4absl12lts_2024011619str_format_internal17ConsumeConversionILb1EEEPKcS4_S4_PNS1_17UnboundConversionEPi.cold.8, symObjAddr: 0x1900, symBinAddr: 0x64FF8, symSize: 0x28 }
  - { offset: 0x25BA02, size: 0x8, addend: 0x0, symName: __ZN4absl12lts_2024011619str_format_internal17ConsumeConversionILb1EEEPKcS4_S4_PNS1_17UnboundConversionEPi.cold.1, symObjAddr: 0x17F8, symBinAddr: 0x64F38, symSize: 0x28 }
  - { offset: 0x25BA1A, size: 0x8, addend: 0x0, symName: __ZNK4absl12lts_2024011619str_format_internal7ConvTag9as_lengthEv, symObjAddr: 0xE4C, symBinAddr: 0x43384, symSize: 0x34 }
  - { offset: 0x25BA80, size: 0x8, addend: 0x0, symName: __ZN4absl12lts_2024011619str_format_internal20CheckFastPathSettingERKNS1_17UnboundConversionE, symObjAddr: 0xE80, symBinAddr: 0x433B8, symSize: 0x74 }
  - { offset: 0x25BA8B, size: 0x8, addend: 0x0, symName: __ZN4absl12lts_2024011619str_format_internal17ConsumeConversionILb1EEEPKcS4_S4_PNS1_17UnboundConversionEPi.cold.6, symObjAddr: 0x18B0, symBinAddr: 0x64FA8, symSize: 0x28 }
  - { offset: 0x25BAA3, size: 0x8, addend: 0x0, symName: __ZN4absl12lts_2024011619str_format_internal17ConsumeConversionILb1EEEPKcS4_S4_PNS1_17UnboundConversionEPi.cold.7, symObjAddr: 0x18D8, symBinAddr: 0x64FD0, symSize: 0x28 }
  - { offset: 0x25BAD1, size: 0x8, addend: 0x0, symName: __ZN4absl12lts_2024011619str_format_internal17ConsumeConversionILb1EEEPKcS4_S4_PNS1_17UnboundConversionEPi.cold.3, symObjAddr: 0x1844, symBinAddr: 0x64F84, symSize: 0x24 }
  - { offset: 0x25BB14, size: 0x8, addend: 0x0, symName: __ZN4absl12lts_2024011619str_format_internal17ConsumeConversionILb1EEEPKcS4_S4_PNS1_17UnboundConversionEPi.cold.2, symObjAddr: 0x1820, symBinAddr: 0x64F60, symSize: 0x24 }
  - { offset: 0x25BBD4, size: 0x8, addend: 0x0, symName: __ZNK4absl12lts_2024011619str_format_internal7ConvTag8as_flagsEv.cold.3, symObjAddr: 0x1A80, symBinAddr: 0x65070, symSize: 0x28 }
  - { offset: 0x25BBEC, size: 0x8, addend: 0x0, symName: __ZNK4absl12lts_2024011619str_format_internal7ConvTag8as_flagsEv.cold.2, symObjAddr: 0x1A58, symBinAddr: 0x65048, symSize: 0x28 }
  - { offset: 0x25BC04, size: 0x8, addend: 0x0, symName: __ZNK4absl12lts_2024011619str_format_internal7ConvTag8as_flagsEv.cold.1, symObjAddr: 0x1A30, symBinAddr: 0x65020, symSize: 0x28 }
  - { offset: 0x25BC1C, size: 0x8, addend: 0x0, symName: __ZNK4absl12lts_2024011619str_format_internal7ConvTag9as_lengthEv.cold.2, symObjAddr: 0x1AD0, symBinAddr: 0x650C0, symSize: 0x28 }
  - { offset: 0x25BC34, size: 0x8, addend: 0x0, symName: __ZNK4absl12lts_2024011619str_format_internal7ConvTag9as_lengthEv.cold.1, symObjAddr: 0x1AA8, symBinAddr: 0x65098, symSize: 0x28 }
  - { offset: 0x25CA66, size: 0x8, addend: 0x0, symName: __ZNSt3__119__allocate_at_leastB8ne200100INS_9allocatorIN4absl12lts_2024011619str_format_internal16ParsedFormatBase14ConversionItemEEEEENS_19__allocation_resultINS_16allocator_traitsIT_E7pointerEEERSA_m, symObjAddr: 0x16F8, symBinAddr: 0x4389C, symSize: 0x34 }
  - { offset: 0x25CB74, size: 0x8, addend: 0x0, symName: _OUTLINED_FUNCTION_1, symObjAddr: 0x1B00, symBinAddr: 0x438D0, symSize: 0x8 }
  - { offset: 0x25E88A, size: 0x8, addend: 0x0, symName: __ZN4absl12lts_2024011624synchronization_internal12PerThreadSem23SetThreadBlockedCounterEPNSt3__16atomicIiEE, symObjAddr: 0x0, symBinAddr: 0x438D8, symSize: 0x30 }
  - { offset: 0x25F8EE, size: 0x8, addend: 0x0, symName: __ZN4absl12lts_2024011624synchronization_internal12PerThreadSem23SetThreadBlockedCounterEPNSt3__16atomicIiEE, symObjAddr: 0x0, symBinAddr: 0x438D8, symSize: 0x30 }
  - { offset: 0x25F953, size: 0x8, addend: 0x0, symName: __ZN4absl12lts_2024011624synchronization_internal12PerThreadSem23GetThreadBlockedCounterEv, symObjAddr: 0x30, symBinAddr: 0x43908, symSize: 0x24 }
  - { offset: 0x25FA3F, size: 0x8, addend: 0x0, symName: __ZN4absl12lts_2024011624synchronization_internal12PerThreadSem4TickEPNS0_13base_internal14ThreadIdentityE, symObjAddr: 0x54, symBinAddr: 0x4392C, symSize: 0x3C }
  - { offset: 0x25FB81, size: 0x8, addend: 0x0, symName: _AbslInternalPerThreadSemPoke_lts_20240116, symObjAddr: 0x90, symBinAddr: 0x43968, symSize: 0x8 }
  - { offset: 0x25FBA9, size: 0x8, addend: 0x0, symName: _AbslInternalPerThreadSemPoke_lts_20240116, symObjAddr: 0x90, symBinAddr: 0x43968, symSize: 0x8 }
  - { offset: 0x25FBD6, size: 0x8, addend: 0x0, symName: _AbslInternalPerThreadSemInit_lts_20240116, symObjAddr: 0x98, symBinAddr: 0x43970, symSize: 0x8 }
  - { offset: 0x25FBFE, size: 0x8, addend: 0x0, symName: _AbslInternalPerThreadSemInit_lts_20240116, symObjAddr: 0x98, symBinAddr: 0x43970, symSize: 0x8 }
  - { offset: 0x25FC18, size: 0x8, addend: 0x0, symName: _AbslInternalPerThreadSemPost_lts_20240116, symObjAddr: 0xA0, symBinAddr: 0x43978, symSize: 0x8 }
  - { offset: 0x25FC40, size: 0x8, addend: 0x0, symName: _AbslInternalPerThreadSemPost_lts_20240116, symObjAddr: 0xA0, symBinAddr: 0x43978, symSize: 0x8 }
  - { offset: 0x25FCED, size: 0x8, addend: 0x0, symName: _AbslInternalPerThreadSemWait_lts_20240116, symObjAddr: 0xA8, symBinAddr: 0x43980, symSize: 0x8C }
  - { offset: 0x261E7D, size: 0x8, addend: 0x0, symName: __ZN4absl12lts_2024011615random_internal12_GLOBAL__N_19pool_onceE, symObjAddr: 0x18240, symBinAddr: 0x86940, symSize: 0x0 }
  - { offset: 0x261E8B, size: 0x8, addend: 0x0, symName: __ZN4absl12lts_2024011615random_internal12_GLOBAL__N_112InitPoolURBGEv, symObjAddr: 0x660, symBinAddr: 0x44014, symSize: 0x174 }
  - { offset: 0x2623E2, size: 0x8, addend: 0x0, symName: __ZN4absl12lts_2024011615random_internal12_GLOBAL__N_112shared_poolsE, symObjAddr: 0x18200, symBinAddr: 0x86900, symSize: 0x0 }
  - { offset: 0x262519, size: 0x8, addend: 0x0, symName: __ZN4absl12lts_2024011615random_internal12_GLOBAL__N_123GetPoolForCurrentThreadEv, symObjAddr: 0x11C, symBinAddr: 0x43B28, symSize: 0x78 }
  - { offset: 0x26472A, size: 0x8, addend: 0x0, symName: __ZN4absl12lts_2024011615random_internal10RandenPoolIhE3minEv, symObjAddr: 0x0, symBinAddr: 0x43A0C, symSize: 0x8 }
  - { offset: 0x26473E, size: 0x8, addend: 0x0, symName: __ZN4absl12lts_2024011615random_internal10RandenPoolIhE3maxEv, symObjAddr: 0x8, symBinAddr: 0x43A14, symSize: 0x8 }
  - { offset: 0x264752, size: 0x8, addend: 0x0, symName: __ZN4absl12lts_2024011615random_internal10RandenPoolIhEC2Ev, symObjAddr: 0x10, symBinAddr: 0x43A1C, symSize: 0x4 }
  - { offset: 0x26477B, size: 0x8, addend: 0x0, symName: __ZN4absl12lts_2024011615random_internal10RandenPoolIhEC1Ev, symObjAddr: 0x14, symBinAddr: 0x43A20, symSize: 0x4 }
  - { offset: 0x2647A4, size: 0x8, addend: 0x0, symName: __ZN4absl12lts_2024011615random_internal10RandenPoolIhEclEv, symObjAddr: 0x18, symBinAddr: 0x43A24, symSize: 0x4 }
  - { offset: 0x2647CB, size: 0x8, addend: 0x0, symName: __ZN4absl12lts_2024011615random_internal10RandenPoolIhEclEv, symObjAddr: 0x18, symBinAddr: 0x43A24, symSize: 0x4 }
  - { offset: 0x2647D6, size: 0x8, addend: 0x0, symName: __ZN4absl12lts_2024011615random_internal10RandenPoolIhE8GenerateEv, symObjAddr: 0x1C, symBinAddr: 0x43A28, symSize: 0xD4 }
  - { offset: 0x264D29, size: 0x8, addend: 0x0, symName: __ZN4absl12lts_2024011615random_internal10RandenPoolIhE4FillENS0_4SpanIhEE, symObjAddr: 0xF0, symBinAddr: 0x43AFC, symSize: 0x2C }
  - { offset: 0x264D78, size: 0x8, addend: 0x0, symName: __ZN4absl12lts_2024011615random_internal12_GLOBAL__N_115RandenPoolEntry4FillEPhm, symObjAddr: 0x194, symBinAddr: 0x43BA0, symSize: 0x11C }
  - { offset: 0x2650AC, size: 0x8, addend: 0x0, symName: __ZN4absl12lts_2024011615random_internal12_GLOBAL__N_123GetPoolForCurrentThreadEv.cold.1, symObjAddr: 0x8F0, symBinAddr: 0x650E8, symSize: 0x18 }
  - { offset: 0x2650C7, size: 0x8, addend: 0x0, symName: __ZN4absl12lts_2024011615random_internal12_GLOBAL__N_123GetPoolForCurrentThreadEv.cold.1, symObjAddr: 0x8F0, symBinAddr: 0x650E8, symSize: 0x18 }
  - { offset: 0x2650D9, size: 0x8, addend: 0x0, symName: __ZN4absl12lts_2024011615random_internal10RandenPoolItE3minEv, symObjAddr: 0x2B0, symBinAddr: 0x43CBC, symSize: 0x8 }
  - { offset: 0x2650ED, size: 0x8, addend: 0x0, symName: __ZN4absl12lts_2024011615random_internal10RandenPoolItE3maxEv, symObjAddr: 0x2B8, symBinAddr: 0x43CC4, symSize: 0x8 }
  - { offset: 0x265101, size: 0x8, addend: 0x0, symName: __ZN4absl12lts_2024011615random_internal10RandenPoolItEC2Ev, symObjAddr: 0x2C0, symBinAddr: 0x43CCC, symSize: 0x4 }
  - { offset: 0x26512A, size: 0x8, addend: 0x0, symName: __ZN4absl12lts_2024011615random_internal10RandenPoolItEC1Ev, symObjAddr: 0x2C4, symBinAddr: 0x43CD0, symSize: 0x4 }
  - { offset: 0x265153, size: 0x8, addend: 0x0, symName: __ZN4absl12lts_2024011615random_internal10RandenPoolItEclEv, symObjAddr: 0x2C8, symBinAddr: 0x43CD4, symSize: 0x4 }
  - { offset: 0x26517A, size: 0x8, addend: 0x0, symName: __ZN4absl12lts_2024011615random_internal10RandenPoolItEclEv, symObjAddr: 0x2C8, symBinAddr: 0x43CD4, symSize: 0x4 }
  - { offset: 0x265185, size: 0x8, addend: 0x0, symName: __ZN4absl12lts_2024011615random_internal10RandenPoolItE8GenerateEv, symObjAddr: 0x2CC, symBinAddr: 0x43CD8, symSize: 0xD4 }
  - { offset: 0x265454, size: 0x8, addend: 0x0, symName: __ZN4absl12lts_2024011615random_internal10RandenPoolItE4FillENS0_4SpanItEE, symObjAddr: 0x3A0, symBinAddr: 0x43DAC, symSize: 0x2C }
  - { offset: 0x2654A3, size: 0x8, addend: 0x0, symName: __ZN4absl12lts_2024011615random_internal10RandenPoolIjE3minEv, symObjAddr: 0x3CC, symBinAddr: 0x43DD8, symSize: 0x8 }
  - { offset: 0x2654B7, size: 0x8, addend: 0x0, symName: __ZN4absl12lts_2024011615random_internal10RandenPoolIjE3maxEv, symObjAddr: 0x3D4, symBinAddr: 0x43DE0, symSize: 0x8 }
  - { offset: 0x2654CB, size: 0x8, addend: 0x0, symName: __ZN4absl12lts_2024011615random_internal10RandenPoolIjEC2Ev, symObjAddr: 0x3DC, symBinAddr: 0x43DE8, symSize: 0x4 }
  - { offset: 0x2654F4, size: 0x8, addend: 0x0, symName: __ZN4absl12lts_2024011615random_internal10RandenPoolIjEC1Ev, symObjAddr: 0x3E0, symBinAddr: 0x43DEC, symSize: 0x4 }
  - { offset: 0x26551D, size: 0x8, addend: 0x0, symName: __ZN4absl12lts_2024011615random_internal10RandenPoolIjEclEv, symObjAddr: 0x3E4, symBinAddr: 0x43DF0, symSize: 0x4 }
  - { offset: 0x265544, size: 0x8, addend: 0x0, symName: __ZN4absl12lts_2024011615random_internal10RandenPoolIjEclEv, symObjAddr: 0x3E4, symBinAddr: 0x43DF0, symSize: 0x4 }
  - { offset: 0x26554F, size: 0x8, addend: 0x0, symName: __ZN4absl12lts_2024011615random_internal10RandenPoolIjE8GenerateEv, symObjAddr: 0x3E8, symBinAddr: 0x43DF4, symSize: 0xD4 }
  - { offset: 0x26581E, size: 0x8, addend: 0x0, symName: __ZN4absl12lts_2024011615random_internal10RandenPoolIjE4FillENS0_4SpanIjEE, symObjAddr: 0x4BC, symBinAddr: 0x43EC8, symSize: 0x2C }
  - { offset: 0x26586D, size: 0x8, addend: 0x0, symName: __ZN4absl12lts_2024011615random_internal10RandenPoolIyE3minEv, symObjAddr: 0x4E8, symBinAddr: 0x43EF4, symSize: 0x8 }
  - { offset: 0x265881, size: 0x8, addend: 0x0, symName: __ZN4absl12lts_2024011615random_internal10RandenPoolIyE3maxEv, symObjAddr: 0x4F0, symBinAddr: 0x43EFC, symSize: 0x8 }
  - { offset: 0x265895, size: 0x8, addend: 0x0, symName: __ZN4absl12lts_2024011615random_internal10RandenPoolIyEC2Ev, symObjAddr: 0x4F8, symBinAddr: 0x43F04, symSize: 0x4 }
  - { offset: 0x2658BE, size: 0x8, addend: 0x0, symName: __ZN4absl12lts_2024011615random_internal10RandenPoolIyEC1Ev, symObjAddr: 0x4FC, symBinAddr: 0x43F08, symSize: 0x4 }
  - { offset: 0x2658E7, size: 0x8, addend: 0x0, symName: __ZN4absl12lts_2024011615random_internal10RandenPoolIyEclEv, symObjAddr: 0x500, symBinAddr: 0x43F0C, symSize: 0x4 }
  - { offset: 0x26590E, size: 0x8, addend: 0x0, symName: __ZN4absl12lts_2024011615random_internal10RandenPoolIyEclEv, symObjAddr: 0x500, symBinAddr: 0x43F0C, symSize: 0x4 }
  - { offset: 0x265919, size: 0x8, addend: 0x0, symName: __ZN4absl12lts_2024011615random_internal10RandenPoolIyE8GenerateEv, symObjAddr: 0x504, symBinAddr: 0x43F10, symSize: 0xD8 }
  - { offset: 0x265BF9, size: 0x8, addend: 0x0, symName: __ZN4absl12lts_2024011615random_internal10RandenPoolIyE4FillENS0_4SpanIyEE, symObjAddr: 0x5DC, symBinAddr: 0x43FE8, symSize: 0x2C }
  - { offset: 0x267DCC, size: 0x8, addend: 0x0, symName: __ZN4absl12lts_2024011614flags_internal21PrivateHandleAccessor6TypeIdERKNS0_15CommandLineFlagE, symObjAddr: 0x0, symBinAddr: 0x44188, symSize: 0xC }
  - { offset: 0x26A8DC, size: 0x8, addend: 0x0, symName: __ZN4absl12lts_2024011614flags_internal21PrivateHandleAccessor6TypeIdERKNS0_15CommandLineFlagE, symObjAddr: 0x0, symBinAddr: 0x44188, symSize: 0xC }
  - { offset: 0x26A914, size: 0x8, addend: 0x0, symName: __ZN4absl12lts_2024011614flags_internal21PrivateHandleAccessor9SaveStateERNS0_15CommandLineFlagE, symObjAddr: 0xC, symBinAddr: 0x44194, symSize: 0xC }
  - { offset: 0x26A953, size: 0x8, addend: 0x0, symName: __ZN4absl12lts_2024011614flags_internal21PrivateHandleAccessor24IsSpecifiedOnCommandLineERKNS0_15CommandLineFlagE, symObjAddr: 0x18, symBinAddr: 0x441A0, symSize: 0xC }
  - { offset: 0x26A98B, size: 0x8, addend: 0x0, symName: __ZN4absl12lts_2024011614flags_internal21PrivateHandleAccessor18ValidateInputValueERKNS0_15CommandLineFlagENS0_11string_viewE, symObjAddr: 0x24, symBinAddr: 0x441AC, symSize: 0xC }
  - { offset: 0x26A9DC, size: 0x8, addend: 0x0, symName: __ZN4absl12lts_2024011614flags_internal21PrivateHandleAccessor33CheckDefaultValueParsingRoundtripERKNS0_15CommandLineFlagE, symObjAddr: 0x30, symBinAddr: 0x441B8, symSize: 0xC }
  - { offset: 0x26AA14, size: 0x8, addend: 0x0, symName: __ZN4absl12lts_2024011614flags_internal21PrivateHandleAccessor9ParseFromERNS0_15CommandLineFlagENS0_11string_viewENS1_15FlagSettingModeENS1_11ValueSourceERNSt3__112basic_stringIcNS8_11char_traitsIcEENS8_9allocatorIcEEEE, symObjAddr: 0x3C, symBinAddr: 0x441C4, symSize: 0xC }
  - { offset: 0x26C98F, size: 0x8, addend: 0x0, symName: __ZN4absl12lts_2024011614flags_internalL18program_name_guardE, symObjAddr: 0x22310, symBinAddr: 0x86950, symSize: 0x0 }
  - { offset: 0x26C9A9, size: 0x8, addend: 0x0, symName: __ZN4absl12lts_2024011614flags_internalL12program_nameE, symObjAddr: 0x22318, symBinAddr: 0x86958, symSize: 0x0 }
  - { offset: 0x26C9B7, size: 0x8, addend: 0x0, symName: __ZN4absl12lts_2024011614flags_internal21ProgramInvocationNameEv, symObjAddr: 0x0, symBinAddr: 0x441D0, symSize: 0x9C }
  - { offset: 0x26CB54, size: 0x8, addend: 0x0, symName: __ZN4absl12lts_2024011614flags_internal26ShortProgramInvocationNameEv, symObjAddr: 0x9C, symBinAddr: 0x4426C, symSize: 0xF8 }
  - { offset: 0x26CDA5, size: 0x8, addend: 0x0, symName: __ZN4absl12lts_2024011614flags_internal24SetProgramInvocationNameENS0_11string_viewE, symObjAddr: 0x194, symBinAddr: 0x44364, symSize: 0xBC }
  - { offset: 0x26FE39, size: 0x8, addend: 0x0, symName: __ZNSt3__112basic_stringIcNS_11char_traitsIcEENS_9allocatorIcEEE25__init_copy_ctor_externalEPKcm, symObjAddr: 0x464, symBinAddr: 0x44420, symSize: 0x80 }
  - { offset: 0x26FE4A, size: 0x8, addend: 0x0, symName: __ZNSt3__112basic_stringIcNS_11char_traitsIcEENS_9allocatorIcEEE25__init_copy_ctor_externalEPKcm, symObjAddr: 0x464, symBinAddr: 0x44420, symSize: 0x80 }
  - { offset: 0x27061D, size: 0x8, addend: 0x0, symName: __GLOBAL__sub_I_program_name.cc, symObjAddr: 0x5A8, symBinAddr: 0x444A0, symSize: 0x1C }
  - { offset: 0x270634, size: 0x8, addend: 0x0, symName: __GLOBAL__sub_I_program_name.cc, symObjAddr: 0x5A8, symBinAddr: 0x444A0, symSize: 0x1C }
  - { offset: 0x272551, size: 0x8, addend: 0x0, symName: __ZN4absl12lts_2024011612log_internal12_GLOBAL__N_115EncodeRawVarintEymPNS0_4SpanIcEE, symObjAddr: 0xFC, symBinAddr: 0x44570, symSize: 0x78 }
  - { offset: 0x27263B, size: 0x8, addend: 0x0, symName: __ZN4absl12lts_2024011612log_internal12_GLOBAL__N_112DecodeVarintEPNS0_4SpanIKcEE, symObjAddr: 0x844, symBinAddr: 0x44C68, symSize: 0x98 }
  - { offset: 0x27270E, size: 0x8, addend: 0x0, symName: __ZN4absl12lts_2024011612log_internal12EncodeVarintEyyPNS0_4SpanIcEE, symObjAddr: 0x0, symBinAddr: 0x444BC, symSize: 0xB4 }
  - { offset: 0x272851, size: 0x8, addend: 0x0, symName: __ZN4absl12lts_2024011612log_internal11Encode64BitEyyPNS0_4SpanIcEE, symObjAddr: 0x174, symBinAddr: 0x445E8, symSize: 0xC4 }
  - { offset: 0x272994, size: 0x8, addend: 0x0, symName: __ZN4absl12lts_2024011612log_internal11Encode32BitEyjPNS0_4SpanIcEE, symObjAddr: 0x2D4, symBinAddr: 0x446F8, symSize: 0xC0 }
  - { offset: 0x272AD7, size: 0x8, addend: 0x0, symName: __ZN4absl12lts_2024011612log_internal11EncodeBytesEyNS0_4SpanIKcEEPNS2_IcEE, symObjAddr: 0x394, symBinAddr: 0x447B8, symSize: 0xE4 }
  - { offset: 0x272C5D, size: 0x8, addend: 0x0, symName: __ZN4absl12lts_2024011612log_internal19EncodeBytesTruncateEyNS0_4SpanIKcEEPNS2_IcEE, symObjAddr: 0x478, symBinAddr: 0x4489C, symSize: 0x11C }
  - { offset: 0x272E62, size: 0x8, addend: 0x0, symName: __ZN4absl12lts_2024011612log_internal18EncodeMessageStartEyyPNS0_4SpanIcEE, symObjAddr: 0x5DC, symBinAddr: 0x44A00, symSize: 0xD0 }
  - { offset: 0x272FEF, size: 0x8, addend: 0x0, symName: __ZN4absl12lts_2024011612log_internal19EncodeMessageLengthENS0_4SpanIcEEPKS3_, symObjAddr: 0x6AC, symBinAddr: 0x44AD0, symSize: 0x40 }
  - { offset: 0x273059, size: 0x8, addend: 0x0, symName: __ZN4absl12lts_2024011612log_internal10ProtoField10DecodeFromEPNS0_4SpanIKcEE, symObjAddr: 0x6EC, symBinAddr: 0x44B10, symSize: 0x158 }
  - { offset: 0x273FD3, size: 0x8, addend: 0x0, symName: __ZNK4absl12lts_202401164SpanIcEixEm, symObjAddr: 0x238, symBinAddr: 0x446AC, symSize: 0x4C }
  - { offset: 0x27416C, size: 0x8, addend: 0x0, symName: __ZN4absl12lts_202401164SpanIKcE13remove_suffixEm, symObjAddr: 0x594, symBinAddr: 0x449B8, symSize: 0x48 }
  - { offset: 0x274258, size: 0x8, addend: 0x0, symName: __ZN4absl12lts_2024011612log_internal19EncodeMessageLengthENS0_4SpanIcEEPKS3_.cold.1, symObjAddr: 0x988, symBinAddr: 0x65100, symSize: 0x28 }
  - { offset: 0x2742A0, size: 0x8, addend: 0x0, symName: __ZN4absl12lts_2024011612log_internal10ProtoField10DecodeFromEPNS0_4SpanIKcEE, symObjAddr: 0x6EC, symBinAddr: 0x44B10, symSize: 0x158 }
  - { offset: 0x27445D, size: 0x8, addend: 0x0, symName: __ZNK4absl12lts_202401164SpanIKcEixEm, symObjAddr: 0x93C, symBinAddr: 0x44D50, symSize: 0x4C }
  - { offset: 0x2744F2, size: 0x8, addend: 0x0, symName: __ZN4absl12lts_202401164SpanIKcE13remove_prefixEm, symObjAddr: 0x8DC, symBinAddr: 0x44D00, symSize: 0x50 }
  - { offset: 0x2764C1, size: 0x8, addend: 0x0, symName: __ZN4absl12lts_2024011624synchronization_internal13PthreadWaiter5kNameE, symObjAddr: 0x568, symBinAddr: 0x6CAD5, symSize: 0x0 }
  - { offset: 0x277213, size: 0x8, addend: 0x0, symName: __ZN4absl12lts_2024011624synchronization_internal13PthreadWaiter5kNameE, symObjAddr: 0x568, symBinAddr: 0x6CAD5, symSize: 0x0 }
  - { offset: 0x27721D, size: 0x8, addend: 0x0, symName: __ZN4absl12lts_2024011624synchronization_internal13PthreadWaiterC2Ev, symObjAddr: 0x0, symBinAddr: 0x44D9C, symSize: 0x48 }
  - { offset: 0x2772E3, size: 0x8, addend: 0x0, symName: __ZN4absl12lts_2024011624synchronization_internal13PthreadWaiterC1Ev, symObjAddr: 0x48, symBinAddr: 0x44DE4, symSize: 0x4 }
  - { offset: 0x2773BD, size: 0x8, addend: 0x0, symName: __ZN4absl12lts_2024011624synchronization_internal13PthreadWaiterC2Ev.cold.1, symObjAddr: 0x3B8, symBinAddr: 0x65128, symSize: 0x4C }
  - { offset: 0x2773D5, size: 0x8, addend: 0x0, symName: __ZN4absl12lts_2024011624synchronization_internal13PthreadWaiterC2Ev.cold.2, symObjAddr: 0x404, symBinAddr: 0x65174, symSize: 0x4C }
  - { offset: 0x2773ED, size: 0x8, addend: 0x0, symName: __ZN4absl12lts_2024011624synchronization_internal13PthreadWaiterC1Ev, symObjAddr: 0x48, symBinAddr: 0x44DE4, symSize: 0x4 }
  - { offset: 0x27741A, size: 0x8, addend: 0x0, symName: __ZN4absl12lts_2024011624synchronization_internal13PthreadWaiterC1Ev, symObjAddr: 0x48, symBinAddr: 0x44DE4, symSize: 0x4 }
